(lp1
(lp2
I0
a(lp3
Vroot
p4
aF0.28022817612090073
aa(lp5
Vpelvis
p6
aF0.17087670043963729
aa(lp7
Vthigh_l
p8
aF0.063635744317500534
aa(lp9
Vthigh_r
p10
aF0.39506685906180272
aa(lp11
Vthigh_twist_01_r
p12
aF0.090192520060158807
aaa(lp13
I1
a(lp14
Vroot
p15
aF0.35816229188135301
aa(lp16
Vpelvis
p17
aF0.16028965128718689
aa(lp18
VTail1
p19
aF0.04760482686267626
aa(lp20
Vthigh_r
p21
aF0.37496717276120156
aa(lp22
Vthigh_twist_01_r
p23
aF0.058976057207582082
aaa(lp24
I2
a(lp25
Vroot
p26
aF0.32921823727572458
aa(lp27
Vpelvis
p28
aF0.15727787262669254
aa(lp29
VTail1
p30
aF0.037047601797327967
aa(lp31
Vthigh_r
p32
aF0.45872033199799611
aa(lp33
Vthigh_twist_01_r
p34
aF0.017735956302258892
aaa(lp35
I3
a(lp36
Vroot
p37
aF0.22051756507632522
aa(lp38
Vpelvis
p39
aF0.26661689301486724
aa(lp40
VTail1
p41
aF0.027763667143930058
aa(lp42
Vthigh_r
p43
aF0.47181241254509865
aa(lp44
Vthigh_twist_01_r
p45
aF0.013289462219778699
aaa(lp46
I4
a(lp47
Vroot
p48
aF0.14983257088630234
aa(lp49
Vpelvis
p50
aF0.33662191517537188
aa(lp51
VTail1
p52
aF0.017067357961091087
aa(lp53
Vthigh_r
p54
aF0.48493320403797591
aa(lp55
Vthigh_twist_01_r
p56
aF0.011544951939258908
aaa(lp57
I5
a(lp58
Vroot
p59
aF0.13417644717530161
aa(lp60
Vpelvis
p61
aF0.2741198751527556
aa(lp62
Vthigh_l
p63
aF0.014127738439966973
aa(lp64
Vthigh_r
p65
aF0.55867416754805688
aa(lp66
Vthigh_twist_01_r
p67
aF0.018901771683918895
aaa(lp68
I6
a(lp69
Vroot
p70
aF0.15343250978586714
aa(lp71
Vpelvis
p72
aF0.18821837734568764
aa(lp73
Vthigh_l
p74
aF0.031053373825375995
aa(lp75
Vthigh_r
p76
aF0.58316839242630525
aa(lp77
Vthigh_twist_01_r
p78
aF0.044127346616763992
aaa(lp79
I7
a(lp80
Vroot
p81
aF0.34622852699998208
aa(lp82
Vpelvis
p83
aF0.16075250661066481
aa(lp84
Vthigh_l
p85
aF0.071402763551327617
aa(lp86
Vthigh_r
p87
aF0.33972828732655319
aa(lp88
Vthigh_twist_01_r
p89
aF0.08188791551147237
aaa(lp90
I8
a(lp91
Vroot
p92
aF0.43011867200898235
aa(lp93
Vpelvis
p94
aF0.14226802947779477
aa(lp95
VTail1
p96
aF0.050623175723539256
aa(lp97
Vthigh_r
p98
aF0.32502931277241398
aa(lp99
Vthigh_twist_01_r
p100
aF0.051960810017269647
aaa(lp101
I9
a(lp102
Vroot
p103
aF0.44361424603669369
aa(lp104
Vpelvis
p105
aF0.13360239313567163
aa(lp106
VTail1
p107
aF0.041495259461792756
aa(lp108
Vthigh_l
p109
aF0.017458233547316359
aa(lp110
Vthigh_r
p111
aF0.36382986781852561
aaa(lp112
I10
a(lp113
Vroot
p114
aF0.32983533148900729
aa(lp115
Vpelvis
p116
aF0.2374332812185817
aa(lp117
VTail1
p118
aF0.034583639051799515
aa(lp119
Vthigh_l
p120
aF0.013229248116111144
aa(lp121
Vthigh_r
p122
aF0.3849185001245003
aaa(lp123
I11
a(lp124
Vroot
p125
aF0.24818121812092542
aa(lp126
Vpelvis
p127
aF0.33349835207293554
aa(lp128
VTail1
p129
aF0.023488018574062443
aa(lp130
Vthigh_l
p131
aF0.012180458019197402
aa(lp132
Vthigh_r
p133
aF0.38265195321287915
aaa(lp134
I12
a(lp135
Vroot
p136
aF0.22035936417734681
aa(lp137
Vpelvis
p138
aF0.29920572476573554
aa(lp139
VTail1
p140
aF0.019558410983938165
aa(lp141
Vthigh_r
p142
aF0.44071735743661888
aa(lp143
Vthigh_twist_01_r
p144
aF0.020159142636360674
aaa(lp145
I13
a(lp146
Vroot
p147
aF0.228410433537275
aa(lp148
Vpelvis
p149
aF0.20400673035774389
aa(lp150
Vthigh_l
p151
aF0.041417098828761705
aa(lp152
Vthigh_r
p153
aF0.48143640258560083
aa(lp154
Vthigh_twist_01_r
p155
aF0.044729334690618627
aaa(lp156
I14
a(lp157
Vroot
p158
aF0.33305951080586949
aa(lp159
Vpelvis
p160
aF0.15483932833550007
aa(lp161
Vthigh_l
p162
aF0.078934940673019996
aa(lp163
Vthigh_r
p164
aF0.3424579286264452
aa(lp165
Vthigh_twist_01_r
p166
aF0.090708291559165252
aaa(lp167
I15
a(lp168
Vroot
p169
aF0.43464396470837441
aa(lp170
Vpelvis
p171
aF0.13627685226976563
aa(lp172
VTail1
p173
aF0.050987665167487213
aa(lp174
Vthigh_r
p175
aF0.32496570553659559
aa(lp176
Vthigh_twist_01_r
p177
aF0.053125812317777216
aaa(lp178
I16
a(lp179
Vroot
p180
aF0.43686011584552203
aa(lp181
Vpelvis
p182
aF0.12185950795663171
aa(lp183
VTail1
p184
aF0.040222322016143439
aa(lp185
Vthigh_l
p186
aF0.01571365159514778
aa(lp187
Vthigh_r
p188
aF0.385344402586555
aaa(lp189
I17
a(lp190
Vroot
p191
aF0.31411382148989986
aa(lp192
Vpelvis
p193
aF0.22786787095158192
aa(lp194
VTail1
p195
aF0.033660188238675157
aa(lp196
Vthigh_l
p197
aF0.011233358187786998
aa(lp198
Vthigh_r
p199
aF0.4131247611320561
aaa(lp200
I18
a(lp201
Vroot
p202
aF0.23191512387897542
aa(lp203
Vpelvis
p204
aF0.36266018916317189
aa(lp205
VTail1
p206
aF0.021636752075059665
aa(lp207
Vthigh_l
p208
aF0.010264326243143671
aa(lp209
Vthigh_r
p210
aF0.37352360863964945
aaa(lp211
I19
a(lp212
Vroot
p213
aF0.20840998800206822
aa(lp214
Vpelvis
p215
aF0.31855775904589495
aa(lp216
Vthigh_l
p217
aF0.018379953929390777
aa(lp218
Vthigh_r
p219
aF0.43567371909750141
aa(lp220
Vthigh_twist_01_r
p221
aF0.018978579925144658
aaa(lp222
I20
a(lp223
Vroot
p224
aF0.21242311254493987
aa(lp225
Vpelvis
p226
aF0.19663065047973216
aa(lp227
Vthigh_l
p228
aF0.045160132026123387
aa(lp229
Vthigh_r
p230
aF0.49691784102516728
aa(lp231
Vthigh_twist_01_r
p232
aF0.048868263924037258
aaa(lp233
I21
a(lp234
Vroot
p235
aF0.27105541834075081
aa(lp236
Vpelvis
p237
aF0.1633001348164661
aa(lp238
Vthigh_l
p239
aF0.07009305740514167
aa(lp240
Vthigh_r
p241
aF0.39579429172873037
aa(lp242
Vthigh_twist_01_r
p243
aF0.099757097708911058
aaa(lp244
I22
a(lp245
Vroot
p246
aF0.36443660894494057
aa(lp247
Vpelvis
p248
aF0.15315774164976825
aa(lp249
VTail1
p250
aF0.048193262332977618
aa(lp251
Vthigh_r
p252
aF0.37392828992060351
aa(lp253
Vthigh_twist_01_r
p254
aF0.06028409715170991
aaa(lp255
I23
a(lp256
Vroot
p257
aF0.32030207465841065
aa(lp258
Vpelvis
p259
aF0.1420994563619285
aa(lp260
VTail1
p261
aF0.035658675769854861
aa(lp262
Vthigh_r
p263
aF0.48646230930231033
aa(lp264
Vthigh_twist_01_r
p265
aF0.015477483907495534
aaa(lp266
I24
a(lp267
Vroot
p268
aF0.20378953079164311
aa(lp269
Vpelvis
p270
aF0.25299184592825713
aa(lp271
VTail1
p272
aF0.026290382443227709
aa(lp273
Vthigh_r
p274
aF0.5060498471979612
aa(lp275
Vthigh_twist_01_r
p276
aF0.010878393638910813
aaa(lp277
I25
a(lp278
Vroot
p279
aF0.13597204576278196
aa(lp280
Vpelvis
p281
aF0.36447381800309425
aa(lp282
VTail1
p283
aF0.01535493650312731
aa(lp284
Vthigh_r
p285
aF0.47475989353923759
aa(lp286
Vthigh_twist_01_r
p287
aF0.0094393061917587753
aaa(lp288
I26
a(lp289
Vroot
p290
aF0.12500954165325787
aa(lp291
Vpelvis
p292
aF0.28651727178005226
aa(lp293
Vthigh_l
p294
aF0.013141588286136804
aa(lp295
Vthigh_r
p296
aF0.55770955437511704
aa(lp297
Vthigh_twist_01_r
p298
aF0.01762204390543589
aaa(lp299
I27
a(lp300
Vroot
p301
aF0.14170570214874376
aa(lp302
Vpelvis
p303
aF0.1770984686044845
aa(lp304
Vthigh_l
p305
aF0.033202072050799711
aa(lp306
Vthigh_r
p307
aF0.60018170839511165
aa(lp308
Vthigh_twist_01_r
p309
aF0.047812048800860492
aaa(lp310
I28
a(lp311
Vroot
p312
aF0.27979897561573353
aa(lp313
Vpelvis
p314
aF0.32128269375515084
aa(lp315
VTail1
p316
aF0.028954631264560618
aa(lp317
Vthigh_l
p318
aF0.010869262353733292
aa(lp319
Vthigh_r
p320
aF0.35909443701082172
aaa(lp321
I29
a(lp322
Vroot
p323
aF0.26015413083578748
aa(lp324
Vpelvis
p325
aF0.34343579974729443
aa(lp326
VTail1
p327
aF0.023619523176832399
aa(lp328
Vthigh_l
p329
aF0.011624966807307796
aa(lp330
Vthigh_r
p331
aF0.36116557943277799
aaa(lp332
I30
a(lp333
Vroot
p334
aF0.21213611614276703
aa(lp335
Vpelvis
p336
aF0.36260347162987006
aa(lp337
VTail1
p338
aF0.018050019540310672
aa(lp339
Vthigh_r
p340
aF0.39468172572589233
aa(lp341
Vthigh_twist_01_r
p342
aF0.012528666961159882
aaa(lp343
I31
a(lp344
Vroot
p345
aF0.23113947262533005
aa(lp346
Vpelvis
p347
aF0.31010459727296186
aa(lp348
Vthigh_l
p349
aF0.019809672695208669
aa(lp350
Vthigh_r
p351
aF0.4193493703824096
aa(lp352
Vthigh_twist_01_r
p353
aF0.019596887024089918
aaa(lp354
I32
a(lp355
Vroot
p356
aF0.20632765868217476
aa(lp357
Vpelvis
p358
aF0.25473510037927038
aa(lp359
Vthigh_l
p360
aF0.028829477778858841
aa(lp361
Vthigh_r
p362
aF0.47975066055796001
aa(lp363
Vthigh_twist_01_r
p364
aF0.030357102601735856
aaa(lp365
I33
a(lp366
Vroot
p367
aF0.23416681258444363
aa(lp368
Vpelvis
p369
aF0.20201858663543154
aa(lp370
Vthigh_l
p371
aF0.045165965191367355
aa(lp372
Vthigh_r
p373
aF0.47207150283560795
aa(lp374
Vthigh_twist_01_r
p375
aF0.046577132753149529
aaa(lp376
I34
a(lp377
Vroot
p378
aF0.25651517635973631
aa(lp379
Vpelvis
p380
aF0.16420593135127137
aa(lp381
Vthigh_l
p382
aF0.067302677167539349
aa(lp383
Vthigh_r
p384
aF0.43617570380285309
aa(lp385
Vthigh_twist_01_r
p386
aF0.075800511318599911
aaa(lp387
I35
a(lp388
Vroot
p389
aF0.29927489336907787
aa(lp390
Vpelvis
p391
aF0.15837812231566906
aa(lp392
Vthigh_l
p393
aF0.075766470223728261
aa(lp394
Vthigh_r
p395
aF0.36958569238579381
aa(lp396
Vthigh_twist_01_r
p397
aF0.096994821705730941
aaa(lp398
I36
a(lp399
Vroot
p400
aF0.34631745911427669
aa(lp401
Vpelvis
p402
aF0.1690230357095199
aa(lp403
Vthigh_l
p404
aF0.066968220069638582
aa(lp405
Vthigh_r
p406
aF0.3255225402632777
aa(lp407
Vthigh_twist_01_r
p408
aF0.092168744843287159
aaa(lp409
I37
a(lp410
Vroot
p411
aF0.3995222883087276
aa(lp412
Vpelvis
p413
aF0.14390917273514742
aa(lp414
VTail1
p415
aF0.049765531744251509
aa(lp416
Vthigh_r
p417
aF0.34986130493401058
aa(lp418
Vthigh_twist_01_r
p419
aF0.056941702277863021
aaa(lp420
I38
a(lp421
Vroot
p422
aF0.36008617924653635
aa(lp423
Vpelvis
p424
aF0.13997211612845231
aa(lp425
VTail1
p426
aF0.041702304591253639
aa(lp427
Vthigh_r
p428
aF0.42796547010043234
aa(lp429
Vthigh_twist_01_r
p430
aF0.030273929933325172
aaa(lp431
I39
a(lp432
Vroot
p433
aF0.37477447444643069
aa(lp434
Vpelvis
p435
aF0.13073369202709198
aa(lp436
VTail1
p437
aF0.037972164580925727
aa(lp438
Vthigh_l
p439
aF0.014710001248121711
aa(lp440
Vthigh_r
p441
aF0.44180966769742985
aaa(lp442
I40
a(lp443
Vroot
p444
aF0.25610040720753713
aa(lp445
Vpelvis
p446
aF0.17918330980120173
aa(lp447
VTail1
p448
aF0.031064247652820186
aa(lp449
Vthigh_r
p450
aF0.52198004895808214
aa(lp451
Vthigh_twist_01_r
p452
aF0.011671986380358892
aaa(lp453
I41
a(lp454
Vroot
p455
aF0.2515487814639229
aa(lp456
Vpelvis
p457
aF0.24036863719175489
aa(lp458
VTail1
p459
aF0.029813052700784985
aa(lp460
Vthigh_r
p461
aF0.46765886119107719
aa(lp462
Vthigh_twist_01_r
p463
aF0.010610667452459935
aaa(lp464
I42
a(lp465
Vroot
p466
aF0.17484591109907552
aa(lp467
Vpelvis
p468
aF0.34849575515459569
aa(lp469
VTail1
p470
aF0.021809514979581782
aa(lp471
Vthigh_r
p472
aF0.44437909926768487
aa(lp473
Vthigh_twist_01_r
p474
aF0.010469719499062202
aaa(lp475
I43
a(lp476
Vroot
p477
aF0.17633569193874454
aa(lp478
Vpelvis
p479
aF0.37357377110697565
aa(lp480
VTail1
p481
aF0.018131946485786858
aa(lp482
Vthigh_r
p483
aF0.42236300283269279
aa(lp484
Vthigh_twist_01_r
p485
aF0.0095955876358001044
aaa(lp486
I44
a(lp487
Vroot
p488
aF0.12402270985762613
aa(lp489
Vpelvis
p490
aF0.34285244896957662
aa(lp491
VTail1
p492
aF0.012714905173728745
aa(lp493
Vthigh_r
p494
aF0.50886659283916291
aa(lp495
Vthigh_twist_01_r
p496
aF0.011543343159905604
aaa(lp497
I45
a(lp498
Vroot
p499
aF0.16150355488294585
aa(lp500
Vpelvis
p501
aF0.3095995759114773
aa(lp502
Vthigh_l
p503
aF0.015563213215917932
aa(lp504
Vthigh_r
p505
aF0.49500335846905175
aa(lp506
Vthigh_twist_01_r
p507
aF0.018330297520607244
aaa(lp508
I46
a(lp509
Vroot
p510
aF0.12854182092001279
aa(lp511
Vpelvis
p512
aF0.22363672876749435
aa(lp513
Vthigh_l
p514
aF0.020509332011962908
aa(lp515
Vthigh_r
p516
aF0.59872870660842592
aa(lp517
Vthigh_twist_01_r
p518
aF0.028583411692104009
aaa(lp519
I47
a(lp520
Vroot
p521
aF0.17262352179332308
aa(lp522
Vpelvis
p523
aF0.18681146511278413
aa(lp524
Vthigh_l
p525
aF0.039534182449537068
aa(lp526
Vthigh_r
p527
aF0.55158011689498609
aa(lp528
Vthigh_twist_01_r
p529
aF0.049450713749369581
aaa(lp530
I48
a(lp531
Vroot
p532
aF0.1921267577987249
aa(lp533
Vpelvis
p534
aF0.16142804638259367
aa(lp535
Vthigh_l
p536
aF0.054706424466959634
aa(lp537
Vthigh_r
p538
aF0.51198393793302299
aa(lp539
Vthigh_twist_01_r
p540
aF0.079754833418698878
aaa(lp541
I49
a(lp542
Vroot
p543
aF0.26581456896702893
aa(lp544
Vpelvis
p545
aF0.16825720141445419
aa(lp546
Vthigh_l
p547
aF0.065400597736454721
aa(lp548
Vthigh_r
p549
aF0.40432263480531277
aa(lp550
Vthigh_twist_01_r
p551
aF0.096204997076749413
aaa(lp552
I50
a(lp553
Vroot
p554
aF0.35027532662848065
aa(lp555
Vpelvis
p556
aF0.15935215718895537
aa(lp557
VTail1
p558
aF0.04735368117313471
aa(lp559
Vthigh_r
p560
aF0.38222818163466343
aa(lp561
Vthigh_twist_01_r
p562
aF0.060790653374765836
aaa(lp563
I51
a(lp564
Vroot
p565
aF0.30771788184918086
aa(lp566
Vpelvis
p567
aF0.15261229269060617
aa(lp568
VTail1
p569
aF0.035460939751509532
aa(lp570
Vthigh_r
p571
aF0.48745852606329432
aa(lp572
Vthigh_twist_01_r
p573
aF0.016750359645409003
aaa(lp574
I52
a(lp575
Vroot
p576
aF0.19731642326525456
aa(lp577
Vpelvis
p578
aF0.26317981829573506
aa(lp579
VTail1
p580
aF0.025847645008999373
aa(lp581
Vthigh_r
p582
aF0.50166831482425456
aa(lp583
Vthigh_twist_01_r
p584
aF0.011987798605756465
aaa(lp585
I53
a(lp586
Vroot
p587
aF0.13035610945261999
aa(lp588
Vpelvis
p589
aF0.34711662712561148
aa(lp590
VTail1
p591
aF0.015213904388906041
aa(lp592
Vthigh_r
p593
aF0.49706205880977511
aa(lp594
Vthigh_twist_01_r
p595
aF0.010251300223087359
aaa(lp596
I54
a(lp597
Vroot
p598
aF0.11798790388357124
aa(lp599
Vpelvis
p600
aF0.27234262098879308
aa(lp601
Vthigh_l
p602
aF0.012772303390800571
aa(lp603
Vthigh_r
p604
aF0.57904645925410081
aa(lp605
Vthigh_twist_01_r
p606
aF0.01785071248273427
aaa(lp607
I55
a(lp608
Vroot
p609
aF0.13713608185514972
aa(lp610
Vpelvis
p611
aF0.17854909304087022
aa(lp612
Vthigh_l
p613
aF0.030365532115959597
aa(lp614
Vthigh_r
p615
aF0.60846355477700509
aa(lp616
Vthigh_twist_01_r
p617
aF0.045485738211015467
aaa(lp618
I56
a(lp619
Vroot
p620
aF0.34427213642887411
aa(lp621
Vpelvis
p622
aF0.17396834835147174
aa(lp623
Vthigh_l
p624
aF0.061912191763710871
aa(lp625
Vthigh_r
p626
aF0.33452726054061377
aa(lp627
Vthigh_twist_01_r
p628
aF0.085320062915329495
aaa(lp629
I57
a(lp630
Vroot
p631
aF0.31405660718354111
aa(lp632
Vpelvis
p633
aF0.16742904457356445
aa(lp634
Vthigh_l
p635
aF0.066466681499345426
aa(lp636
Vthigh_r
p637
aF0.36730441443119621
aa(lp638
Vthigh_twist_01_r
p639
aF0.084743252312352788
aaa(lp640
I58
a(lp641
Vroot
p642
aF0.40733693754285477
aa(lp643
Vpelvis
p644
aF0.15611797879330536
aa(lp645
Vthigh_l
p646
aF0.065625426601491524
aa(lp647
Vthigh_r
p648
aF0.29585911253543595
aa(lp649
Vthigh_twist_01_r
p650
aF0.075060544526912396
aaa(lp651
I59
a(lp652
Vroot
p653
aF0.39222213153136853
aa(lp654
Vpelvis
p655
aF0.15270038690575169
aa(lp656
VTail1
p657
aF0.049133086602252227
aa(lp658
Vthigh_r
p659
aF0.350641567717207
aa(lp660
Vthigh_twist_01_r
p661
aF0.055302827243420588
aaa(lp662
I60
a(lp663
Vroot
p664
aF0.35762441659151906
aa(lp665
Vpelvis
p666
aF0.15100981551597936
aa(lp667
VTail1
p668
aF0.042237282033753439
aa(lp669
Vthigh_r
p670
aF0.41710861244121666
aa(lp671
Vthigh_twist_01_r
p672
aF0.032019873417531486
aaa(lp673
I61
a(lp674
Vroot
p675
aF0.44947295968017731
aa(lp676
Vpelvis
p677
aF0.13075452463888854
aa(lp678
VTail1
p679
aF0.0455186946302455
aa(lp680
Vthigh_l
p681
aF0.028316121984378741
aa(lp682
Vthigh_r
p683
aF0.34593769906631006
aaa(lp684
I62
a(lp685
Vroot
p686
aF0.38557924078702105
aa(lp687
Vpelvis
p688
aF0.14856075454002238
aa(lp689
VTail1
p690
aF0.039755130320859595
aa(lp691
Vthigh_l
p692
aF0.017363133877355087
aa(lp693
Vthigh_r
p694
aF0.40874174047474182
aaa(lp695
I63
a(lp696
Vroot
p697
aF0.27193741545592864
aa(lp698
Vpelvis
p699
aF0.19682792487641179
aa(lp700
VTail1
p701
aF0.03258118694087013
aa(lp702
Vthigh_r
p703
aF0.48466361199463087
aa(lp704
Vthigh_twist_01_r
p705
aF0.013989860732158611
aaa(lp706
I64
a(lp707
Vroot
p708
aF0.39017496550235176
aa(lp709
Vpelvis
p710
aF0.17065962102866883
aa(lp711
VTail1
p712
aF0.038710916465309948
aa(lp713
Vthigh_l
p714
aF0.014187981578251378
aa(lp715
Vthigh_r
p716
aF0.38626651542541796
aaa(lp717
I65
a(lp718
Vroot
p719
aF0.27375202436600465
aa(lp720
Vpelvis
p721
aF0.2556717632820103
aa(lp722
VTail1
p723
aF0.031453102276978902
aa(lp724
Vthigh_r
p725
aF0.42551685156928637
aa(lp726
Vthigh_twist_01_r
p727
aF0.013606258505719749
aaa(lp728
I66
a(lp729
Vroot
p730
aF0.18410070126817474
aa(lp731
Vpelvis
p732
aF0.32886293166823005
aa(lp733
VTail1
p734
aF0.022562231387458064
aa(lp735
Vthigh_r
p736
aF0.45208419820608242
aa(lp737
Vthigh_twist_01_r
p738
aF0.012389937470054664
aaa(lp739
I67
a(lp740
Vroot
p741
aF0.29099755596805471
aa(lp742
Vpelvis
p743
aF0.30700716820659973
aa(lp744
VTail1
p745
aF0.02968367022266475
aa(lp746
Vthigh_l
p747
aF0.012642462871061038
aa(lp748
Vthigh_r
p749
aF0.35966914273161976
aaa(lp750
I68
a(lp751
Vroot
p752
aF0.19679733935526003
aa(lp753
Vpelvis
p754
aF0.33480386971521531
aa(lp755
VTail1
p756
aF0.020540882211968849
aa(lp757
Vthigh_r
p758
aF0.43548671490968149
aa(lp759
Vthigh_twist_01_r
p760
aF0.012371193807874414
aaa(lp761
I69
a(lp762
Vroot
p763
aF0.13613755035004155
aa(lp764
Vpelvis
p765
aF0.31669711300034775
aa(lp766
VTail1
p767
aF0.014493218285218859
aa(lp768
Vthigh_r
p769
aF0.51911971261910039
aa(lp770
Vthigh_twist_01_r
p771
aF0.013552405745291481
aaa(lp772
I70
a(lp773
Vroot
p774
aF0.22740279024432339
aa(lp775
Vpelvis
p776
aF0.33121865542049111
aa(lp777
VTail1
p778
aF0.020224703376910465
aa(lp779
Vthigh_r
p780
aF0.40666820268605047
aa(lp781
Vthigh_twist_01_r
p782
aF0.014485648272224325
aaa(lp783
I71
a(lp784
Vroot
p785
aF0.17553838640228364
aa(lp786
Vpelvis
p787
aF0.28789577303371189
aa(lp788
VTail1
p789
aF0.017083420766750096
aa(lp790
Vthigh_r
p791
aF0.49950743441042394
aa(lp792
Vthigh_twist_01_r
p793
aF0.019974985386830416
aaa(lp794
I72
a(lp795
Vroot
p796
aF0.13750743872087587
aa(lp797
Vpelvis
p798
aF0.22653549836093478
aa(lp799
Vthigh_l
p800
aF0.020304896442583129
aa(lp801
Vthigh_r
p802
aF0.58760828143739607
aa(lp803
Vthigh_twist_01_r
p804
aF0.028043885038210155
aaa(lp805
I73
a(lp806
Vroot
p807
aF0.21835755428742998
aa(lp808
Vpelvis
p809
aF0.25181548277703686
aa(lp810
Vthigh_l
p811
aF0.028032503996878205
aa(lp812
Vthigh_r
p813
aF0.47228942423103726
aa(lp814
Vthigh_twist_01_r
p815
aF0.029505034707617752
aaa(lp816
I74
a(lp817
Vroot
p818
aF0.19092325876173366
aa(lp819
Vpelvis
p820
aF0.19929758301697093
aa(lp821
Vthigh_l
p822
aF0.035678845830169809
aa(lp823
Vthigh_r
p824
aF0.52992309258558745
aa(lp825
Vthigh_twist_01_r
p826
aF0.044177219805538175
aaa(lp827
I75
a(lp828
Vroot
p829
aF0.20549136105463162
aa(lp830
Vpelvis
p831
aF0.17217736071003703
aa(lp832
Vthigh_l
p833
aF0.049632275265413528
aa(lp834
Vthigh_r
p835
aF0.50115329233269745
aa(lp836
Vthigh_twist_01_r
p837
aF0.071545710637220372
aaa(lp838
I76
a(lp839
Vroot
p840
aF0.27460214523470422
aa(lp841
Vpelvis
p842
aF0.17254970530986444
aa(lp843
Vthigh_l
p844
aF0.060360835966442726
aa(lp845
Vthigh_r
p846
aF0.42470274303653294
aa(lp847
Vthigh_twist_01_r
p848
aF0.067784570452455686
aaa(lp849
I77
a(lp850
Vroot
p851
aF0.35102723405652148
aa(lp852
Vpelvis
p853
aF0.15590367851005338
aa(lp854
Vthigh_l
p855
aF0.076430036721589559
aa(lp856
Vthigh_r
p857
aF0.33198409649895533
aa(lp858
Vthigh_twist_01_r
p859
aF0.084654954212880343
aaa(lp860
I78
a(lp861
Vroot
p862
aF0.40649735824497046
aa(lp863
Vpelvis
p864
aF0.15225539546115446
aa(lp865
Vthigh_l
p866
aF0.07083706848810932
aa(lp867
Vthigh_r
p868
aF0.28930542299793599
aa(lp869
Vthigh_twist_01_r
p870
aF0.081104754807829554
aaa(lp871
I79
a(lp872
Vroot
p873
aF0.44491556699800527
aa(lp874
Vpelvis
p875
aF0.13612633875771504
aa(lp876
VTail1
p877
aF0.051208096525583509
aa(lp878
Vthigh_r
p879
aF0.31640889811633371
aa(lp880
Vthigh_twist_01_r
p881
aF0.051341099602362411
aaa(lp882
I80
a(lp883
Vroot
p884
aF0.45199681035116246
aa(lp885
Vpelvis
p886
aF0.12159101518606764
aa(lp887
VTail1
p888
aF0.04478345179350815
aa(lp889
Vthigh_l
p890
aF0.026820365720083322
aa(lp891
Vthigh_r
p892
aF0.35480835694917856
aaa(lp893
I81
a(lp894
Vroot
p895
aF0.46132167183510553
aa(lp896
Vpelvis
p897
aF0.12340247427377693
aa(lp898
VTail1
p899
aF0.041400979639115501
aa(lp900
Vthigh_l
p901
aF0.01654247521339678
aa(lp902
Vthigh_r
p903
aF0.3573323990386052
aaa(lp904
I82
a(lp905
Vroot
p906
aF0.37656012154098312
aa(lp907
Vpelvis
p908
aF0.15716471355379408
aa(lp909
VTail1
p910
aF0.037678868486119108
aa(lp911
Vthigh_l
p912
aF0.012185506308770572
aa(lp913
Vthigh_r
p914
aF0.41641079011033322
aaa(lp915
I83
a(lp916
Vroot
p917
aF0.34369918605727429
aa(lp918
Vpelvis
p919
aF0.22667744698507455
aa(lp920
VTail1
p921
aF0.035199914469447632
aa(lp922
Vthigh_l
p923
aF0.012444397291646104
aa(lp924
Vthigh_r
p925
aF0.38197905519655739
aaa(lp926
I84
a(lp927
Vroot
p928
aF0.37480401594322055
aa(lp929
Vpelvis
p930
aF0.16604941137064161
aa(lp931
Vthigh_l
p932
aF0.063006748514641317
aa(lp933
Vthigh_r
p934
aF0.31699205108033252
aa(lp935
Vthigh_twist_01_r
p936
aF0.079147773091164095
aaa(lp937
I85
a(lp938
Vroot
p939
aF0.40166445825267472
aa(lp940
Vpelvis
p941
aF0.14306725307123344
aa(lp942
VTail1
p943
aF0.044145631170779853
aa(lp944
Vthigh_r
p945
aF0.38062286281574464
aa(lp946
Vthigh_twist_01_r
p947
aF0.030499794689567362
aaa(lp948
I86
a(lp949
Vroot
p950
aF0.3301157888878874
aa(lp951
Vpelvis
p952
aF0.18766334947343696
aa(lp953
VTail1
p954
aF0.036057404981181089
aa(lp955
Vthigh_r
p956
aF0.43211156108677395
aa(lp957
Vthigh_twist_01_r
p958
aF0.014051895570720655
aaa(lp959
I87
a(lp960
Vroot
p961
aF0.23448074844425015
aa(lp962
Vpelvis
p963
aF0.31831669040152172
aa(lp964
VTail1
p965
aF0.026249208954432481
aa(lp966
Vthigh_r
p967
aF0.40800783030178406
aa(lp968
Vthigh_twist_01_r
p969
aF0.012945521898011562
aaa(lp970
I88
a(lp971
Vroot
p972
aF0.17986028649040481
aa(lp973
Vpelvis
p974
aF0.32392963433866095
aa(lp975
VTail1
p976
aF0.017662335855453098
aa(lp977
Vthigh_r
p978
aF0.46401025476048885
aa(lp979
Vthigh_twist_01_r
p980
aF0.014537488554992426
aaa(lp981
I89
a(lp982
Vroot
p983
aF0.17681096028399806
aa(lp984
Vpelvis
p985
aF0.24184854111350143
aa(lp986
Vthigh_l
p987
aF0.024035644280199518
aa(lp988
Vthigh_r
p989
aF0.52832321732484011
aa(lp990
Vthigh_twist_01_r
p991
aF0.028981636997460931
aaa(lp992
I90
a(lp993
Vroot
p994
aF0.24109721813449767
aa(lp995
Vpelvis
p996
aF0.17484900199910486
aa(lp997
Vthigh_l
p998
aF0.054016283947339969
aa(lp999
Vthigh_r
p1000
aF0.46134840454531234
aa(lp1001
Vthigh_twist_01_r
p1002
aF0.068689091373745098
aaa(lp1003
I91
a(lp1004
Vroot
p1005
aF0.41781567189836477
aa(lp1006
Vpelvis
p1007
aF0.1511126103917674
aa(lp1008
Vthigh_l
p1009
aF0.068777256405632411
aa(lp1010
Vthigh_r
p1011
aF0.28600919003850017
aa(lp1012
Vthigh_twist_01_r
p1013
aF0.076285271265735283
aaa(lp1014
I92
a(lp1015
Vroot
p1016
aF0.46671158781216093
aa(lp1017
Vpelvis
p1018
aF0.12249567830213154
aa(lp1019
VTail1
p1020
aF0.045510118474061015
aa(lp1021
Vthigh_l
p1022
aF0.02765028429638227
aa(lp1023
Vthigh_r
p1024
aF0.33763233111526419
aaa(lp1025
I93
a(lp1026
Vroot
p1027
aF0.40613326568717895
aa(lp1028
Vpelvis
p1029
aF0.15888504019129415
aa(lp1030
VTail1
p1031
aF0.039073311012547712
aa(lp1032
Vthigh_l
p1033
aF0.013313750535699439
aa(lp1034
Vthigh_r
p1035
aF0.38259463257327969
aaa(lp1036
I94
a(lp1037
Vroot
p1038
aF0.30800824567200702
aa(lp1039
Vpelvis
p1040
aF0.30851462796957718
aa(lp1041
VTail1
p1042
aF0.030568917726537623
aa(lp1043
Vthigh_l
p1044
aF0.012104748660789743
aa(lp1045
Vthigh_r
p1046
aF0.34080345997108852
aaa(lp1047
I95
a(lp1048
Vroot
p1049
aF0.23806617330809682
aa(lp1050
Vpelvis
p1051
aF0.34517112581303239
aa(lp1052
VTail1
p1053
aF0.020051600310596274
aa(lp1054
Vthigh_l
p1055
aF0.013898156709291771
aa(lp1056
Vthigh_r
p1057
aF0.38281294385898273
aaa(lp1058
I96
a(lp1059
Vroot
p1060
aF0.22758792596068195
aa(lp1061
Vpelvis
p1062
aF0.25573508500460906
aa(lp1063
Vthigh_l
p1064
aF0.029783568331198405
aa(lp1065
Vthigh_r
p1066
aF0.45696696777524382
aa(lp1067
Vthigh_twist_01_r
p1068
aF0.029926452928266876
aaa(lp1069
I97
a(lp1070
Vroot
p1071
aF0.27777181183524013
aa(lp1072
Vpelvis
p1073
aF0.1680060341098
aa(lp1074
Vthigh_l
p1075
aF0.065713661952398486
aa(lp1076
Vthigh_r
p1077
aF0.41769351935385651
aa(lp1078
Vthigh_twist_01_r
p1079
aF0.070814972748704866
aaa(lp1080
I98
a(lp1081
Vroot
p1082
aF0.37572910770972517
aa(lp1083
Vpelvis
p1084
aF0.16013903974737506
aa(lp1085
Vthigh_l
p1086
aF0.069846599277985227
aa(lp1087
Vthigh_r
p1088
aF0.30656283847380855
aa(lp1089
Vthigh_twist_01_r
p1090
aF0.087722414791106096
aaa(lp1091
I99
a(lp1092
Vroot
p1093
aF0.40499509645844362
aa(lp1094
Vpelvis
p1095
aF0.12957258355305468
aa(lp1096
VTail1
p1097
aF0.043300038731645021
aa(lp1098
Vthigh_r
p1099
aF0.3937986705567425
aa(lp1100
Vthigh_twist_01_r
p1101
aF0.028333610700114201
aaa(lp1102
I100
a(lp1103
Vroot
p1104
aF0.30988438479625185
aa(lp1105
Vpelvis
p1106
aF0.16695398467883024
aa(lp1107
VTail1
p1108
aF0.034330349452010689
aa(lp1109
Vthigh_l
p1110
aF0.011218169706800266
aa(lp1111
Vthigh_r
p1112
aF0.47761311136610696
aaa(lp1113
I101
a(lp1114
Vroot
p1115
aF0.2208071199581709
aa(lp1116
Vpelvis
p1117
aF0.34126315467752599
aa(lp1118
VTail1
p1119
aF0.025259931435383756
aa(lp1120
Vthigh_r
p1121
aF0.40227650353830768
aa(lp1122
Vthigh_twist_01_r
p1123
aF0.010393290390611685
aaa(lp1124
I102
a(lp1125
Vroot
p1126
aF0.16142991687160893
aa(lp1127
Vpelvis
p1128
aF0.36317725151217617
aa(lp1129
VTail1
p1130
aF0.015013458902722768
aa(lp1131
Vthigh_r
p1132
aF0.44851353852741405
aa(lp1133
Vthigh_twist_01_r
p1134
aF0.011865834186078124
aaa(lp1135
I103
a(lp1136
Vroot
p1137
aF0.16294848992653455
aa(lp1138
Vpelvis
p1139
aF0.24189438360481708
aa(lp1140
Vthigh_l
p1141
aF0.024674380836225931
aa(lp1142
Vthigh_r
p1143
aF0.54054236730069549
aa(lp1144
Vthigh_twist_01_r
p1145
aF0.029940378331726986
aaa(lp1146
I104
a(lp1147
Vroot
p1148
aF0.2202900999867585
aa(lp1149
Vpelvis
p1150
aF0.16201751655086596
aa(lp1151
Vthigh_l
p1152
aF0.061961678667453328
aa(lp1153
Vthigh_r
p1154
aF0.47619130913317564
aa(lp1155
Vthigh_twist_01_r
p1156
aF0.079539395661746573
aaa(lp1157
I105
a(lp1158
Vroot
p1159
aF0.33576450898417348
aa(lp1160
Vpelvis
p1161
aF0.1741587245589068
aa(lp1162
Vthigh_l
p1163
aF0.06374010212049612
aa(lp1164
Vthigh_r
p1165
aF0.33583649039094954
aa(lp1166
Vthigh_twist_01_r
p1167
aF0.090500173945474077
aaa(lp1168
I106
a(lp1169
Vroot
p1170
aF0.3448195853407876
aa(lp1171
Vpelvis
p1172
aF0.14828287249573796
aa(lp1173
VTail1
p1174
aF0.041339331025469286
aa(lp1175
Vthigh_r
p1176
aF0.4338824325928719
aa(lp1177
Vthigh_twist_01_r
p1178
aF0.031675778545133065
aaa(lp1179
I107
a(lp1180
Vroot
p1181
aF0.24727979558500382
aa(lp1182
Vpelvis
p1183
aF0.19107958966161326
aa(lp1184
VTail1
p1185
aF0.030683422047230839
aa(lp1186
Vthigh_r
p1187
aF0.51814567670823763
aa(lp1188
Vthigh_twist_01_r
p1189
aF0.012811515997914377
aaa(lp1190
I108
a(lp1191
Vroot
p1192
aF0.16535037466080499
aa(lp1193
Vpelvis
p1194
aF0.33984709860985984
aa(lp1195
VTail1
p1196
aF0.021014981913331201
aa(lp1197
Vthigh_r
p1198
aF0.46252248658783096
aa(lp1199
Vthigh_twist_01_r
p1200
aF0.01126505822817298
aaa(lp1201
I109
a(lp1202
Vroot
p1203
aF0.11825229629721906
aa(lp1204
Vpelvis
p1205
aF0.32275654085115074
aa(lp1206
VTail1
p1207
aF0.012715151852025396
aa(lp1208
Vthigh_r
p1209
aF0.53403275733920819
aa(lp1210
Vthigh_twist_01_r
p1211
aF0.012243253660396721
aaa(lp1212
I110
a(lp1213
Vroot
p1214
aF0.1219006139896176
aa(lp1215
Vpelvis
p1216
aF0.21839496431940864
aa(lp1217
Vthigh_l
p1218
aF0.019131693561507353
aa(lp1219
Vthigh_r
p1220
aF0.61279810068964413
aa(lp1221
Vthigh_twist_01_r
p1222
aF0.027774627439822366
aaa(lp1223
I111
a(lp1224
Vroot
p1225
aF0.18888260486292127
aa(lp1226
Vpelvis
p1227
aF0.16588256598016907
aa(lp1228
Vthigh_l
p1229
aF0.050243680208176031
aa(lp1230
Vthigh_r
p1231
aF0.51904310297815948
aa(lp1232
Vthigh_twist_01_r
p1233
aF0.075948045970574085
aaa.