(lp1
(lp2
I0
a(lp3
Vroot
p4
aF0.060964188822311999
aa(lp5
Vpelvis
p6
aF0.48189185548237939
aa(lp7
Vthigh_l
p8
aF0.0073820021313764804
aa(lp9
Vthigh_r
p10
aF0.43422663455026539
aa(lp11
Vthigh_twist_01_r
p12
aF0.015535319013666697
aaa(lp13
I1
a(lp14
Vroot
p15
aF0.094681952991406179
aa(lp16
Vpelvis
p17
aF0.55517586854877721
aa(lp18
Vthigh_l
p19
aF0.0093303360229573772
aa(lp20
Vthigh_r
p21
aF0.32566416899930695
aa(lp22
Vthigh_twist_01_r
p23
aF0.015147673437552269
aaa(lp24
I2
a(lp25
Vroot
p26
aF0.19196723035322311
aa(lp27
Vpelvis
p28
aF0.45437314792475336
aa(lp29
Vthigh_l
p30
aF0.025701716093895648
aa(lp31
Vthigh_r
p32
aF0.29801057061190001
aa(lp33
Vthigh_twist_01_r
p34
aF0.029947335016227941
aaa(lp35
I3
a(lp36
Vroot
p37
aF0.37228319323761749
aa(lp38
Vpelvis
p39
aF0.40108070747739216
aa(lp40
Vthigh_l
p41
aF0.041792869502626999
aa(lp42
Vthigh_r
p43
aF0.15939458022509559
aa(lp44
Vthigh_twist_01_r
p45
aF0.025448649557267881
aaa(lp46
I4
a(lp47
Vroot
p48
aF0.37195087891899259
aa(lp49
Vpelvis
p50
aF0.3104160493854245
aa(lp51
Vthigh_l
p52
aF0.08765183551031909
aa(lp53
Vthigh_r
p54
aF0.18577623285200379
aa(lp55
Vthigh_twist_01_r
p56
aF0.044205003333259912
aaa(lp57
I5
a(lp58
Vroot
p59
aF0.015538816417215306
aa(lp60
Vpelvis
p61
aF0.26351373405473871
aa(lp62
Vthigh_l
p63
aF0.0037771270184601136
aa(lp64
Vthigh_r
p65
aF0.70221547875431389
aa(lp66
Vthigh_twist_01_r
p67
aF0.014954843755272019
aaa(lp68
I6
a(lp69
Vroot
p70
aF0.037237706537594478
aa(lp71
Vpelvis
p72
aF0.44765234532827458
aa(lp73
Vthigh_l
p74
aF0.0077726825507849623
aa(lp75
Vthigh_r
p76
aF0.48607255426660279
aa(lp77
Vthigh_twist_01_r
p78
aF0.021264711316743179
aaa(lp79
I7
a(lp80
Vroot
p81
aF0.063438685605464284
aa(lp82
Vpelvis
p83
aF0.38998975922027296
aa(lp84
Vthigh_l
p85
aF0.018544098272259387
aa(lp86
Vthigh_r
p87
aF0.48691598168239297
aa(lp88
Vthigh_twist_01_r
p89
aF0.041111475219610498
aaa(lp90
I8
a(lp91
Vroot
p92
aF0.12962408408758422
aa(lp93
Vpelvis
p94
aF0.52794014633533404
aa(lp95
Vthigh_l
p96
aF0.030791990535156636
aa(lp97
Vthigh_r
p98
aF0.27398917418513374
aa(lp99
Vthigh_twist_01_r
p100
aF0.037654604856791424
aaa(lp101
I9
a(lp102
Vroot
p103
aF0.15828695114596625
aa(lp104
Vpelvis
p105
aF0.35952853377593963
aa(lp106
Vthigh_l
p107
aF0.086380010792878006
aa(lp108
Vthigh_r
p109
aF0.31949615080575788
aa(lp110
Vthigh_twist_01_r
p111
aF0.076308353479458177
aaa(lp112
I10
a(lp113
Vroot
p114
aF0.064382310857016289
aa(lp115
Vpelvis
p116
aF0.020679055833709627
aa(lp117
VTail1
p118
aF0.0090568683443514927
aa(lp119
Vthigh_l
p120
aF0.0028496799272794871
aa(lp121
Vthigh_r
p122
aF0.9030320850376431
aaa(lp123
I11
a(lp124
Vroot
p125
aF0.14843178295120538
aa(lp126
Vpelvis
p127
aF0.040442805392514831
aa(lp128
VTail1
p129
aF0.017403923708040107
aa(lp130
Vthigh_l
p131
aF0.007471442893810072
aa(lp132
Vthigh_r
p133
aF0.78625004505442964
aaa(lp134
I12
a(lp135
Vroot
p136
aF0.34251711941769325
aa(lp137
Vpelvis
p138
aF0.056655702485243417
aa(lp139
VTail1
p140
aF0.03120145864587829
aa(lp141
Vthigh_l
p142
aF0.017853135272770493
aa(lp143
Vthigh_r
p144
aF0.55177258417841457
aaa(lp145
I13
a(lp146
Vroot
p147
aF0.49198217841470682
aa(lp148
Vpelvis
p149
aF0.067443006760182375
aa(lp150
VTail1
p151
aF0.040186697368839827
aa(lp152
Vthigh_l
p153
aF0.034886713958721879
aa(lp154
Vthigh_r
p155
aF0.36550140349754912
aaa(lp156
I14
a(lp157
Vroot
p158
aF0.74624089224514178
aa(lp159
Vpelvis
p160
aF0.053831911869796578
aa(lp161
VTail1
p162
aF0.037508534035833603
aa(lp163
Vthigh_l
p164
aF0.044060206492434577
aa(lp165
Vthigh_r
p166
aF0.11835845535679344
aaa(lp167
I15
a(lp168
Vroot
p169
aF0.77397102211181268
aa(lp170
Vpelvis
p171
aF0.022478086666956668
aa(lp172
VTail1
p173
aF0.028959962277824672
aa(lp174
Vthigh_r
p175
aF0.15162756679653225
aa(lp176
Vcalf_r
p177
aF0.022963362146873709
aaa(lp178
I16
a(lp179
Vroot
p180
aF0.97444135203293536
aa(lp181
Vpelvis
p182
aF0.0044066370040268506
aa(lp183
VTail1
p184
aF0.0052923332283838654
aa(lp185
Vthigh_r
p186
aF0.013174348690791812
aa(lp187
Vcalf_r
p188
aF0.0026853290438621845
aaa(lp189
I17
a(lp190
Vroot
p191
aF0.99622530121184771
aa(lp192
Vthigh_r
p193
aF0.0015349562118575019
aaa(lp194
I18
a(lp195
Vroot
p196
aF0.99998456314140982
aaa(lp197
I19
a(lp198
Vroot
p199
aF0.99913590935963359
aaa(lp200
I20
a(lp201
Vroot
p202
aF0.97424148186698689
aa(lp203
Vpelvis
p204
aF0.0028514005589690946
aa(lp205
VTail1
p206
aF0.0042215952842513584
aa(lp207
Vthigh_r
p208
aF0.013758297138256147
aa(lp209
Vcalf_r
p210
aF0.0049272251515365814
aaa(lp211
I21
a(lp212
Vroot
p213
aF0.99644081738668677
aa(lp214
Vthigh_r
p215
aF0.0015758276764279433
aaa(lp216
I22
a(lp217
Vroot
p218
aF0.99969226342781137
aaa(lp219
I23
a(lp220
Vroot
p221
aF0.99990186902952183
aaa(lp222
I24
a(lp223
Vroot
p224
aF0.96742102441066935
aa(lp225
VTail1
p226
aF0.0049339599295067154
aa(lp227
VTail2
p228
aF0.0045205892688746337
aa(lp229
Vthigh_r
p230
aF0.013299243023753675
aa(lp231
Vcalf_r
p232
aF0.0098251833671956449
aaa(lp233
I25
a(lp234
Vroot
p235
aF0.9916869805070927
aa(lp236
VTail1
p237
aF0.0014272731021900045
aa(lp238
VTail2
p239
aF0.0013934704280205345
aa(lp240
Vthigh_r
p241
aF0.0027975910730820602
aa(lp242
Vcalf_r
p243
aF0.0026946848896145948
aaa(lp244
I26
a(lp245
Vroot
p246
aF0.99821958094594765
aaa(lp247
I27
a(lp248
Vroot
p249
aF0.059697946572349843
aa(lp250
Vpelvis
p251
aF0.4319047255240574
aa(lp252
Vthigh_l
p253
aF0.0084643480024721822
aa(lp254
Vthigh_r
p255
aF0.48092618784708124
aa(lp256
Vthigh_twist_01_r
p257
aF0.019006792054039351
aaa(lp258
I28
a(lp259
Vroot
p260
aF0.086103625026300618
aa(lp261
Vpelvis
p262
aF0.50002210093805377
aa(lp263
Vthigh_l
p264
aF0.010313065740633303
aa(lp265
Vthigh_r
p266
aF0.38503460942099804
aa(lp267
Vthigh_twist_01_r
p268
aF0.018526598874014113
aaa(lp269
I29
a(lp270
Vroot
p271
aF0.034606593216057857
aa(lp272
Vpelvis
p273
aF0.36668349891117136
aa(lp274
Vthigh_l
p275
aF0.0085048863151933191
aa(lp276
Vthigh_r
p277
aF0.56493307606709176
aa(lp278
Vthigh_twist_01_r
p279
aF0.025271945490485673
aaa(lp280
I30
a(lp281
Vroot
p282
aF0.016674403807967645
aa(lp283
Vpelvis
p284
aF0.22020271779054518
aa(lp285
Vthigh_l
p286
aF0.0047370640418282432
aa(lp287
Vthigh_r
p288
aF0.73905627997197265
aa(lp289
Vthigh_twist_01_r
p290
aF0.019329534387686156
aaa(lp291
I31
a(lp292
Vroot
p293
aF0.17070222463188986
aa(lp294
Vpelvis
p295
aF0.41822071347636858
aa(lp296
Vthigh_l
p297
aF0.028437243555853059
aa(lp298
Vthigh_r
p299
aF0.34608427694177007
aa(lp300
Vthigh_twist_01_r
p301
aF0.036555541394118478
aaa(lp302
I32
a(lp303
Vroot
p304
aF0.056788491752359845
aa(lp305
Vpelvis
p306
aF0.323547516217641
aa(lp307
Vthigh_l
p308
aF0.019856185309995601
aa(lp309
Vthigh_r
p310
aF0.55156584611826565
aa(lp311
Vthigh_twist_01_r
p312
aF0.048241960601737882
aaa(lp313
I33
a(lp314
Vroot
p315
aF0.33189718185773148
aa(lp316
Vpelvis
p317
aF0.39360356761744647
aa(lp318
Vthigh_l
p319
aF0.047590381700020695
aa(lp320
Vthigh_r
p321
aF0.19479422253674497
aa(lp322
Vthigh_twist_01_r
p323
aF0.032114646288056402
aaa(lp324
I34
a(lp325
Vroot
p326
aF0.11950811989422781
aa(lp327
Vpelvis
p328
aF0.47723597688346636
aa(lp329
Vthigh_l
p330
aF0.033426578697727728
aa(lp331
Vthigh_r
p332
aF0.32506830466902725
aa(lp333
Vthigh_twist_01_r
p334
aF0.044761019855550886
aaa(lp335
I35
a(lp336
Vroot
p337
aF0.33144225410112055
aa(lp338
Vpelvis
p339
aF0.30730117446885336
aa(lp340
Vthigh_l
p341
aF0.090695981564647643
aa(lp342
Vthigh_r
p343
aF0.21838862115937735
aa(lp344
Vthigh_twist_01_r
p345
aF0.052171968706001132
aaa(lp346
I36
a(lp347
Vroot
p348
aF0.13318082464121947
aa(lp349
Vpelvis
p350
aF0.33140363048562632
aa(lp351
Vthigh_l
p352
aF0.076076886428565235
aa(lp353
Vthigh_r
p354
aF0.37660444350573236
aa(lp355
Vthigh_twist_01_r
p356
aF0.082734214938856729
aaa(lp357
I37
a(lp358
Vroot
p359
aF0.053254710445807305
aa(lp360
Vpelvis
p361
aF0.019398967558201197
aa(lp362
VTail1
p363
aF0.007807871994769084
aa(lp364
Vthigh_r
p365
aF0.91680724807793679
aa(lp366
Vthigh_twist_01_r
p367
aF0.0027312019232856471
aaa(lp368
I38
a(lp369
Vroot
p370
aF0.12892631212501798
aa(lp371
Vpelvis
p372
aF0.040483654698360558
aa(lp373
VTail1
p374
aF0.016031672750682496
aa(lp375
Vthigh_r
p376
aF0.8070771825062224
aa(lp377
Vthigh_twist_01_r
p378
aF0.0074811779197166374
aaa(lp379
I39
a(lp380
Vroot
p381
aF0.31383034937570536
aa(lp382
Vpelvis
p383
aF0.059468413150200995
aa(lp384
VTail1
p385
aF0.03058967419534335
aa(lp386
Vthigh_l
p387
aF0.018771221672899983
aa(lp388
Vthigh_r
p389
aF0.57734034160585024
aaa(lp390
I40
a(lp391
Vroot
p392
aF0.46342727549007595
aa(lp393
Vpelvis
p394
aF0.072439219042139541
aa(lp395
VTail1
p396
aF0.040834570058381349
aa(lp397
Vthigh_l
p398
aF0.038110888137377785
aa(lp399
Vthigh_r
p400
aF0.38518804727202538
aaa(lp401
I41
a(lp402
Vroot
p403
aF0.71534781283785298
aa(lp404
Vpelvis
p405
aF0.056858957787858315
aa(lp406
VTail1
p407
aF0.04017985571145994
aa(lp408
Vthigh_l
p409
aF0.05068192430564996
aa(lp410
Vthigh_r
p411
aF0.13693144935717877
aaa(lp412
I42
a(lp413
Vroot
p414
aF0.73742830584797314
aa(lp415
Vpelvis
p416
aF0.02126507106208473
aa(lp417
VTail1
p418
aF0.027049568007988883
aa(lp419
Vthigh_r
p420
aF0.18699177188810506
aa(lp421
Vcalf_r
p422
aF0.027265283193848199
aaa(lp423
I43
a(lp424
Vroot
p425
aF0.96797998197155688
aa(lp426
Vpelvis
p427
aF0.0048765051246664462
aa(lp428
VTail1
p429
aF0.0057631039062128794
aa(lp430
Vthigh_r
p431
aF0.017826526810748776
aa(lp432
Vcalf_r
p433
aF0.0035538821868149875
aaa(lp434
I44
a(lp435
Vroot
p436
aF0.99520134671162652
aa(lp437
VTail1
p438
aF0.0011203372869828445
aa(lp439
Vthigh_r
p440
aF0.0020773582681877217
aaa(lp441
I45
a(lp442
Vroot
p443
aF0.99993390500582691
aaa(lp444
I46
a(lp445
Vroot
p446
aF0.9986417392294592
aaa(lp447
I47
a(lp448
Vroot
p449
aF0.97045569405420129
aa(lp450
Vpelvis
p451
aF0.0029316387269022726
aa(lp452
VTail1
p453
aF0.0042004421289618182
aa(lp454
Vthigh_r
p455
aF0.016555077784140559
aa(lp456
Vcalf_r
p457
aF0.0058571473057940082
aaa(lp458
I48
a(lp459
Vroot
p460
aF0.99651943334519455
aa(lp461
Vthigh_r
p462
aF0.0016067753268566882
aaa(lp463
I49
a(lp464
Vroot
p465
aF0.99981831314326475
aaa(lp466
I50
a(lp467
Vroot
p468
aF0.99991845715166017
aaa(lp469
I51
a(lp470
Vroot
p471
aF0.96952344527483936
aa(lp472
VTail1
p473
aF0.0039988080656078191
aa(lp474
VTail2
p475
aF0.0036673990405761241
aa(lp476
Vthigh_r
p477
aF0.013085956849333639
aa(lp478
Vcalf_r
p479
aF0.009724390769643116
aaa(lp480
I52
a(lp481
Vroot
p482
aF0.9944703289531206
aa(lp483
Vthigh_r
p484
aF0.0019397907458377252
aa(lp485
Vcalf_r
p486
aF0.0018871533519921125
aaa(lp487
I53
a(lp488
Vroot
p489
aF0.99931214396746504
aaa.