(lp1
(lp2
I0
a(lp3
Vroot
p4
aF0.020378612399668785
aa(lp5
VTail1
p6
aF0.0055488050143488229
aa(lp7
VTail2
p8
aF0.0066036163770673353
aa(lp9
Vthigh_l
p10
aF0.46690668595720247
aa(lp11
Vcalf_l
p12
aF0.50056228025171257
aaa(lp13
I1
a(lp14
Vroot
p15
aF0.06900235662450506
aa(lp16
VTail1
p17
aF0.0025813751923773453
aa(lp18
VTail2
p19
aF0.0026797386399632704
aa(lp20
Vthigh_l
p21
aF0.45552891421051345
aa(lp22
Vcalf_l
p23
aF0.47020761533264083
aaa(lp24
I2
a(lp25
Vroot
p26
aF0.055808107173484174
aa(lp27
Vthigh_l
p28
aF0.25228980544272511
aa(lp29
Vcalf_l
p30
aF0.68706038511254486
aa(lp31
Vcalf_twist_01_l
p32
aF0.0025316178430515178
aa(lp33
Vcalf_r
p34
aF0.0023100844281943832
aaa(lp35
I3
a(lp36
Vroot
p37
aF0.013596735910730457
aa(lp38
Vthigh_l
p39
aF0.35935081976179467
aa(lp40
Vcalf_l
p41
aF0.62367189084684516
aa(lp42
Vcalf_twist_01_l
p43
aF0.0019986889499773136
aa(lp44
Vfoot_l
p45
aF0.0013818645306523207
aaa(lp46
I4
a(lp47
Vroot
p48
aF0.003324733197696563
aa(lp49
Vthigh_l
p50
aF0.49708375609047617
aa(lp51
Vcalf_l
p52
aF0.49794794196995817
aaa(lp53
I5
a(lp54
Vroot
p55
aF0.0019093373342126822
aa(lp56
Vthigh_l
p57
aF0.49638997305061677
aa(lp58
Vcalf_l
p59
aF0.50042025295374915
aaa(lp60
I6
a(lp61
Vroot
p62
aF0.0042362116238825959
aa(lp63
VTail2
p64
aF0.0014872956364978297
aa(lp65
Vthigh_l
p66
aF0.49276523625083751
aa(lp67
Vcalf_l
p68
aF0.49991673822085503
aa(lp69
Vfoot_l
p70
aF0.0015945182679270881
aaa(lp71
I7
a(lp72
Vroot
p73
aF0.0083373744412818113
aa(lp74
VTail1
p75
aF0.0031496054356227026
aa(lp76
VTail2
p77
aF0.0034519668595671144
aa(lp78
Vthigh_l
p79
aF0.49880876524589668
aa(lp80
Vcalf_l
p81
aF0.4862522880176316
aaa(lp82
I8
a(lp83
Vroot
p84
aF0.074672019053568878
aa(lp85
VTail2
p86
aF0.051115492794198192
aa(lp87
VTail3
p88
aF0.043282050812178216
aa(lp89
Vthigh_l
p90
aF0.35164969338821328
aa(lp91
Vcalf_l
p92
aF0.47928074395184145
aaa(lp93
I9
a(lp94
Vroot
p95
aF0.49255965434570781
aa(lp96
VTail2
p97
aF0.015565084905055293
aa(lp98
Vthigh_l
p99
aF0.16251953545663134
aa(lp100
Vcalf_l
p101
aF0.31677446146313776
aa(lp102
Vcalf_r
p103
aF0.012581263829467887
aaa(lp104
I10
a(lp105
Vroot
p106
aF0.22358602117091175
aa(lp107
Vthigh_l
p108
aF0.13024765548323677
aa(lp109
Vcalf_l
p110
aF0.62568702483418792
aa(lp111
Vcalf_twist_01_l
p112
aF0.011062678717678107
aa(lp113
Vcalf_r
p114
aF0.0094166197939853646
aaa(lp115
I11
a(lp116
Vroot
p117
aF0.067202406873933418
aa(lp118
Vthigh_l
p119
aF0.31542074024785705
aa(lp120
Vcalf_l
p121
aF0.58758632274756328
aa(lp122
Vcalf_twist_01_l
p123
aF0.018719847681126126
aa(lp124
Vfoot_l
p125
aF0.011070682449520136
aaa(lp126
I12
a(lp127
Vroot
p128
aF0.023653591046371901
aa(lp129
Vthigh_l
p130
aF0.38815425839859374
aa(lp131
Vcalf_l
p132
aF0.5620752809303875
aa(lp133
Vcalf_twist_01_l
p134
aF0.013242659063991337
aa(lp135
Vfoot_l
p136
aF0.01287421056065549
aaa(lp137
I13
a(lp138
Vroot
p139
aF0.0094320254179739473
aa(lp140
Vthigh_l
p141
aF0.25963434127467488
aa(lp142
Vcalf_l
p143
aF0.71325150866641163
aa(lp144
Vcalf_twist_01_l
p145
aF0.0070180931534905618
aa(lp146
Vfoot_l
p147
aF0.010664031487448955
aaa(lp148
I14
a(lp149
Vroot
p150
aF0.011737113114589444
aa(lp151
Vthigh_l
p152
aF0.36151306735694616
aa(lp153
Vcalf_l
p154
aF0.60779137378875159
aa(lp155
Vcalf_twist_01_l
p156
aF0.0065039792184199878
aa(lp157
Vfoot_l
p158
aF0.012454466521292855
aaa(lp159
I15
a(lp160
Vroot
p161
aF0.018346645985501318
aa(lp162
VTail2
p163
aF0.010972739443262157
aa(lp164
Vthigh_l
p165
aF0.41898669739335381
aa(lp166
Vcalf_l
p167
aF0.54114590446625077
aa(lp168
Vfoot_l
p169
aF0.010548012711631938
aaa(lp170
I16
a(lp171
Vroot
p172
aF0.070078253583682609
aa(lp173
VTail2
p174
aF0.049053312557236363
aa(lp175
VTail3
p176
aF0.040725972006355061
aa(lp177
Vthigh_l
p178
aF0.36545468482940807
aa(lp179
Vcalf_l
p180
aF0.47468777702331794
aaa(lp181
I17
a(lp182
Vroot
p183
aF0.44107361372191362
aa(lp184
VTail1
p185
aF0.012486887730235189
aa(lp186
VTail2
p187
aF0.016441130231460648
aa(lp188
Vthigh_l
p189
aF0.18744767617986621
aa(lp190
Vcalf_l
p191
aF0.34255069213652439
aaa(lp192
I18
a(lp193
Vroot
p194
aF0.22643269463276691
aa(lp195
Vthigh_l
p196
aF0.16627164251922302
aa(lp197
Vcalf_l
p198
aF0.58724903106132587
aa(lp199
Vcalf_twist_01_l
p200
aF0.010379193894714422
aa(lp201
Vcalf_r
p202
aF0.0096674378919697889
aaa(lp203
I19
a(lp204
Vroot
p205
aF0.063351894342142875
aa(lp206
Vthigh_l
p207
aF0.33435472321709508
aa(lp208
Vcalf_l
p209
aF0.57438211904284275
aa(lp210
Vcalf_twist_01_l
p211
aF0.017380307227193283
aa(lp212
Vfoot_l
p213
aF0.010530956170725957
aaa(lp214
I20
a(lp215
Vroot
p216
aF0.022616821577964213
aa(lp217
Vthigh_l
p218
aF0.40251788442988023
aa(lp219
Vcalf_l
p220
aF0.55019721333377303
aa(lp221
Vcalf_twist_01_l
p222
aF0.012423304438004974
aa(lp223
Vfoot_l
p224
aF0.012244776220377661
aaa(lp225
I21
a(lp226
Vroot
p227
aF0.0096215031646926207
aa(lp228
Vthigh_l
p229
aF0.28358498892714218
aa(lp230
Vcalf_l
p231
aF0.68922883440720584
aa(lp232
Vcalf_twist_01_l
p233
aF0.0069803376544734308
aa(lp234
Vfoot_l
p235
aF0.010584335846485833
aaa(lp236
I22
a(lp237
Vroot
p238
aF0.012166146753747588
aa(lp239
Vthigh_l
p240
aF0.38044702850733697
aa(lp241
Vcalf_l
p242
aF0.58828886356594867
aa(lp243
Vcalf_twist_01_l
p244
aF0.0065931173001529961
aa(lp245
Vfoot_l
p246
aF0.012504843872813693
aaa(lp247
I23
a(lp248
Vroot
p249
aF0.018449291483828647
aa(lp250
VTail2
p251
aF0.011234214498159893
aa(lp252
Vthigh_l
p253
aF0.43179203401778377
aa(lp254
Vcalf_l
p255
aF0.52823492645542336
aa(lp256
Vfoot_l
p257
aF0.010289533544804228
aaa(lp258
I24
a(lp259
Vroot
p260
aF0.020643626798639909
aa(lp261
VTail1
p262
aF0.0058942997888826116
aa(lp263
VTail2
p264
aF0.0067929434560599364
aa(lp265
Vthigh_l
p266
aF0.49167504311583748
aa(lp267
Vcalf_l
p268
aF0.4749940868405802
aaa(lp269
I25
a(lp270
Vroot
p271
aF0.072833547656626793
aa(lp272
VTail1
p273
aF0.0028938471106567986
aa(lp274
VTail2
p275
aF0.0029665676748048889
aa(lp276
Vthigh_l
p277
aF0.50075716423450789
aa(lp278
Vcalf_l
p279
aF0.42054887332340363
aaa(lp280
I26
a(lp281
Vroot
p282
aF0.065809909968444144
aa(lp283
Vthigh_l
p284
aF0.30975204761733305
aa(lp285
Vcalf_l
p286
aF0.61927060054392491
aa(lp287
Vcalf_twist_01_l
p288
aF0.0025790991157540206
aa(lp289
Vcalf_r
p290
aF0.0025883427545439351
aaa(lp291
I27
a(lp292
Vroot
p293
aF0.014106632718834892
aa(lp294
Vthigh_l
p295
aF0.40880842842442255
aa(lp296
Vcalf_l
p297
aF0.57396250084643186
aa(lp298
Vcalf_twist_01_l
p299
aF0.001842297786438495
aa(lp300
Vfoot_l
p301
aF0.0012801402238722375
aaa(lp302
I28
a(lp303
Vroot
p304
aF0.0032942473630433243
aa(lp305
Vthigh_l
p306
aF0.49758545788422309
aa(lp307
Vcalf_l
p308
aF0.49758545788422331
aaa(lp309
I29
a(lp310
Vroot
p311
aF0.0020296155022863655
aa(lp312
Vthigh_l
p313
aF0.49835334632962902
aa(lp314
Vcalf_l
p315
aF0.49835334632962902
aaa(lp316
I30
a(lp317
Vroot
p318
aF0.004363492683306912
aa(lp319
VTail1
p320
aF0.0015055770176719083
aa(lp321
VTail2
p322
aF0.0015682437784497513
aa(lp323
Vthigh_l
p324
aF0.50045520678886801
aa(lp325
Vcalf_l
p326
aF0.49210747973170343
aaa(lp327
I31
a(lp328
Vroot
p329
aF0.0091454648219511329
aa(lp330
VTail1
p331
aF0.0036620187976365323
aa(lp332
VTail2
p333
aF0.0039569725826056092
aa(lp334
Vthigh_l
p335
aF0.51365470865850393
aa(lp336
Vcalf_l
p337
aF0.46958083513930288
aaa(lp338
I32
a(lp339
Vthigh_l
p340
aF0.52758886704767038
aa(lp341
Vcalf_l
p342
aF0.47228888844976114
aaa(lp343
I33
a(lp344
Vthigh_l
p345
aF0.92537569611446979
aa(lp346
Vcalf_l
p347
aF0.074539635869134244
aaa(lp348
I34
a(lp349
Vroot
p350
aF0.037980726351458355
aa(lp351
Vthigh_l
p352
aF0.38514033785439528
aa(lp353
Vcalf_l
p354
aF0.55091998683038534
aa(lp355
Vcalf_twist_01_l
p356
aF0.014841080533002999
aa(lp357
Vfoot_l
p358
aF0.011117868430758057
aaa(lp359
I35
a(lp360
Vroot
p361
aF0.011337561632038386
aa(lp362
Vthigh_l
p363
aF0.23704366903463128
aa(lp364
Vcalf_l
p365
aF0.72626053886510111
aa(lp366
Vcalf_twist_01_l
p367
aF0.0096284517259497999
aa(lp368
Vfoot_l
p369
aF0.01572977874227928
aaa(lp370
I36
a(lp371
Vroot
p372
aF0.0076936848782669133
aa(lp373
Vthigh_l
p374
aF0.42347717992843525
aa(lp375
Vcalf_l
p376
aF0.56084512998335734
aa(lp377
Vcalf_twist_01_l
p378
aF0.0036640457685714663
aa(lp379
Vfoot_l
p380
aF0.0043199594413689483
aaa(lp381
I37
a(lp382
Vroot
p383
aF0.014362201556292682
aa(lp384
Vthigh_l
p385
aF0.33927460178805141
aa(lp386
Vcalf_l
p387
aF0.61872548072473621
aa(lp388
Vcalf_twist_01_l
p389
aF0.0090040316241927158
aa(lp390
Vfoot_l
p391
aF0.018633684306727041
aaa(lp392
I38
a(lp393
Vroot
p394
aF0.01141202922675805
aa(lp395
Vthigh_l
p396
aF0.29083463434151596
aa(lp397
Vcalf_l
p398
aF0.67136481731568176
aa(lp399
Vcalf_twist_01_l
p400
aF0.0085074944327012715
aa(lp401
Vfoot_l
p402
aF0.017881024683342968
aaa(lp403
I39
a(lp404
Vroot
p405
aF0.022121422961880858
aa(lp406
VTail2
p407
aF0.014717696981064189
aa(lp408
Vthigh_l
p409
aF0.40440882961317504
aa(lp410
Vcalf_l
p411
aF0.54412088076454279
aa(lp412
Vfoot_l
p413
aF0.014631169679337053
aaa(lp414
I40
a(lp415
Vroot
p416
aF0.018602197190082475
aa(lp417
VTail2
p418
aF0.011100913531587384
aa(lp419
Vthigh_l
p420
aF0.39285581309086204
aa(lp421
Vcalf_l
p422
aF0.55984487869191824
aa(lp423
Vfoot_l
p424
aF0.017596197495549876
aaa(lp425
I41
a(lp426
Vroot
p427
aF0.027909172574053245
aa(lp428
VTail2
p429
aF0.017236246185122872
aa(lp430
VTail3
p431
aF0.015194551483384234
aa(lp432
Vthigh_l
p433
aF0.37282400185300096
aa(lp434
Vcalf_l
p435
aF0.56683602790443866
aaa(lp436
I42
a(lp437
Vroot
p438
aF0.16808499661303017
aa(lp439
VTail1
p440
aF0.0045062545927887637
aa(lp441
VTail2
p442
aF0.0047303216955217643
aa(lp443
Vthigh_l
p444
aF0.38470564776898308
aa(lp445
Vcalf_l
p446
aF0.43797277932967632
aaa(lp447
I43
a(lp448
Vroot
p449
aF0.023239378665349555
aa(lp450
VTail1
p451
aF0.0033729068739842671
aa(lp452
VTail2
p453
aF0.0036819268338616272
aa(lp454
Vthigh_l
p455
aF0.51772897815423291
aa(lp456
Vcalf_l
p457
aF0.45197680947257163
aaa(lp458
I44
a(lp459
Vroot
p460
aF0.046703463203193081
aa(lp461
VTail2
p462
aF0.0232600882898574
aa(lp463
VTail3
p464
aF0.017603496430033824
aa(lp465
Vthigh_l
p466
aF0.42235260528233642
aa(lp467
Vcalf_l
p468
aF0.49008034679457935
aaa(lp469
I45
a(lp470
Vroot
p471
aF0.12244380411890574
aa(lp472
Vthigh_l
p473
aF0.22252067678779036
aa(lp474
Vcalf_l
p475
aF0.64369288414356873
aa(lp476
Vcalf_twist_01_l
p477
aF0.005924447488469352
aa(lp478
Vcalf_r
p479
aF0.0054181874612659288
aaa(lp480
I46
a(lp481
Vroot
p482
aF0.15392039228075527
aa(lp483
VTail2
p484
aF0.0027273193922185308
aa(lp485
Vthigh_l
p486
aF0.35441883009775654
aa(lp487
Vcalf_l
p488
aF0.48535780435623438
aa(lp489
Vcalf_r
p490
aF0.0035756538730354211
aaa(lp491
I47
a(lp492
Vroot
p493
aF0.034478108819304513
aa(lp494
Vthigh_l
p495
aF0.36300474127006555
aa(lp496
Vcalf_l
p497
aF0.58956292280295453
aa(lp498
Vcalf_twist_01_l
p499
aF0.0078021421401692501
aa(lp500
Vfoot_l
p501
aF0.0051520849675062673
aaa(lp502
I48
a(lp503
Vroot
p504
aF0.033697447803175705
aa(lp505
Vthigh_l
p506
aF0.32765989649674571
aa(lp507
Vcalf_l
p508
aF0.63390571417310326
aa(lp509
Vcalf_twist_01_l
p510
aF0.0026351667569723841
aa(lp511
Vcalf_r
p512
aF0.0021017747700030408
aaa(lp513
I49
a(lp514
Vroot
p515
aF0.011016638174392676
aa(lp516
Vthigh_l
p517
aF0.47015284557682369
aa(lp518
Vcalf_l
p519
aF0.51044091130379454
aa(lp520
Vcalf_twist_01_l
p521
aF0.004222239196498982
aa(lp522
Vfoot_l
p523
aF0.0041673657484901198
aaa(lp524
I50
a(lp525
Vroot
p526
aF0.0065774771375444446
aa(lp527
Vthigh_l
p528
aF0.48618448841469208
aa(lp529
Vcalf_l
p530
aF0.50500716890947694
aa(lp531
Vcalf_twist_01_l
p532
aF0.001226056361595488
aa(lp533
Vfoot_l
p534
aF0.0010048091766911246
aaa(lp535
I51
a(lp536
Vroot
p537
aF0.0045385934757250709
aa(lp538
Vthigh_l
p539
aF0.41189405879225222
aa(lp540
Vcalf_l
p541
aF0.57843807462104957
aa(lp542
Vcalf_twist_01_l
p543
aF0.0021267261991634507
aa(lp544
Vfoot_l
p545
aF0.0030025469118096768
aaa(lp546
I52
a(lp547
Vroot
p548
aF0.0024965232551642583
aa(lp549
Vthigh_l
p550
aF0.49802547944254932
aa(lp551
Vcalf_l
p552
aF0.49802547944254921
aaa(lp553
I53
a(lp554
Vroot
p555
aF0.010411128599229363
aa(lp556
VTail2
p557
aF0.0046582738573033543
aa(lp558
Vthigh_l
p559
aF0.43471625053864416
aa(lp560
Vcalf_l
p561
aF0.54253726479072917
aa(lp562
Vfoot_l
p563
aF0.0076770822140939284
aaa(lp564
I54
a(lp565
Vroot
p566
aF0.0026887614278323989
aa(lp567
Vthigh_l
p568
aF0.49784818650651613
aa(lp569
Vcalf_l
p570
aF0.49771053527566816
aaa(lp571
I55
a(lp572
Vroot
p573
aF0.011980526289617332
aa(lp574
VTail1
p575
aF0.0053359017274710362
aa(lp576
VTail2
p577
aF0.0060053951271487778
aa(lp578
Vthigh_l
p579
aF0.47968150943036075
aa(lp580
Vcalf_l
p581
aF0.49699666742540205
aaa(lp582
I56
a(lp583
Vroot
p584
aF0.0070335045825563108
aa(lp585
VTail1
p586
aF0.0028044477275642413
aa(lp587
VTail2
p588
aF0.0029744675527884372
aa(lp589
Vthigh_l
p590
aF0.50666617891044019
aa(lp591
Vcalf_l
p592
aF0.48052140122665071
aaa(lp593
I57
a(lp594
Vroot
p595
aF0.015024212877209691
aa(lp596
VTail1
p597
aF0.0056631843598650223
aa(lp598
VTail2
p599
aF0.0063907639174855795
aa(lp600
Vthigh_l
p601
aF0.50094038895739235
aa(lp602
Vcalf_l
p603
aF0.4719814498880473
aaa(lp604
I58
a(lp605
Vroot
p606
aF0.0052541572501097148
aa(lp607
VTail2
p608
aF0.0010374191473046526
aa(lp609
Vthigh_l
p610
aF0.50879661860618119
aa(lp611
Vcalf_l
p612
aF0.48395788898023784
aaa(lp613
I59
a(lp614
Vroot
p615
aF0.015218723237457106
aa(lp616
Vthigh_l
p617
aF0.50867921211742018
aa(lp618
Vcalf_l
p619
aF0.47435022337379218
aaa(lp620
I60
a(lp621
Vroot
p622
aF0.015109830471264706
aa(lp623
Vthigh_l
p624
aF0.35656763999590213
aa(lp625
Vcalf_l
p626
aF0.62698029022600099
aaa(lp627
I61
a(lp628
Vroot
p629
aF0.0026318503210424559
aa(lp630
Vthigh_l
p631
aF0.3644027668842888
aa(lp632
Vcalf_l
p633
aF0.63251898876426804
aaa(lp634
I62
a(lp635
Vthigh_l
p636
aF0.49982357471671751
aa(lp637
Vcalf_l
p638
aF0.4998235747167174
aaa(lp639
I63
a(lp640
Vthigh_l
p641
aF0.50086851738693028
aa(lp642
Vcalf_l
p643
aF0.4986542666415823
aaa(lp644
I64
a(lp645
Vroot
p646
aF0.0010528387314075957
aa(lp647
Vthigh_l
p648
aF0.51283652557803494
aa(lp649
Vcalf_l
p650
aF0.48558032107021865
aaa(lp651
I65
a(lp652
Vroot
p653
aF0.0029698397190020057
aa(lp654
Vthigh_l
p655
aF0.51450159997955824
aa(lp656
Vcalf_l
p657
aF0.48091825181385905
aaa(lp658
I66
a(lp659
Vroot
p660
aF0.016932052309304526
aa(lp661
VTail1
p662
aF0.0010339515941818341
aa(lp663
VTail2
p664
aF0.0010491373138358732
aa(lp665
Vthigh_l
p666
aF0.60506454455850511
aa(lp667
Vcalf_l
p668
aF0.3759203142241726
aaa(lp669
I67
a(lp670
Vroot
p671
aF0.0050883016076535108
aa(lp672
VTail2
p673
aF0.0010147482769884409
aa(lp674
Vthigh_l
p675
aF0.5913033531898032
aa(lp676
Vcalf_l
p677
aF0.40162657655615874
aaa(lp678
I68
a(lp679
Vroot
p680
aF0.022434201266324443
aa(lp681
Vthigh_l
p682
aF0.46060898689725094
aa(lp683
Vcalf_l
p684
aF0.5152583047262026
aaa(lp685
I69
a(lp686
Vroot
p687
aF0.0035941620305590641
aa(lp688
Vthigh_l
p689
aF0.47866572460254775
aa(lp690
Vcalf_l
p691
aF0.5172228847564676
aaa(lp692
I70
a(lp693
Vthigh_l
p694
aF0.54355225694463161
aa(lp695
Vcalf_l
p696
aF0.45594917029443927
aaa(lp697
I71
a(lp698
Vthigh_l
p699
aF0.56977405615148613
aa(lp700
Vcalf_l
p701
aF0.42957410617710423
aaa(lp702
I72
a(lp703
Vroot
p704
aF0.0011427171267806644
aa(lp705
Vthigh_l
p706
aF0.59076003714317704
aa(lp707
Vcalf_l
p708
aF0.40749803846439747
aaa(lp709
I73
a(lp710
Vroot
p711
aF0.0030217518230096739
aa(lp712
Vthigh_l
p713
aF0.58401326827114519
aa(lp714
Vcalf_l
p715
aF0.41125838383065899
aaa(lp716
I74
a(lp717
Vroot
p718
aF0.024997024301737232
aa(lp719
VTail1
p720
aF0.0032342612010370394
aa(lp721
VTail2
p722
aF0.0036362552589203913
aa(lp723
Vthigh_l
p724
aF0.47571218161285367
aa(lp725
Vcalf_l
p726
aF0.49242027762545171
aaa(lp727
I75
a(lp728
Vroot
p729
aF0.17609824272210609
aa(lp730
VTail1
p731
aF0.0042913106575384755
aa(lp732
VTail2
p733
aF0.0045631798426733631
aa(lp734
Vthigh_l
p735
aF0.35209150093750485
aa(lp736
Vcalf_l
p737
aF0.46295576584017717
aaa(lp738
I76
a(lp739
Vroot
p740
aF0.17538463156903369
aa(lp741
VTail2
p742
aF0.018020886747990572
aa(lp743
VTail3
p744
aF0.014559518152995173
aa(lp745
Vthigh_l
p746
aF0.25835858801879524
aa(lp747
Vcalf_l
p748
aF0.53367637551118541
aaa(lp749
I77
a(lp750
Vroot
p751
aF0.048337549357936202
aa(lp752
VTail2
p753
aF0.023482588712332185
aa(lp754
VTail3
p755
aF0.018439977757963587
aa(lp756
Vthigh_l
p757
aF0.40498294398119905
aa(lp758
Vcalf_l
p759
aF0.50475694019056894
aaa(lp760
I78
a(lp761
Vroot
p762
aF0.13117316199095955
aa(lp763
Vthigh_l
p764
aF0.32317125213158249
aa(lp765
Vcalf_l
p766
aF0.53977698594389778
aa(lp767
Vcalf_twist_01_l
p768
aF0.0026140626694234124
aa(lp769
Vcalf_r
p770
aF0.003264537264136795
aaa(lp771
I79
a(lp772
Vroot
p773
aF0.12281261614048927
aa(lp774
Vthigh_l
p775
aF0.19445899890491131
aa(lp776
Vcalf_l
p777
aF0.67107734493442772
aa(lp778
Vcalf_twist_01_l
p779
aF0.0062188990841244348
aa(lp780
Vcalf_r
p781
aF0.0054321409360472556
aaa(lp782
I80
a(lp783
Vroot
p784
aF0.42393662440688346
aa(lp785
Vthigh_l
p786
aF0.15612512677276455
aa(lp787
Vcalf_l
p788
aF0.4070665515611091
aa(lp789
Vcalf_twist_01_l
p790
aF0.0054492407016979343
aa(lp791
Vcalf_r
p792
aF0.0074224565575448662
aaa(lp793
I81
a(lp794
Vroot
p795
aF0.030230180111402733
aa(lp796
Vthigh_l
p797
aF0.27101361501417465
aa(lp798
Vcalf_l
p799
aF0.69409243287128997
aa(lp800
Vcalf_twist_01_l
p801
aF0.0026995352289362297
aa(lp802
Vcalf_r
p803
aF0.0019642367741965383
aaa(lp804
I82
a(lp805
Vroot
p806
aF0.036419530639461926
aa(lp807
Vthigh_l
p808
aF0.33405114565418953
aa(lp809
Vcalf_l
p810
aF0.6153069318849943
aa(lp811
Vcalf_twist_01_l
p812
aF0.0086318816761447766
aa(lp813
Vfoot_l
p814
aF0.0055905101452094616
aaa(lp815
I83
a(lp816
Vroot
p817
aF0.1028082916069667
aa(lp818
Vthigh_l
p819
aF0.24314512578742845
aa(lp820
Vcalf_l
p821
aF0.62799327107269232
aa(lp822
Vcalf_twist_01_l
p823
aF0.016042133218233046
aa(lp824
Vcalf_r
p825
aF0.010011178314679587
aaa(lp826
I84
a(lp827
Vroot
p828
aF0.0067355213037916485
aa(lp829
Vthigh_l
p830
aF0.46501777388206306
aa(lp831
Vcalf_l
p832
aF0.52577514208580134
aa(lp833
Vcalf_twist_01_l
p834
aF0.0013600922909474756
aa(lp835
Vfoot_l
p836
aF0.0011114704373965715
aaa(lp837
I85
a(lp838
Vroot
p839
aF0.011487504380096273
aa(lp840
Vthigh_l
p841
aF0.45601737418730859
aa(lp842
Vcalf_l
p843
aF0.52351362489207443
aa(lp844
Vcalf_twist_01_l
p845
aF0.0045404738850047376
aa(lp846
Vfoot_l
p847
aF0.0044410226555158796
aaa(lp848
I86
a(lp849
Vroot
p850
aF0.040350459067775409
aa(lp851
Vthigh_l
p852
aF0.3666285225772753
aa(lp853
Vcalf_l
p854
aF0.56540829912825974
aa(lp855
Vcalf_twist_01_l
p856
aF0.015948000939560201
aa(lp857
Vfoot_l
p858
aF0.011664718287129477
aaa(lp859
I87
a(lp860
Vroot
p861
aF0.0023766155103733216
aa(lp862
Vthigh_l
p863
aF0.49770903997809551
aa(lp864
Vcalf_l
p865
aF0.49844700135934594
aaa(lp866
I88
a(lp867
Vroot
p868
aF0.0044118901060650213
aa(lp869
Vthigh_l
p870
aF0.37896842690146798
aa(lp871
Vcalf_l
p872
aF0.61141103307397915
aa(lp873
Vcalf_twist_01_l
p874
aF0.0021498844671164201
aa(lp875
Vfoot_l
p876
aF0.0030587654513714066
aaa(lp877
I89
a(lp878
Vroot
p879
aF0.0076924691784505169
aa(lp880
Vthigh_l
p881
aF0.40440442058727633
aa(lp882
Vcalf_l
p883
aF0.57980060943278855
aa(lp884
Vcalf_twist_01_l
p885
aF0.0037313084574761742
aa(lp886
Vfoot_l
p887
aF0.0043711923440084991
aaa(lp888
I90
a(lp889
Vroot
p890
aF0.0025564783382547546
aa(lp891
Vthigh_l
p892
aF0.49468718478650808
aa(lp893
Vcalf_l
p894
aF0.50099674110412884
aa(lp895
Vfoot_l
p896
aF0.0010077463856492234
aaa(lp897
I91
a(lp898
Vroot
p899
aF0.010106152248024674
aa(lp900
Vthigh_l
p901
aF0.41443412191604817
aa(lp902
Vcalf_l
p903
aF0.56303400580174479
aa(lp904
Vcalf_twist_01_l
p905
aF0.0045402571159443997
aa(lp906
Vfoot_l
p907
aF0.0078854629182380856
aaa(lp908
I92
a(lp909
Vroot
p910
aF0.01095964240921499
aa(lp911
Vthigh_l
p912
aF0.26805898450119209
aa(lp913
Vcalf_l
p914
aF0.69473608435913026
aa(lp915
Vcalf_twist_01_l
p916
aF0.0083800340512627386
aa(lp917
Vfoot_l
p918
aF0.017865254679200068
aaa(lp919
I93
a(lp920
Vroot
p921
aF0.006692534117944085
aa(lp922
VTail1
p923
aF0.0025568805568301008
aa(lp924
VTail2
p925
aF0.0027484985296789177
aa(lp926
Vthigh_l
p927
aF0.49536380767630128
aa(lp928
Vcalf_l
p929
aF0.49263827911924574
aaa(lp930
I94
a(lp931
Vroot
p932
aF0.01119810857151734
aa(lp933
VTail1
p934
aF0.0047236785176334875
aa(lp935
VTail2
p936
aF0.0053864752034864126
aa(lp937
Vthigh_l
p938
aF0.47089626930081852
aa(lp939
Vcalf_l
p940
aF0.50779546840654421
aaa(lp941
I95
a(lp942
Vroot
p943
aF0.017902343691933213
aa(lp944
VTail2
p945
aF0.010360964681135237
aa(lp946
Vthigh_l
p947
aF0.37922497116463466
aa(lp948
Vcalf_l
p949
aF0.57511071716667816
aa(lp950
Vfoot_l
p951
aF0.017401003295618798
aaa(lp952
I96
a(lp953
Vroot
p954
aF0.014061729052196069
aa(lp955
VTail1
p956
aF0.0049960221348606774
aa(lp957
VTail2
p958
aF0.0057540598501783736
aa(lp959
Vthigh_l
p960
aF0.48329929588782811
aa(lp961
Vcalf_l
p962
aF0.49188889307493677
aaa(lp963
I97
a(lp964
Vroot
p965
aF0.029762713092077585
aa(lp966
VTail2
p967
aF0.018443527902656073
aa(lp968
VTail3
p969
aF0.016555457547383877
aa(lp970
Vthigh_l
p971
aF0.35387913699235007
aa(lp972
Vcalf_l
p973
aF0.58135916446553249
aaa(lp974
I98
a(lp975
Vroot
p976
aF0.55431607263330895
aa(lp977
VTail2
p978
aF0.015419311260540127
aa(lp979
Vthigh_l
p980
aF0.14472250619940624
aa(lp981
Vcalf_l
p982
aF0.27275914313281274
aa(lp983
Vcalf_r
p984
aF0.012782966773931955
aaa(lp985
I99
a(lp986
Vroot
p987
aF0.15048900697382037
aa(lp988
VTail2
p989
aF0.017760393101100509
aa(lp990
VTail3
p991
aF0.014062737876945413
aa(lp992
Vthigh_l
p993
aF0.28578240887522099
aa(lp994
Vcalf_l
p995
aF0.53190545317291271
aaa(lp996
I100
a(lp997
Vroot
p998
aF0.080556691388159671
aa(lp999
VTail2
p1000
aF0.06399139162610222
aa(lp1001
VTail3
p1002
aF0.055027468505357079
aa(lp1003
Vthigh_l
p1004
aF0.33858078569983263
aa(lp1005
Vcalf_l
p1006
aF0.46184366278054845
aaa(lp1007
I101
a(lp1008
Vroot
p1009
aF0.25042759405133191
aa(lp1010
Vthigh_l
p1011
aF0.13491991633214204
aa(lp1012
Vcalf_l
p1013
aF0.59120699437512558
aa(lp1014
Vcalf_twist_01_l
p1015
aF0.012503228245595448
aa(lp1016
Vcalf_r
p1017
aF0.010942266995804976
aaa(lp1018
I102
a(lp1019
Vroot
p1020
aF0.40363823037292246
aa(lp1021
Vthigh_l
p1022
aF0.17250518602287554
aa(lp1023
Vcalf_l
p1024
aF0.41131165838820971
aa(lp1025
Vcalf_twist_01_l
p1026
aF0.0052700166324885023
aa(lp1027
Vcalf_r
p1028
aF0.007274908583503872
aaa(lp1029
I103
a(lp1030
Vroot
p1031
aF0.079454043261147161
aa(lp1032
Vthigh_l
p1033
aF0.31466298095867462
aa(lp1034
Vcalf_l
p1035
aF0.56997110533754591
aa(lp1036
Vcalf_twist_01_l
p1037
aF0.022794127269499524
aa(lp1038
Vfoot_l
p1039
aF0.013117743173132917
aaa(lp1040
I104
a(lp1041
Vroot
p1042
aF0.096677436918093218
aa(lp1043
Vthigh_l
p1044
aF0.26011544825348865
aa(lp1045
Vcalf_l
p1046
aF0.61859954166970532
aa(lp1047
Vcalf_twist_01_l
p1048
aF0.015076264963394781
aa(lp1049
Vcalf_r
p1050
aF0.0095313081953180435
aaa(lp1051
I105
a(lp1052
Vroot
p1053
aF0.028732590781735939
aa(lp1054
Vthigh_l
p1055
aF0.36966640556806479
aa(lp1056
Vcalf_l
p1057
aF0.56611120777903767
aa(lp1058
Vcalf_twist_01_l
p1059
aF0.017960859714370642
aa(lp1060
Vfoot_l
p1061
aF0.017528936156790974
aaa(lp1062
I106
a(lp1063
Vroot
p1064
aF0.13685956499796822
aa(lp1065
VTail2
p1066
aF0.011705890500884802
aa(lp1067
VTail3
p1068
aF0.0088437818613466661
aa(lp1069
Vthigh_l
p1070
aF0.29610718736019176
aa(lp1071
Vcalf_l
p1072
aF0.54648357527960856
aaa(lp1073
I107
a(lp1074
Vroot
p1075
aF0.27719729710712826
aa(lp1076
Vthigh_l
p1077
aF0.21806451515529093
aa(lp1078
Vcalf_l
p1079
aF0.49464134059561271
aa(lp1080
Vcalf_twist_01_l
p1081
aF0.004401981986578327
aa(lp1082
Vcalf_r
p1083
aF0.0056948651553896945
aaa(lp1084
I108
a(lp1085
Vroot
p1086
aF0.066127363536077774
aa(lp1087
Vthigh_l
p1088
aF0.23926215468187204
aa(lp1089
Vcalf_l
p1090
aF0.68056537913523574
aa(lp1091
Vcalf_twist_01_l
p1092
aF0.0085776584401313759
aa(lp1093
Vcalf_r
p1094
aF0.0054674442066832123
aaa(lp1095
I109
a(lp1096
Vroot
p1097
aF0.020658515884940405
aa(lp1098
Vthigh_l
p1099
aF0.41921559822407256
aa(lp1100
Vcalf_l
p1101
aF0.54875980080591225
aa(lp1102
Vcalf_twist_01_l
p1103
aF0.0063572512311229267
aa(lp1104
Vfoot_l
p1105
aF0.0050088338539518718
aaa(lp1106
I110
a(lp1107
Vroot
p1108
aF0.0063901600552005063
aa(lp1109
Vthigh_l
p1110
aF0.42615827160814362
aa(lp1111
Vcalf_l
p1112
aF0.56104616768528948
aa(lp1113
Vcalf_twist_01_l
p1114
aF0.0029208633733969675
aa(lp1115
Vfoot_l
p1116
aF0.0034845372779694988
aaa(lp1117
I111
a(lp1118
Vroot
p1119
aF0.0058430346488263542
aa(lp1120
Vthigh_l
p1121
aF0.38033594119138481
aa(lp1122
Vcalf_l
p1123
aF0.60623354748708502
aa(lp1124
Vcalf_twist_01_l
p1125
aF0.0028661912927073455
aa(lp1126
Vfoot_l
p1127
aF0.0047212853799964514
aaa(lp1128
I112
a(lp1129
Vroot
p1130
aF0.011087774005444275
aa(lp1131
VTail2
p1132
aF0.0053660219542436367
aa(lp1133
Vthigh_l
p1134
aF0.45043430185128674
aa(lp1135
Vcalf_l
p1136
aF0.52679584331455265
aa(lp1137
Vfoot_l
p1138
aF0.0063160588744727453
aaa(lp1139
I113
a(lp1140
Vroot
p1141
aF0.021037744493486544
aa(lp1142
VTail1
p1143
aF0.00868998907512291
aa(lp1144
VTail2
p1145
aF0.010802998607389161
aa(lp1146
Vthigh_l
p1147
aF0.44868722532084898
aa(lp1148
Vcalf_l
p1149
aF0.5107820425031524
aaa(lp1150
I114
a(lp1151
Vroot
p1152
aF0.20101496360235069
aa(lp1153
VTail2
p1154
aF0.022034355960253632
aa(lp1155
VTail3
p1156
aF0.017925737332950893
aa(lp1157
Vthigh_l
p1158
aF0.25076980306780805
aa(lp1159
Vcalf_l
p1160
aF0.50825514003663674
aaa(lp1161
I115
a(lp1162
Vroot
p1163
aF0.47027013616337521
aa(lp1164
Vthigh_l
p1165
aF0.14466501225121697
aa(lp1166
Vcalf_l
p1167
aF0.37163232952357589
aa(lp1168
Vcalf_twist_01_l
p1169
aF0.005580920879140216
aa(lp1170
Vcalf_r
p1171
aF0.0078516011826917417
aaa(lp1172
I116
a(lp1173
Vroot
p1174
aF0.11411710415352454
aa(lp1175
Vthigh_l
p1176
aF0.25133270686231884
aa(lp1177
Vcalf_l
p1178
aF0.60412074483020317
aa(lp1179
Vcalf_twist_01_l
p1180
aF0.018663705285395696
aa(lp1181
Vcalf_r
p1182
aF0.011765738868557644
aaa(lp1183
I117
a(lp1184
Vroot
p1185
aF0.047907409223359003
aa(lp1186
Vthigh_l
p1187
aF0.35536513271818593
aa(lp1188
Vcalf_l
p1189
aF0.56150326481319435
aa(lp1190
Vcalf_twist_01_l
p1191
aF0.020505272752863037
aa(lp1192
Vfoot_l
p1193
aF0.014718920492397699
aaa(lp1194
I118
a(lp1195
Vroot
p1196
aF0.0096682442358592101
aa(lp1197
Vthigh_l
p1198
aF0.37666202391336484
aa(lp1199
Vcalf_l
p1200
aF0.60197733779065821
aa(lp1201
Vcalf_twist_01_l
p1202
aF0.0053093034831683174
aa(lp1203
Vfoot_l
p1204
aF0.0063830905769495473
aaa(lp1205
I119
a(lp1206
Vroot
p1207
aF0.013268306856899757
aa(lp1208
Vthigh_l
p1209
aF0.25175142807123463
aa(lp1210
Vcalf_l
p1211
aF0.69684542342879063
aa(lp1212
Vcalf_twist_01_l
p1213
aF0.011449256623888061
aa(lp1214
Vfoot_l
p1215
aF0.026685585019186896
aaa(lp1216
I120
a(lp1217
Vroot
p1218
aF0.021961302032540264
aa(lp1219
VTail2
p1220
aF0.014180869576366486
aa(lp1221
Vthigh_l
p1222
aF0.35919703031060352
aa(lp1223
Vcalf_l
p1224
aF0.57917675067575547
aa(lp1225
Vfoot_l
p1226
aF0.025484047404734242
aaa(lp1227
I121
a(lp1228
Vroot
p1229
aF0.034430246983145708
aa(lp1230
VTail2
p1231
aF0.024160577601593475
aa(lp1232
VTail3
p1233
aF0.022052737574325482
aa(lp1234
Vthigh_l
p1235
aF0.34769953972358641
aa(lp1236
Vcalf_l
p1237
aF0.57165689811734899
aaa(lp1238
I122
a(lp1239
Vroot
p1240
aF0.11446774347920892
aa(lp1241
VTail1
p1242
aF0.0089719940936606787
aa(lp1243
VTail2
p1244
aF0.011479142045142337
aa(lp1245
Vthigh_l
p1246
aF0.33974936385477761
aa(lp1247
Vcalf_l
p1248
aF0.52533175652721054
aaa(lp1249
I123
a(lp1250
Vroot
p1251
aF0.28312227777986426
aa(lp1252
Vthigh_l
p1253
aF0.24112771420155013
aa(lp1254
Vcalf_l
p1255
aF0.46583071510591495
aa(lp1256
Vcalf_twist_01_l
p1257
aF0.0042005582699966657
aa(lp1258
Vcalf_r
p1259
aF0.00571873464267382
aaa(lp1260
I124
a(lp1261
Vroot
p1262
aF0.064441796313452995
aa(lp1263
Vthigh_l
p1264
aF0.26842884948848872
aa(lp1265
Vcalf_l
p1266
aF0.65383627593208615
aa(lp1267
Vcalf_twist_01_l
p1268
aF0.007973502352548071
aa(lp1269
Vcalf_r
p1270
aF0.0053195759134240274
aaa(lp1271
I125
a(lp1272
Vroot
p1273
aF0.019451577466492675
aa(lp1274
Vthigh_l
p1275
aF0.44098144559017111
aa(lp1276
Vcalf_l
p1277
aF0.52914461476524632
aa(lp1278
Vcalf_twist_01_l
p1279
aF0.0057880724003046315
aa(lp1280
Vfoot_l
p1281
aF0.0046342897777853489
aaa(lp1282
I126
a(lp1283
Vroot
p1284
aF0.0063515075325341766
aa(lp1285
Vthigh_l
p1286
aF0.44902714254873594
aa(lp1287
Vcalf_l
p1288
aF0.53848060737167303
aa(lp1289
Vcalf_twist_01_l
p1290
aF0.0027999518857461476
aa(lp1291
Vfoot_l
p1292
aF0.003340790661310713
aaa(lp1293
I127
a(lp1294
Vroot
p1295
aF0.0060662738316121945
aa(lp1296
Vthigh_l
p1297
aF0.41041617700926086
aa(lp1298
Vcalf_l
p1299
aF0.57601331059047234
aa(lp1300
Vcalf_twist_01_l
p1301
aF0.0028590389212790252
aa(lp1302
Vfoot_l
p1303
aF0.0046451996473756271
aaa(lp1304
I128
a(lp1305
Vroot
p1306
aF0.011879996494755378
aa(lp1307
VTail2
p1308
aF0.0059982516078354213
aa(lp1309
Vthigh_l
p1310
aF0.46276464841982456
aa(lp1311
Vcalf_l
p1312
aF0.51289692899597095
aa(lp1313
Vfoot_l
p1314
aF0.0064601744816137029
aaa(lp1315
I129
a(lp1316
Vroot
p1317
aF0.021438490928700239
aa(lp1318
VTail1
p1319
aF0.0093985417916481653
aa(lp1320
VTail2
p1321
aF0.011413100883780855
aa(lp1322
Vthigh_l
p1323
aF0.46182505686591968
aa(lp1324
Vcalf_l
p1325
aF0.4959248095299511
aaa(lp1326
I130
a(lp1327
Vroot
p1328
aF0.0087259072993430744
aa(lp1329
VTail1
p1330
aF0.0010178864061021686
aa(lp1331
VTail2
p1332
aF0.0010847060933864112
aa(lp1333
Vthigh_l
p1334
aF0.52564014956242588
aa(lp1335
Vcalf_l
p1336
aF0.46353135063874257
aaa(lp1337
I131
a(lp1338
Vroot
p1339
aF0.037848895038233403
aa(lp1340
VTail2
p1341
aF0.0011969542769101817
aa(lp1342
Vthigh_l
p1343
aF0.41244857260701384
aa(lp1344
Vcalf_l
p1345
aF0.54728084164274871
aa(lp1346
Vcalf_r
p1347
aF0.0012247364350939617
aaa(lp1348
I132
a(lp1349
Vroot
p1350
aF0.010027763021311193
aa(lp1351
Vthigh_l
p1352
aF0.31884654385990219
aa(lp1353
Vcalf_l
p1354
aF0.66986110900885865
aaa(lp1355
I133
a(lp1356
Vroot
p1357
aF0.0014216259866064254
aa(lp1358
Vthigh_l
p1359
aF0.46895623557878391
aa(lp1360
Vcalf_l
p1361
aF0.52926986767508866
aaa(lp1362
I134
a(lp1363
Vthigh_l
p1364
aF0.49964772695681714
aa(lp1365
Vcalf_l
p1366
aF0.49964772695681736
aaa(lp1367
I135
a(lp1368
Vthigh_l
p1369
aF0.50500453918106492
aa(lp1370
Vcalf_l
p1371
aF0.49368605853455871
aaa(lp1372
I136
a(lp1373
Vroot
p1374
aF0.0026204435471029286
aa(lp1375
Vthigh_l
p1376
aF0.51567413088436109
aa(lp1377
Vcalf_l
p1378
aF0.48014091556532262
aaa(lp1379
I137
a(lp1380
Vroot
p1381
aF0.0059143628877930425
aa(lp1382
VTail1
p1383
aF0.0015413314007809908
aa(lp1384
VTail2
p1385
aF0.0016891329466624592
aa(lp1386
Vthigh_l
p1387
aF0.50503169239011869
aa(lp1388
Vcalf_l
p1389
aF0.48582348037464479
aaa(lp1390
I138
a(lp1391
Vroot
p1392
aF0.0090858385717380082
aa(lp1393
VTail1
p1394
aF0.0011070117650156537
aa(lp1395
VTail2
p1396
aF0.0011485957419582139
aa(lp1397
Vthigh_l
p1398
aF0.60579263021738616
aa(lp1399
Vcalf_l
p1400
aF0.38286592370390188
aaa(lp1401
I139
a(lp1402
Vroot
p1403
aF0.049867250872671166
aa(lp1404
VTail1
p1405
aF0.0015953563800241365
aa(lp1406
VTail2
p1407
aF0.0016124773003176442
aa(lp1408
Vthigh_l
p1409
aF0.48745123524818201
aa(lp1410
Vcalf_l
p1411
aF0.45947368019880502
aaa(lp1412
I140
a(lp1413
Vroot
p1414
aF0.013673000850916625
aa(lp1415
Vthigh_l
p1416
aF0.4212657147329727
aa(lp1417
Vcalf_l
p1418
aF0.56357266794465577
aaa(lp1419
I141
a(lp1420
Vroot
p1421
aF0.0016302237134159553
aa(lp1422
Vthigh_l
p1423
aF0.50481244633892219
aa(lp1424
Vcalf_l
p1425
aF0.49320839846285863
aaa(lp1426
I142
a(lp1427
Vthigh_l
p1428
aF0.52497414579541424
aa(lp1429
Vcalf_l
p1430
aF0.47410154544456323
aaa(lp1431
I143
a(lp1432
Vroot
p1433
aF0.0010169303101260777
aa(lp1434
Vthigh_l
p1435
aF0.55718339108960457
aa(lp1436
Vcalf_l
p1437
aF0.44129792582907323
aaa(lp1438
I144
a(lp1439
Vroot
p1440
aF0.0027281936502827476
aa(lp1441
Vthigh_l
p1442
aF0.57001136083821213
aa(lp1443
Vcalf_l
p1444
aF0.4255723275110429
aaa(lp1445
I145
a(lp1446
Vroot
p1447
aF0.0059802718362260143
aa(lp1448
VTail1
p1449
aF0.0016417067482683194
aa(lp1450
VTail2
p1451
aF0.0017445977318739393
aa(lp1452
Vthigh_l
p1453
aF0.55614759545296388
aa(lp1454
Vcalf_l
p1455
aF0.43448582823066778
aaa(lp1456
I146
a(lp1457
Vroot
p1458
aF0.10878176974495847
aa(lp1459
Vthigh_l
p1460
aF0.22365658764950649
aa(lp1461
Vcalf_l
p1462
aF0.65624459501910903
aa(lp1463
Vcalf_twist_01_l
p1464
aF0.0060494932635480041
aa(lp1465
Vcalf_r
p1466
aF0.0052675543228780219
aaa(lp1467
I147
a(lp1468
Vroot
p1469
aF0.15878400086398198
aa(lp1470
Vthigh_l
p1471
aF0.19946437780239851
aa(lp1472
Vcalf_l
p1473
aF0.6226925863143048
aa(lp1474
Vcalf_twist_01_l
p1475
aF0.010348919122576725
aa(lp1476
Vcalf_r
p1477
aF0.008710115896738025
aaa(lp1478
I148
a(lp1479
Vroot
p1480
aF0.18454256739421604
aa(lp1481
Vthigh_l
p1482
aF0.18999218636531343
aa(lp1483
Vcalf_l
p1484
aF0.60270985537898114
aa(lp1485
Vcalf_twist_01_l
p1486
aF0.012338572683337514
aa(lp1487
Vcalf_r
p1488
aF0.010416818178151767
aaa(lp1489
I149
a(lp1490
Vroot
p1491
aF0.16740501030897001
aa(lp1492
Vthigh_l
p1493
aF0.18459496736153289
aa(lp1494
Vcalf_l
p1495
aF0.62812196801017173
aa(lp1496
Vcalf_twist_01_l
p1497
aF0.010857772170832766
aa(lp1498
Vcalf_r
p1499
aF0.0090202821484926653
aaa(lp1500
I150
a(lp1501
Vroot
p1502
aF0.10914637861709159
aa(lp1503
Vthigh_l
p1504
aF0.19524022596802013
aa(lp1505
Vcalf_l
p1506
aF0.68397096106193478
aa(lp1507
Vcalf_twist_01_l
p1508
aF0.0063574641443796993
aa(lp1509
Vcalf_r
p1510
aF0.0052849702085738907
aaa(lp1511
I151
a(lp1512
Vroot
p1513
aF0.049557867944490838
aa(lp1514
Vthigh_l
p1515
aF0.24913928218244308
aa(lp1516
Vcalf_l
p1517
aF0.69663953799502398
aa(lp1518
Vcalf_twist_01_l
p1519
aF0.002479302598804892
aa(lp1520
Vcalf_r
p1521
aF0.0021840092792372963
aaa(lp1522
I152
a(lp1523
Vroot
p1524
aF0.014047575909603921
aa(lp1525
Vthigh_l
p1526
aF0.34911010985079854
aa(lp1527
Vcalf_l
p1528
aF0.63553899813389703
aaa(lp1529
I153
a(lp1530
Vthigh_l
p1531
aF0.49729481254620461
aa(lp1532
Vcalf_l
p1533
aF0.50255864319523813
aaa(lp1534
I154
a(lp1535
Vthigh_l
p1536
aF0.49979434039712523
aa(lp1537
Vcalf_l
p1538
aF0.49979434039712511
aaa(lp1539
I155
a(lp1540
Vroot
p1541
aF0.0034768005229101236
aa(lp1542
Vthigh_l
p1543
aF0.4962807513632787
aa(lp1544
Vcalf_l
p1545
aF0.498590694446782
aaa(lp1546
I156
a(lp1547
Vroot
p1548
aF0.012074861355296481
aa(lp1549
Vthigh_l
p1550
aF0.45694394088705237
aa(lp1551
Vcalf_l
p1552
aF0.52192375421782111
aa(lp1553
Vcalf_twist_01_l
p1554
aF0.0046341107430266761
aa(lp1555
Vfoot_l
p1556
aF0.0044233327968033432
aaa(lp1557
I157
a(lp1558
Vroot
p1559
aF0.024706202889068041
aa(lp1560
Vthigh_l
p1561
aF0.39025059775966187
aa(lp1562
Vcalf_l
p1563
aF0.55918200797821516
aa(lp1564
Vcalf_twist_01_l
p1565
aF0.013319312012254387
aa(lp1566
Vfoot_l
p1567
aF0.012541879360800673
aaa(lp1568
I158
a(lp1569
Vroot
p1570
aF0.030023160337042939
aa(lp1571
Vthigh_l
p1572
aF0.37285055317394944
aa(lp1573
Vcalf_l
p1574
aF0.56211757358880354
aa(lp1575
Vcalf_twist_01_l
p1576
aF0.018025738258098029
aa(lp1577
Vfoot_l
p1578
aF0.016982974642106075
aaa(lp1579
I159
a(lp1580
Vroot
p1581
aF0.023720987927848269
aa(lp1582
Vthigh_l
p1583
aF0.40739020078599841
aa(lp1584
Vcalf_l
p1585
aF0.54430976162289146
aa(lp1586
Vcalf_twist_01_l
p1587
aF0.012565160623004883
aa(lp1588
Vfoot_l
p1589
aF0.012013889040256976
aaa(lp1590
I160
a(lp1591
Vroot
p1592
aF0.011531376890678114
aa(lp1593
Vthigh_l
p1594
aF0.47110254172892863
aa(lp1595
Vcalf_l
p1596
aF0.50893526502983288
aa(lp1597
Vcalf_twist_01_l
p1598
aF0.0042924666760821972
aa(lp1599
Vfoot_l
p1600
aF0.0041383496744781577
aaa(lp1601
I161
a(lp1602
Vroot
p1603
aF0.0034187737855511813
aa(lp1604
Vthigh_l
p1605
aF0.49752607497954121
aa(lp1606
Vcalf_l
p1607
aF0.49752607497954121
aaa(lp1608
I162
a(lp1609
Vthigh_l
p1610
aF0.539283681729123
aa(lp1611
Vcalf_l
p1612
aF0.46016116602399337
aaa(lp1613
I163
a(lp1614
Vthigh_l
p1615
aF0.88729714248619318
aa(lp1616
Vcalf_l
p1617
aF0.1125687170004202
aaa(lp1618
I164
a(lp1619
Vroot
p1620
aF0.020823083754779561
aa(lp1621
Vthigh_l
p1622
aF0.45355223702503167
aa(lp1623
Vcalf_l
p1624
aF0.52399317115560617
aaa(lp1625
I165
a(lp1626
Vroot
p1627
aF0.05814550317710545
aa(lp1628
Vthigh_l
p1629
aF0.30785036646034231
aa(lp1630
Vcalf_l
p1631
aF0.62904384337884134
aa(lp1632
Vcalf_twist_01_l
p1633
aF0.0025200886607144972
aa(lp1634
Vcalf_r
p1635
aF0.0024401983229964406
aaa(lp1636
I166
a(lp1637
Vroot
p1638
aF0.046908493635544841
aa(lp1639
Vthigh_l
p1640
aF0.35679619595908069
aa(lp1641
Vcalf_l
p1642
aF0.57530761155150723
aa(lp1643
Vcalf_twist_01_l
p1644
aF0.01274059006078075
aa(lp1645
Vfoot_l
p1646
aF0.0082471087930863808
aaa(lp1647
I167
a(lp1648
Vroot
p1649
aF0.031753049374078267
aa(lp1650
Vthigh_l
p1651
aF0.37269383578609822
aa(lp1652
Vcalf_l
p1653
aF0.58306937985547846
aa(lp1654
Vcalf_twist_01_l
p1655
aF0.0074484451869629084
aa(lp1656
Vfoot_l
p1657
aF0.005035289797382228
aaa(lp1658
I168
a(lp1659
Vroot
p1660
aF0.012502210717807199
aa(lp1661
Vthigh_l
p1662
aF0.41907286587091142
aa(lp1663
Vcalf_l
p1664
aF0.56550022607801931
aa(lp1665
Vcalf_twist_01_l
p1666
aF0.0017115561180453659
aa(lp1667
Vfoot_l
p1668
aF0.0012131412152166163
aaa(lp1669
I169
a(lp1670
Vroot
p1671
aF0.0031752794041831813
aa(lp1672
Vthigh_l
p1673
aF0.48382726904822443
aa(lp1674
Vcalf_l
p1675
aF0.51252273825590922
aaa(lp1676
I170
a(lp1677
Vthigh_l
p1678
aF0.90162427935412559
aa(lp1679
Vcalf_l
p1680
aF0.098295097619314376
aaa(lp1681
I171
a(lp1682
Vthigh_l
p1683
aF0.95432718229576818
aa(lp1684
Vcalf_l
p1685
aF0.045639108737910161
aaa(lp1686
I172
a(lp1687
Vthigh_l
p1688
aF0.56531763196196094
aa(lp1689
Vcalf_l
p1690
aF0.43403632963940864
aaa(lp1691
I173
a(lp1692
Vroot
p1693
aF0.0020066498729992893
aa(lp1694
Vthigh_l
p1695
aF0.49837724863938149
aa(lp1696
Vcalf_l
p1697
aF0.49837724863938149
aaa(lp1698
I174
a(lp1699
Vroot
p1700
aF0.0045252715580000819
aa(lp1701
Vthigh_l
p1702
aF0.41517531018618037
aa(lp1703
Vcalf_l
p1704
aF0.57528495812102265
aa(lp1705
Vcalf_twist_01_l
p1706
aF0.0021023085016121956
aa(lp1707
Vfoot_l
p1708
aF0.002912151633184739
aaa(lp1709
I175
a(lp1710
Vroot
p1711
aF0.0092594753305751051
aa(lp1712
Vthigh_l
p1713
aF0.29720156878033871
aa(lp1714
Vcalf_l
p1715
aF0.67776562509795946
aa(lp1716
Vcalf_twist_01_l
p1717
aF0.0063991271457908847
aa(lp1718
Vfoot_l
p1719
aF0.0093742036453358588
aaa(lp1720
I176
a(lp1721
Vroot
p1722
aF0.010934025796893116
aa(lp1723
Vthigh_l
p1724
aF0.24779104665688295
aa(lp1725
Vcalf_l
p1726
aF0.71861370085599441
aa(lp1727
Vcalf_twist_01_l
p1728
aF0.0088352949855282029
aa(lp1729
Vfoot_l
p1730
aF0.013825931704701316
aaa(lp1731
I177
a(lp1732
Vroot
p1733
aF0.0090960187933997461
aa(lp1734
Vthigh_l
p1735
aF0.27285113457914023
aa(lp1736
Vcalf_l
p1737
aF0.70216571463491551
aa(lp1738
Vcalf_twist_01_l
p1739
aF0.0064423980164124393
aa(lp1740
Vfoot_l
p1741
aF0.0094447339761322049
aaa(lp1742
I178
a(lp1743
Vroot
p1744
aF0.0044126528222697926
aa(lp1745
Vthigh_l
p1746
aF0.38273152045836073
aa(lp1747
Vcalf_l
p1748
aF0.60775136135071184
aa(lp1749
Vcalf_twist_01_l
p1750
aF0.002131476672939607
aa(lp1751
Vfoot_l
p1752
aF0.0029729886957181348
aaa(lp1753
I179
a(lp1754
Vroot
p1755
aF0.0018859184811115153
aa(lp1756
Vthigh_l
p1757
aF0.49670612236888845
aa(lp1758
Vcalf_l
p1759
aF0.50015578671816541
aaa(lp1760
I180
a(lp1761
Vthigh_l
p1762
aF0.50047359670864611
aa(lp1763
Vcalf_l
p1764
aF0.49905511258612284
aaa(lp1765
I181
a(lp1766
Vthigh_l
p1767
aF0.53407372651247331
aa(lp1768
Vcalf_l
p1769
aF0.46587356013754527
aaa(lp1770
I182
a(lp1771
Vthigh_l
p1772
aF0.49166399757415175
aa(lp1773
Vcalf_l
p1774
aF0.50825485479884258
aaa(lp1775
I183
a(lp1776
Vroot
p1777
aF0.0023650936397146983
aa(lp1778
Vthigh_l
p1779
aF0.37558839679236206
aa(lp1780
Vcalf_l
p1781
aF0.62162739641873288
aaa(lp1782
I184
a(lp1783
Vroot
p1784
aF0.012171889553804204
aa(lp1785
Vthigh_l
p1786
aF0.37156297030772273
aa(lp1787
Vcalf_l
p1788
aF0.61307744888259641
aa(lp1789
Vcalf_twist_01_l
p1790
aF0.0018688073160047954
aa(lp1791
Vfoot_l
p1792
aF0.0013188839398719195
aaa(lp1793
I185
a(lp1794
Vroot
p1795
aF0.033608408491274021
aa(lp1796
Vthigh_l
p1797
aF0.34378531276832941
aa(lp1798
Vcalf_l
p1799
aF0.60886427422745515
aa(lp1800
Vcalf_twist_01_l
p1801
aF0.0082611155627628618
aa(lp1802
Vfoot_l
p1803
aF0.0054808889501786178
aaa(lp1804
I186
a(lp1805
Vroot
p1806
aF0.063038867727915879
aa(lp1807
Vthigh_l
p1808
aF0.32092048705616522
aa(lp1809
Vcalf_l
p1810
aF0.58675068445354017
aa(lp1811
Vcalf_twist_01_l
p1812
aF0.018254927948161068
aa(lp1813
Vfoot_l
p1814
aF0.011035032814217634
aaa(lp1815
I187
a(lp1816
Vroot
p1817
aF0.059427097186087935
aa(lp1818
Vthigh_l
p1819
aF0.33604578711209676
aa(lp1820
Vcalf_l
p1821
aF0.57689735656864138
aa(lp1822
Vcalf_twist_01_l
p1823
aF0.017077325567096662
aa(lp1824
Vfoot_l
p1825
aF0.010552433566077315
aaa.