(lp1
(lp2
I0
a(lp3
Vclavicle_l
p4
aF0.13810443984105059
aa(lp5
Vupperarm_l
p6
aF0.86163183009293409
aaa(lp7
I1
a(lp8
Vclavicle_l
p9
aF0.21339966263990587
aa(lp10
Vupperarm_l
p11
aF0.78597006159482397
aaa(lp12
I2
a(lp13
Vclavicle_l
p14
aF0.98846131229230139
aa(lp15
Vupperarm_l
p16
aF0.011226213650850027
aaa(lp17
I3
a(lp18
Vclavicle_l
p19
aF0.99687792030844158
aa(lp20
Vupperarm_l
p21
aF0.0030287407937382078
aaa(lp22
I4
a(lp23
Vspine_03
p24
aF0.0020343523222919003
aa(lp25
Vclavicle_l
p26
aF0.89264424436542433
aa(lp27
Vupperarm_l
p28
aF0.10449002779829912
aaa(lp29
I5
a(lp30
Vspine_03
p31
aF0.0015847675735502418
aa(lp32
Vclavicle_l
p33
aF0.91987940884095576
aa(lp34
Vupperarm_l
p35
aF0.077930216144291103
aaa(lp36
I6
a(lp37
Vclavicle_l
p38
aF0.26235607349000245
aa(lp39
Vupperarm_l
p40
aF0.73718462961055076
aaa(lp41
I7
a(lp42
Vclavicle_l
p43
aF0.20520679474912509
aa(lp44
Vupperarm_l
p45
aF0.79423558111031012
aaa(lp46
I8
a(lp47
Vupperarm_l
p48
aF0.9965004154540329
aa(lp49
Vlowerarm_l
p50
aF0.001722105233031501
aaa(lp51
I9
a(lp52
Vupperarm_l
p53
aF0.99972998302376048
aaa(lp54
I10
a(lp55
Vupperarm_l
p56
aF0.99968488725387383
aaa(lp57
I11
a(lp58
Vupperarm_l
p59
aF0.99626223955371029
aa(lp60
Vlowerarm_l
p61
aF0.0017926348007034081
aaa(lp62
I12
a(lp63
Vupperarm_l
p64
aF0.34382063756000658
aa(lp65
Vlowerarm_l
p66
aF0.65615756938862069
aaa(lp67
I13
a(lp68
Vupperarm_l
p69
aF0.50062046264860371
aa(lp70
Vlowerarm_l
p71
aF0.49931110149275204
aaa(lp72
I14
a(lp73
Vupperarm_l
p74
aF0.50058651731543846
aa(lp75
Vlowerarm_l
p76
aF0.49934066900305718
aaa(lp77
I15
a(lp78
Vupperarm_l
p79
aF0.19336561074766037
aa(lp80
Vlowerarm_l
p81
aF0.80662098245567337
aaa(lp82
I16
a(lp83
Vupperarm_l
p84
aF0.81680130734598311
aa(lp85
Vlowerarm_l
p86
aF0.18303032274294623
aaa(lp87
I17
a(lp88
Vupperarm_l
p89
aF0.82169546650522018
aa(lp90
Vlowerarm_l
p91
aF0.17814729898240655
aaa(lp92
I18
a(lp93
Vupperarm_l
p94
aF0.76584440778657858
aa(lp95
Vlowerarm_l
p96
aF0.23396679242515919
aaa(lp97
I19
a(lp98
Vupperarm_l
p99
aF0.71779675013184618
aa(lp100
Vlowerarm_l
p101
aF0.28201277493265869
aaa(lp102
I20
a(lp103
Vclavicle_l
p104
aF0.0044748506245825288
aa(lp105
Vupperarm_l
p106
aF0.99417793373379415
aa(lp107
Vupperarm_twist_01_l
p108
aF0.001028460924927678
aaa(lp109
I21
a(lp110
Vupperarm_l
p111
aF0.99902678673383261
aaa(lp112
I22
a(lp113
Vupperarm_l
p114
aF0.99996067915327724
aaa(lp115
I23
a(lp116
Vclavicle_l
p117
aF0.0047382518779943835
aa(lp118
Vupperarm_l
p119
aF0.99366158997406784
aa(lp120
Vupperarm_twist_01_l
p121
aF0.0012744043268473222
aaa(lp122
I24
a(lp123
Vupperarm_l
p124
aF0.99868522064620391
aaa(lp125
I25
a(lp126
Vupperarm_l
p127
aF0.99588709912330597
aa(lp128
Vlowerarm_l
p129
aF0.0019183269201902887
aa(lp130
Vupperarm_twist_01_l
p131
aF0.0011263355647751151
aaa(lp132
I26
a(lp133
Vupperarm_l
p134
aF0.99522160300404316
aa(lp135
Vlowerarm_l
p136
aF0.0046852573386964623
aaa(lp137
I27
a(lp138
Vupperarm_l
p139
aF0.83052623912318435
aa(lp140
Vlowerarm_l
p141
aF0.16933246944130229
aaa(lp142
I28
a(lp143
Vupperarm_l
p144
aF0.98142177241424911
aa(lp145
Vlowerarm_l
p146
aF0.018054814799023048
aaa(lp147
I29
a(lp148
Vupperarm_l
p149
aF0.99476564213559548
aa(lp150
Vlowerarm_l
p151
aF0.0051295393580562225
aaa(lp152
I30
a(lp153
Vupperarm_l
p154
aF0.84254635688479218
aa(lp155
Vlowerarm_l
p156
aF0.15732944091429946
aaa(lp157
I31
a(lp158
Vupperarm_l
p159
aF0.98010687517067852
aa(lp160
Vlowerarm_l
p161
aF0.01932974361202424
aaa(lp162
I32
a(lp163
Vupperarm_l
p164
aF0.82362438130854798
aa(lp165
Vlowerarm_l
p166
aF0.17621957723757373
aaa(lp167
I33
a(lp168
Vupperarm_l
p169
aF0.67866692671392737
aa(lp170
Vlowerarm_l
p171
aF0.32118853209580195
aaa(lp172
I34
a(lp173
Vupperarm_l
p174
aF0.52202280714601745
aa(lp175
Vlowerarm_l
p176
aF0.47778669137016627
aaa(lp177
I35
a(lp178
Vupperarm_l
p179
aF0.52264216746615932
aa(lp180
Vlowerarm_l
p181
aF0.4771766281935329
aaa(lp182
I36
a(lp183
Vupperarm_l
p184
aF0.36064206828254436
aa(lp185
Vlowerarm_l
p186
aF0.63927529411306527
aaa(lp187
I37
a(lp188
Vupperarm_l
p189
aF0.21288129636666159
aa(lp190
Vlowerarm_l
p191
aF0.78706617980761495
aaa(lp192
I38
a(lp193
Vclavicle_l
p194
aF0.22602429067750396
aa(lp195
Vupperarm_l
p196
aF0.77348948244061355
aaa(lp197
I39
a(lp198
Vclavicle_l
p199
aF0.94885063347377885
aa(lp200
Vupperarm_l
p201
aF0.050590266055393275
aaa(lp202
I40
a(lp203
Vclavicle_l
p204
aF0.99977102278023522
aaa(lp205
I41
a(lp206
Vclavicle_l
p207
aF0.91657188389591926
aa(lp208
Vupperarm_l
p209
aF0.082690658680557014
aaa(lp210
I42
a(lp211
Vclavicle_l
p212
aF0.9808573062811351
aa(lp213
Vupperarm_l
p214
aF0.018306294940658243
aaa(lp215
I43
a(lp216
Vspine_03
p217
aF0.0027783204096282835
aa(lp218
Vclavicle_l
p219
aF0.90619214586779617
aa(lp220
Vupperarm_l
p221
aF0.089906175808812702
aaa(lp222
I44
a(lp223
Vspine_03
p224
aF0.0013465180667259118
aa(lp225
Vclavicle_l
p226
aF0.9577164021314365
aa(lp227
Vupperarm_l
p228
aF0.040527666495518026
aaa(lp229
I45
a(lp230
Vspine_03
p231
aF0.0015527067898746178
aa(lp232
Vclavicle_l
p233
aF0.76457933054024296
aa(lp234
Vupperarm_l
p235
aF0.23310767953857575
aaa(lp236
I46
a(lp237
Vclavicle_l
p238
aF0.21287688699540946
aa(lp239
Vupperarm_l
p240
aF0.7867129663943796
aaa(lp241
I47
a(lp242
Vspine_03
p243
aF0.0015981980392735051
aa(lp244
Vclavicle_l
p245
aF0.72048747076272524
aa(lp246
Vupperarm_l
p247
aF0.27705804157427233
aaa(lp248
I48
a(lp249
Vupperarm_l
p250
aF0.49626182052237922
aa(lp251
Vlowerarm_l
p252
aF0.50369611565313011
aaa(lp253
I49
a(lp254
Vupperarm_l
p255
aF0.49775150027363463
aa(lp256
Vlowerarm_l
p257
aF0.50217489664704296
aaa(lp258
I50
a(lp259
Vupperarm_l
p260
aF0.49517236133623566
aa(lp261
Vlowerarm_l
p262
aF0.50478094851303446
aaa(lp263
I51
a(lp264
Vlowerarm_l
p265
aF0.99982448574188054
aaa(lp266
I52
a(lp267
Vclavicle_l
p268
aF0.18254416691319728
aa(lp269
Vupperarm_l
p270
aF0.81696047765747148
aaa(lp271
I53
a(lp272
Vclavicle_l
p273
aF0.022041624973623497
aa(lp274
Vupperarm_l
p275
aF0.9779268636956614
aaa(lp276
I54
a(lp277
Vupperarm_l
p278
aF0.99916691849717865
aaa(lp279
I55
a(lp280
Vupperarm_l
p281
aF0.99882771854497188
aaa(lp282
I56
a(lp283
Vclavicle_l
p284
aF0.97265853381033773
aa(lp285
Vupperarm_l
p286
aF0.027088825536377273
aaa(lp287
I57
a(lp288
Vclavicle_l
p289
aF0.99619457318803417
aa(lp290
Vupperarm_l
p291
aF0.0035670519378049738
aaa(lp292
I58
a(lp293
Vspine_03
p294
aF0.0014994768115996423
aa(lp295
Vclavicle_l
p296
aF0.72467492147709667
aa(lp297
Vupperarm_l
p298
aF0.27297566507928334
aaa(lp299
I59
a(lp300
Vupperarm_l
p301
aF0.11545671807723185
aa(lp302
Vlowerarm_l
p303
aF0.88454322926266216
aaa(lp304
I60
a(lp305
Vclavicle_l
p306
aF0.88235645518047301
aa(lp307
Vupperarm_l
p308
aF0.11650687544507524
aaa(lp309
I61
a(lp310
Vclavicle_l
p311
aF0.82277068038267953
aa(lp312
Vupperarm_l
p313
aF0.17590878014566233
aaa(lp314
I62
a(lp315
Vclavicle_l
p316
aF0.0017410816055695205
aa(lp317
Vupperarm_l
p318
aF0.99785186602724374
aaa(lp319
I63
a(lp320
Vupperarm_l
p321
aF0.99969572787326644
aaa(lp322
I64
a(lp323
Vclavicle_l
p324
aF0.0019663396422255341
aa(lp325
Vupperarm_l
p326
aF0.99751575184909358
aaa(lp327
I65
a(lp328
Vclavicle_l
p329
aF0.0048959796182322136
aa(lp330
Vupperarm_l
p331
aF0.99338284757975159
aa(lp332
Vupperarm_twist_01_l
p333
aF0.0013877082932039903
aaa(lp334
I66
a(lp335
Vupperarm_l
p336
aF0.99108535038941792
aa(lp337
Vlowerarm_l
p338
aF0.008708727608027449
aaa(lp339
I67
a(lp340
Vupperarm_l
p341
aF0.99787464017684868
aa(lp342
Vlowerarm_l
p343
aF0.0020868629048310726
aaa(lp344
I68
a(lp345
Vupperarm_l
p346
aF0.99031840673417704
aa(lp347
Vlowerarm_l
p348
aF0.0094486623462596772
aaa(lp349
I69
a(lp350
Vupperarm_l
p351
aF0.97981375635034107
aa(lp352
Vlowerarm_l
p353
aF0.019612542880122569
aaa(lp354
I70
a(lp355
Vupperarm_l
p356
aF0.52614489825747612
aa(lp357
Vlowerarm_l
p358
aF0.47369262803876361
aaa(lp359
I71
a(lp360
Vupperarm_l
p361
aF0.52123679689225133
aa(lp362
Vlowerarm_l
p363
aF0.47864775593288134
aaa(lp364
I72
a(lp365
Vupperarm_l
p366
aF0.017456835076940614
aa(lp367
Vlowerarm_l
p368
aF0.98254023298755588
aaa(lp369
I73
a(lp370
Vupperarm_l
p371
aF0.52012715625780792
aa(lp372
Vlowerarm_l
p373
aF0.47974724236882987
aaa.