(lp1
(lp2
I0
a(lp3
Vhead
p4
aF0.49999893290164682
aa(lp5
VAntennaeR
p6
aF0.49999893290164682
aaa(lp7
I1
a(lp8
Vhead
p9
aF0.66473425163279132
aa(lp10
VAntennaeR
p11
aF0.33506871496715057
aaa(lp12
I2
a(lp13
Vspine_03
p14
aF0.0055330666204828939
aa(lp15
Vneck_01
p16
aF0.021165503324606785
aa(lp17
Vhead
p18
aF0.47069176997470341
aa(lp19
VAntennaeL
p20
aF0.031917890105503624
aa(lp21
VAntennaeR
p22
aF0.47069176997470341
aaa(lp23
I3
a(lp24
Vspine_03
p25
aF0.0052996792970872826
aa(lp26
Vneck_01
p27
aF0.023808784377308902
aa(lp28
Vhead
p29
aF0.46201083084003824
aa(lp30
VAntennaeL
p31
aF0.046869874645527339
aa(lp32
VAntennaeR
p33
aF0.46201083084003824
aaa(lp34
I4
a(lp35
Vspine_03
p36
aF0.0066773954231556703
aa(lp37
Vneck_01
p38
aF0.024598401630627247
aa(lp39
Vhead
p40
aF0.46833139574619964
aa(lp41
VAntennaeL
p42
aF0.03206141145381794
aa(lp43
VAntennaeR
p44
aF0.46833139574619953
aaa(lp45
I5
a(lp46
Vspine_03
p47
aF0.006471632964837503
aa(lp48
Vneck_01
p49
aF0.028264324936183239
aa(lp50
Vhead
p51
aF0.45919172380462664
aa(lp52
VAntennaeL
p53
aF0.046880594489725966
aa(lp54
VAntennaeR
p55
aF0.45919172380462664
aaa(lp56
I6
a(lp57
Vhead
p58
aF0.53803549021166019
aa(lp59
VAntennaeR
p60
aF0.46192868061732389
aaa(lp61
I7
a(lp62
Vhead
p63
aF0.93704412624243072
aa(lp64
VAntennaeR
p65
aF0.062883440133164409
aaa(lp66
I8
a(lp67
Vspine_03
p68
aF0.10931437902461125
aa(lp69
Vneck_01
p70
aF0.13449096588585585
aa(lp71
Vhead
p72
aF0.29600697687561717
aa(lp73
VAntennaeL
p74
aF0.16418070133829851
aa(lp75
VAntennaeR
p76
aF0.29600697687561717
aaa(lp77
I9
a(lp78
Vspine_03
p79
aF0.10829785202784106
aa(lp80
Vneck_01
p81
aF0.13473507084961531
aa(lp82
Vhead
p83
aF0.29405940829881333
aa(lp84
VAntennaeL
p85
aF0.16884826052491694
aa(lp86
VAntennaeR
p87
aF0.29405940829881333
aaa(lp88
I10
a(lp89
Vspine_03
p90
aF0.11174147258539885
aa(lp91
Vneck_01
p92
aF0.13621598479828267
aa(lp93
Vhead
p94
aF0.29220536197496744
aa(lp95
VAntennaeL
p96
aF0.16763181866638355
aa(lp97
VAntennaeR
p98
aF0.29220536197496744
aaa(lp99
I11
a(lp100
Vspine_03
p101
aF0.11267774315222211
aa(lp102
Vneck_01
p103
aF0.1359075499426714
aa(lp104
Vhead
p105
aF0.29418985461737324
aa(lp106
VAntennaeL
p107
aF0.16303499767036014
aa(lp108
VAntennaeR
p109
aF0.29418985461737324
aaa(lp110
I12
a(lp111
Vspine_03
p112
aF0.095060393172107668
aa(lp113
Vneck_01
p114
aF0.12670761789348306
aa(lp115
Vhead
p116
aF0.30678953434563988
aa(lp117
VAntennaeL
p118
aF0.1646529202431295
aa(lp119
VAntennaeR
p120
aF0.30678953434563988
aaa(lp121
I13
a(lp122
Vspine_03
p123
aF0.096685808077557556
aa(lp124
Vneck_01
p125
aF0.1262884027170729
aa(lp126
Vhead
p127
aF0.30999497093733525
aa(lp128
VAntennaeL
p129
aF0.15703584733069909
aa(lp130
VAntennaeR
p131
aF0.30999497093733525
aaa(lp132
I14
a(lp133
Vspine_03
p134
aF0.10154643852998106
aa(lp135
Vneck_01
p136
aF0.12861176779470168
aa(lp137
Vhead
p138
aF0.30721037210065721
aa(lp139
VAntennaeL
p140
aF0.15542104947400279
aa(lp141
VAntennaeR
p142
aF0.30721037210065721
aaa(lp143
I15
a(lp144
Vspine_03
p145
aF0.10007705310658234
aa(lp146
Vneck_01
p147
aF0.12919324493181866
aa(lp148
Vhead
p149
aF0.30392620802028747
aa(lp150
VAntennaeL
p151
aF0.16287728592102399
aa(lp152
VAntennaeR
p153
aF0.30392620802028747
aaa(lp154
I16
a(lp155
Vhead
p156
aF0.49995591740954892
aa(lp157
VAntennaeR
p158
aF0.49995591740954892
aaa(lp159
I17
a(lp160
Vhead
p161
aF0.49987389977554081
aa(lp162
VAntennaeR
p163
aF0.49987389977554103
aaa(lp164
I18
a(lp165
Vhead
p166
aF0.75291958824444305
aa(lp167
VAntennaeR
p168
aF0.24611803997490903
aaa(lp169
I19
a(lp170
Vhead
p171
aF0.5420087158586846
aa(lp172
VAntennaeR
p173
aF0.4569306336678039
aaa(lp174
I20
a(lp175
Vspine_03
p176
aF0.095034971615994668
aa(lp177
Vneck_01
p178
aF0.12603268515080704
aa(lp179
Vhead
p180
aF0.3090136675479786
aa(lp181
VAntennaeL
p182
aF0.16090500813724121
aa(lp183
VAntennaeR
p184
aF0.3090136675479786
aaa(lp185
I21
a(lp186
Vspine_03
p187
aF0.051921216213459007
aa(lp188
Vneck_01
p189
aF0.090785810734338487
aa(lp190
Vhead
p191
aF0.36757954544573029
aa(lp192
VAntennaeL
p193
aF0.12213388216074197
aa(lp194
VAntennaeR
p195
aF0.36757954544573029
aaa(lp196
I22
a(lp197
Vspine_03
p198
aF0.0059221985844568458
aa(lp199
Vneck_01
p200
aF0.02699132842858299
aa(lp201
Vhead
p202
aF0.4578179197948023
aa(lp203
VAntennaeL
p204
aF0.051450633397355547
aa(lp205
VAntennaeR
p206
aF0.4578179197948023
aaa(lp207
I23
a(lp208
Vspine_03
p209
aF0.054841920497879768
aa(lp210
Vneck_01
p211
aF0.096299516814778163
aa(lp212
Vhead
p213
aF0.35762521302177946
aa(lp214
VAntennaeL
p215
aF0.13360813664378277
aa(lp216
VAntennaeR
p217
aF0.35762521302177969
aaa(lp218
I24
a(lp219
Vspine_03
p220
aF0.09729371183142102
aa(lp221
Vneck_01
p222
aF0.12807544417488398
aa(lp223
Vhead
p224
aF0.30471798710344244
aa(lp225
VAntennaeL
p226
aF0.16519486978681008
aa(lp227
VAntennaeR
p228
aF0.30471798710344244
aaa(lp229
I25
a(lp230
Vspine_03
p231
aF0.006604657413136217
aa(lp232
Vneck_01
p233
aF0.026325349405671442
aa(lp234
Vhead
p235
aF0.46490711861199768
aa(lp236
VAntennaeL
p237
aF0.037255755957197025
aa(lp238
VAntennaeR
p239
aF0.46490711861199768
aaa(lp240
I26
a(lp241
Vspine_03
p242
aF0.056729926283401143
aa(lp243
Vneck_01
p244
aF0.094820962019370347
aa(lp245
Vhead
p246
aF0.36388038555458202
aa(lp247
VAntennaeL
p248
aF0.12068834058806445
aa(lp249
VAntennaeR
p250
aF0.36388038555458202
aaa(lp251
I27
a(lp252
Vspine_03
p253
aF0.10162092939022546
aa(lp254
Vneck_01
p255
aF0.12923711201717694
aa(lp256
Vhead
p257
aF0.30524613971276915
aa(lp258
VAntennaeL
p259
aF0.15864967916705944
aa(lp260
VAntennaeR
p261
aF0.30524613971276904
aaa(lp262
I28
a(lp263
Vspine_03
p264
aF0.0062181726640927644
aa(lp265
Vneck_01
p266
aF0.022740157960968368
aa(lp267
Vhead
p268
aF0.47009966447523022
aa(lp269
VAntennaeL
p270
aF0.030842340424478681
aa(lp271
VAntennaeR
p272
aF0.47009966447522999
aaa(lp273
I29
a(lp274
Vspine_03
p275
aF0.099360249815526588
aa(lp276
Vneck_01
p277
aF0.12740750660729161
aa(lp278
Vhead
p279
aF0.30904954015164876
aa(lp280
VAntennaeL
p281
aF0.15513316327388424
aa(lp282
VAntennaeR
p283
aF0.30904954015164876
aaa(lp284
I30
a(lp285
Vspine_03
p286
aF0.10711962065835451
aa(lp287
Vneck_01
p288
aF0.13428218056151628
aa(lp289
Vhead
p290
aF0.29440840240886373
aa(lp291
VAntennaeL
p292
aF0.16978139396240169
aa(lp293
VAntennaeR
p294
aF0.29440840240886373
aaa(lp295
I31
a(lp296
Vspine_03
p297
aF0.10851740743613844
aa(lp298
Vneck_01
p299
aF0.13396335914926591
aa(lp300
Vhead
p301
aF0.2970508646283419
aa(lp302
VAntennaeL
p303
aF0.1634175041579119
aa(lp304
VAntennaeR
p305
aF0.2970508646283419
aaa(lp306
I32
a(lp307
Vspine_03
p308
aF0.11305311875789611
aa(lp309
Vneck_01
p310
aF0.13587486801707624
aa(lp311
Vhead
p312
aF0.29459474316773543
aa(lp313
VAntennaeL
p314
aF0.16188252688955673
aa(lp315
VAntennaeR
p316
aF0.29459474316773543
aaa(lp317
I33
a(lp318
Vspine_03
p319
aF0.11180229802586684
aa(lp320
Vneck_01
p321
aF0.13631242594207157
aa(lp322
Vhead
p323
aF0.2918843783910921
aa(lp324
VAntennaeL
p325
aF0.16811651924987744
aa(lp326
VAntennaeR
p327
aF0.2918843783910921
aaa(lp328
I34
a(lp329
Vhead
p330
aF0.49896385099007784
aa(lp331
VAntennaeL
p332
aF0.00113851563835047
aa(lp333
VAntennaeR
p334
aF0.49896385099007784
aaa(lp335
I35
a(lp336
Vneck_01
p337
aF0.0012665559786264719
aa(lp338
Vhead
p339
aF0.49859116291148353
aa(lp340
VAntennaeL
p341
aF0.0013769810629166968
aa(lp342
VAntennaeR
p343
aF0.49859116291148353
aaa(lp344
I36
a(lp345
Vneck_01
p346
aF0.0030033930231287485
aa(lp347
Vhead
p348
aF0.52613403063933561
aa(lp349
VAntennaeL
p350
aF0.0046825224328532243
aa(lp351
VAntennaeR
p352
aF0.4658801636656878
aaa(lp353
I37
a(lp354
Vneck_01
p355
aF0.0020623355849945248
aa(lp356
Vhead
p357
aF0.49666743863222446
aa(lp358
VAntennaeL
p359
aF0.0043854800153369155
aa(lp360
VAntennaeR
p361
aF0.49666743863222446
aaa(lp362
I38
a(lp363
Vhead
p364
aF0.51167737204351427
aa(lp365
VAntennaeR
p366
aF0.48831736383694213
aaa(lp367
I39
a(lp368
Vhead
p369
aF0.61799215608311175
aa(lp370
VAntennaeR
p371
aF0.38142495582261809
aaa(lp372
I40
a(lp373
Vhead
p374
aF0.49995449276653858
aa(lp375
VAntennaeR
p376
aF0.49995449276653847
aaa(lp377
I41
a(lp378
Vhead
p379
aF0.49999022477030369
aa(lp380
VAntennaeR
p381
aF0.49999022477030391
aaa(lp382
I42
a(lp383
Vspine_03
p384
aF0.1083590918178263
aa(lp385
Vneck_01
p386
aF0.13442848538901675
aa(lp387
Vhead
p388
aF0.29525396655279473
aa(lp389
VAntennaeL
p390
aF0.16670448968756754
aa(lp391
VAntennaeR
p392
aF0.29525396655279473
aaa(lp393
I43
a(lp394
Vspine_03
p395
aF0.10999415240226694
aa(lp396
Vneck_01
p397
aF0.13563365714773398
aa(lp398
Vhead
p399
aF0.2925946926603204
aa(lp400
VAntennaeL
p401
aF0.16918280512935824
aa(lp402
VAntennaeR
p403
aF0.2925946926603204
aaa(lp404
I44
a(lp405
Vspine_03
p406
aF0.11294915376901446
aa(lp407
Vneck_01
p408
aF0.13637862219380231
aa(lp409
Vhead
p410
aF0.29277972091112009
aa(lp411
VAntennaeL
p412
aF0.16511278221494294
aa(lp413
VAntennaeR
p414
aF0.29277972091112009
aaa(lp415
I45
a(lp416
Vspine_03
p417
aF0.11131023725307441
aa(lp418
Vneck_01
p419
aF0.13526173218323914
aa(lp420
Vhead
p421
aF0.29524339752300732
aa(lp422
VAntennaeL
p423
aF0.16294123551767192
aa(lp424
VAntennaeR
p425
aF0.29524339752300721
aaa(lp426
I46
a(lp427
Vhead
p428
aF0.64371899455039161
aa(lp429
VAntennaeR
p430
aF0.35600476547230236
aaa(lp431
I47
a(lp432
Vhead
p433
aF0.92209869509770115
aa(lp434
VAntennaeR
p435
aF0.077677763502063887
aaa(lp436
I48
a(lp437
Vhead
p438
aF0.94096261823736216
aa(lp439
VAntennaeR
p440
aF0.059026236872464534
aaa(lp441
I49
a(lp442
Vhead
p443
aF0.50550799914839395
aa(lp444
VAntennaeR
p445
aF0.49437641191258264
aaa(lp446
I50
a(lp447
Vhead
p448
aF0.82467978581246848
aa(lp449
VAntennaeR
p450
aF0.17502999244221684
aaa(lp451
I51
a(lp452
Vhead
p453
aF0.49998888342067932
aa(lp454
VAntennaeR
p455
aF0.49998888342067932
aaa(lp456
I52
a(lp457
Vhead
p458
aF0.66028966279047485
aa(lp459
VAntennaeL
p460
aF0.0011631480454764671
aa(lp461
VAntennaeR
p462
aF0.33780471788321192
aaa(lp463
I53
a(lp464
Vhead
p465
aF0.49989618617621157
aa(lp466
VAntennaeR
p467
aF0.49989618617621157
aaa(lp468
I54
a(lp469
Vspine_03
p470
aF0.005094197560324875
aa(lp471
Vneck_01
p472
aF0.021227730949716032
aa(lp473
Vhead
p474
aF0.46829056419456117
aa(lp475
VAntennaeL
p476
aF0.03709694310083686
aa(lp477
VAntennaeR
p478
aF0.46829056419456117
aaa(lp479
I55
a(lp480
Vspine_03
p481
aF0.049929728740779861
aa(lp482
Vneck_01
p483
aF0.091835893137074548
aa(lp484
Vhead
p485
aF0.36144427297309506
aa(lp486
VAntennaeL
p487
aF0.13534583217595553
aa(lp488
VAntennaeR
p489
aF0.36144427297309506
aaa(lp490
I56
a(lp491
Vhead
p492
aF0.49999305402270844
aa(lp493
VAntennaeR
p494
aF0.49999305402270844
aaa(lp495
I57
a(lp496
Vspine_03
p497
aF0.11079541401091211
aa(lp498
Vneck_01
p499
aF0.13550558779093355
aa(lp500
Vhead
p501
aF0.29385309455691988
aa(lp502
VAntennaeL
p503
aF0.16599280908431471
aa(lp504
VAntennaeR
p505
aF0.29385309455691977
aaa(lp506
I58
a(lp507
Vhead
p508
aF0.88977605017153649
aa(lp509
VAntennaeR
p510
aF0.11018222042831273
aaa(lp511
I59
a(lp512
Vhead
p513
aF0.95430479028576087
aa(lp514
VAntennaeR
p515
aF0.045694472613461816
aaa(lp516
I60
a(lp517
Vhead
p518
aF0.78538442124699137
aa(lp519
VAntennaeR
p520
aF0.21368482565063385
aaa(lp521
I61
a(lp522
Vhead
p523
aF0.4999530927130072
aa(lp524
VAntennaeR
p525
aF0.4999530927130072
aaa(lp526
I62
a(lp527
Vspine_03
p528
aF0.050057388975642728
aa(lp529
Vneck_01
p530
aF0.090421748982302555
aa(lp531
Vhead
p532
aF0.36560543847907012
aa(lp533
VAntennaeL
p534
aF0.12830998508391445
aa(lp535
VAntennaeR
p536
aF0.36560543847907012
aaa(lp537
I63
a(lp538
Vspine_03
p539
aF0.052053498253650146
aa(lp540
Vneck_01
p541
aF0.094386130794264833
aa(lp542
Vhead
p543
aF0.35817756840198411
aa(lp544
VAntennaeL
p545
aF0.13720523414811683
aa(lp546
VAntennaeR
p547
aF0.35817756840198411
aaa(lp548
I64
a(lp549
Vspine_03
p550
aF0.056535740835619304
aa(lp551
Vneck_01
p552
aF0.096075737146522983
aa(lp553
Vhead
p554
aF0.36058984463689941
aa(lp555
VAntennaeL
p556
aF0.12620883274405861
aa(lp557
VAntennaeR
p558
aF0.36058984463689964
aaa(lp559
I65
a(lp560
Vspine_03
p561
aF0.054646734705215805
aa(lp562
Vneck_01
p563
aF0.092701258373204601
aa(lp564
Vhead
p565
aF0.36647144338847165
aa(lp566
VAntennaeL
p567
aF0.11970912014463637
aa(lp568
VAntennaeR
p569
aF0.36647144338847165
aaa(lp570
I66
a(lp571
Vspine_03
p572
aF0.10704014275483201
aa(lp573
Vneck_01
p574
aF0.13374630103964877
aa(lp575
Vhead
p576
aF0.29625308470781947
aa(lp577
VAntennaeL
p578
aF0.16670738678988037
aa(lp579
VAntennaeR
p580
aF0.29625308470781947
aaa(lp581
I67
a(lp582
Vspine_03
p583
aF0.11099412451586321
aa(lp584
Vneck_01
p585
aF0.13488689644250823
aa(lp586
Vhead
p587
aF0.29620123192052422
aa(lp588
VAntennaeL
p589
aF0.16171651520058009
aa(lp590
VAntennaeR
p591
aF0.29620123192052422
aaa(lp592
I68
a(lp593
Vspine_03
p594
aF0.11318660299407809
aa(lp595
Vneck_01
p596
aF0.13637323440269686
aa(lp597
Vhead
p598
aF0.29293142658582366
aa(lp599
VAntennaeL
p600
aF0.16457730943157764
aa(lp601
VAntennaeR
p602
aF0.29293142658582366
aaa(lp603
I69
a(lp604
Vspine_03
p605
aF0.10922580201405897
aa(lp606
Vneck_01
p607
aF0.13539183831285614
aa(lp608
Vhead
p609
aF0.29262980938462924
aa(lp610
VAntennaeL
p611
aF0.17012274090382637
aa(lp612
VAntennaeR
p613
aF0.29262980938462924
aaa(lp614
I70
a(lp615
Vneck_01
p616
aF0.0010440321766364746
aa(lp617
Vhead
p618
aF0.49878813195535748
aa(lp619
VAntennaeL
p620
aF0.0012279271547530923
aa(lp621
VAntennaeR
p622
aF0.49878813195535748
aaa(lp623
I71
a(lp624
Vneck_01
p625
aF0.0016966099101391198
aa(lp626
Vhead
p627
aF0.49990017553221627
aa(lp628
VAntennaeL
p629
aF0.0020487912302872171
aa(lp630
VAntennaeR
p631
aF0.49615663736826665
aaa(lp632
I72
a(lp633
Vneck_01
p634
aF0.0032680559939567825
aa(lp635
Vhead
p636
aF0.51198303715135673
aa(lp637
VAntennaeL
p638
aF0.0065476151463947597
aa(lp639
VAntennaeR
p640
aF0.47788222890519161
aaa(lp641
I73
a(lp642
Vhead
p643
aF0.49868113853043683
aa(lp644
VAntennaeL
p645
aF0.0016055128909155999
aa(lp646
VAntennaeR
p647
aF0.49868113853043683
aaa.