(lp1
(lp2
I0
a(lp3
Vindex_02_r
p4
aF0.57294137518655697
aa(lp5
Vindex_03_r
p6
aF0.42596477066212851
aaa(lp7
I1
a(lp8
Vindex_02_r
p9
aF0.83187226697404304
aa(lp10
Vindex_03_r
p11
aF0.1669130527430856
aaa(lp12
I2
a(lp13
Vindex_01_r
p14
aF0.057971567832433561
aa(lp15
Vindex_02_r
p16
aF0.43507816886671685
aa(lp17
Vindex_03_r
p18
aF0.43507816886671685
aa(lp19
Vmiddle_02_r
p20
aF0.035936047217066364
aa(lp21
Vmiddle_03_r
p22
aF0.035936047217066364
aaa(lp23
I3
a(lp24
Vindex_01_r
p25
aF0.076889486774775237
aa(lp26
Vindex_02_r
p27
aF0.41739760690847855
aa(lp28
Vindex_03_r
p29
aF0.41739760690847832
aa(lp30
Vmiddle_02_r
p31
aF0.04415764970413396
aa(lp32
Vmiddle_03_r
p33
aF0.04415764970413396
aaa(lp34
I4
a(lp35
Vindex_01_r
p36
aF0.055461673423202955
aa(lp37
Vindex_02_r
p38
aF0.42318862423379944
aa(lp39
Vindex_03_r
p40
aF0.42318862423379944
aa(lp41
Vmiddle_02_r
p42
aF0.049080539054599075
aa(lp43
Vmiddle_03_r
p44
aF0.049080539054599075
aaa(lp45
I5
a(lp46
Vindex_01_r
p47
aF0.073906555945291719
aa(lp48
Vindex_02_r
p49
aF0.40143693368718514
aa(lp50
Vindex_03_r
p51
aF0.40143693368718503
aa(lp52
Vmiddle_02_r
p53
aF0.061609788340169079
aa(lp54
Vmiddle_03_r
p55
aF0.061609788340169079
aaa(lp56
I6
a(lp57
Vindex_02_r
p58
aF0.70315043885069572
aa(lp59
Vindex_03_r
p60
aF0.29632559618950272
aaa(lp61
I7
a(lp62
Vindex_02_r
p63
aF0.99266033615639504
aa(lp64
Vindex_03_r
p65
aF0.0072952178405521744
aaa(lp66
I8
a(lp67
Vindex_01_r
p68
aF0.087586457141701796
aa(lp69
Vindex_02_r
p70
aF0.38241737845529983
aa(lp71
Vindex_03_r
p72
aF0.38241737845529961
aa(lp73
Vmiddle_02_r
p74
aF0.073789392973849399
aa(lp75
Vmiddle_03_r
p76
aF0.073789392973849399
aaa(lp77
I9
a(lp78
Vindex_01_r
p79
aF0.091104739938247178
aa(lp80
Vindex_02_r
p81
aF0.3784241426062388
aa(lp82
Vindex_03_r
p83
aF0.3784241426062388
aa(lp84
Vmiddle_02_r
p85
aF0.076023487424637645
aa(lp86
Vmiddle_03_r
p87
aF0.076023487424637645
aaa(lp88
I10
a(lp89
Vindex_01_r
p90
aF0.090170896096874037
aa(lp91
Vindex_02_r
p92
aF0.37461684232929543
aa(lp93
Vindex_03_r
p94
aF0.37461684232929543
aa(lp95
Vmiddle_02_r
p96
aF0.080297709622267552
aa(lp97
Vmiddle_03_r
p98
aF0.080297709622267552
aaa(lp99
I11
a(lp100
Vindex_01_r
p101
aF0.086693373174079699
aa(lp102
Vindex_02_r
p103
aF0.37874997216867656
aa(lp104
Vindex_03_r
p105
aF0.37874997216867679
aa(lp106
Vmiddle_02_r
p107
aF0.077903341244283456
aa(lp108
Vmiddle_03_r
p109
aF0.077903341244283456
aaa(lp110
I12
a(lp111
Vindex_01_r
p112
aF0.010201334715799161
aa(lp113
Vindex_02_r
p114
aF0.48974719742395784
aa(lp115
Vindex_03_r
p116
aF0.48974719742395773
aa(lp117
Vmiddle_02_r
p118
aF0.0051522738694049358
aa(lp119
Vmiddle_03_r
p120
aF0.0051519965668804027
aaa(lp121
I13
a(lp122
Vindex_01_r
p123
aF0.011587344832628171
aa(lp124
Vindex_02_r
p125
aF0.49028850411322844
aa(lp126
Vindex_03_r
p127
aF0.49028850411322844
aa(lp128
Vmiddle_02_r
p129
aF0.0039466078131052866
aa(lp130
Vmiddle_03_r
p131
aF0.0038890391278097549
aaa(lp132
I14
a(lp133
Vindex_01_r
p134
aF0.021774385333202247
aa(lp135
Vindex_02_r
p136
aF0.48268671441697303
aa(lp137
Vindex_03_r
p138
aF0.48268671441697303
aa(lp139
Vmiddle_02_r
p140
aF0.0065617567679447852
aa(lp141
Vmiddle_03_r
p142
aF0.0062904290649069064
aaa(lp143
I15
a(lp144
Vindex_01_r
p145
aF0.020271752595949315
aa(lp146
Vindex_02_r
p147
aF0.48083821987002079
aa(lp148
Vindex_03_r
p149
aF0.48083821987002101
aa(lp150
Vmiddle_02_r
p151
aF0.0090706865345151228
aa(lp152
Vmiddle_03_r
p153
aF0.0089811211294935685
aaa(lp154
I16
a(lp155
Vindex_01_r
p156
aF0.0033675237411152151
aa(lp157
Vindex_02_r
p158
aF0.54613917983184079
aa(lp159
Vindex_03_r
p160
aF0.44958217633162423
aaa(lp161
I17
a(lp162
Vindex_02_r
p163
aF0.49951748888607195
aa(lp164
Vindex_03_r
p165
aF0.49951748888607184
aaa(lp166
I18
a(lp167
Vindex_02_r
p168
aF0.49980600032369193
aa(lp169
Vindex_03_r
p170
aF0.49980600032369182
aaa(lp171
I19
a(lp172
Vindex_01_r
p173
aF0.0017394608204235895
aa(lp174
Vindex_02_r
p175
aF0.66858728919400168
aa(lp176
Vindex_03_r
p177
aF0.32911238125028475
aaa(lp178
I20
a(lp179
Vindex_01_r
p180
aF0.077758777519435246
aa(lp181
Vindex_02_r
p182
aF0.39008200350765726
aa(lp183
Vindex_03_r
p184
aF0.39008200350765704
aa(lp185
Vmiddle_02_r
p186
aF0.071038607732625256
aa(lp187
Vmiddle_03_r
p188
aF0.071038607732625256
aaa(lp189
I21
a(lp190
Vindex_01_r
p191
aF0.086751467310926228
aa(lp192
Vindex_02_r
p193
aF0.37927584363846112
aa(lp194
Vindex_03_r
p195
aF0.37927584363846112
aa(lp196
Vmiddle_02_r
p197
aF0.077348422706075753
aa(lp198
Vmiddle_03_r
p199
aF0.077348422706075753
aaa(lp200
I22
a(lp201
Vindex_01_r
p202
aF0.088923284735647798
aa(lp203
Vindex_02_r
p204
aF0.38871891139846865
aa(lp205
Vindex_03_r
p206
aF0.38871891139846854
aa(lp207
Vmiddle_02_r
p208
aF0.066819446233707488
aa(lp209
Vmiddle_03_r
p210
aF0.066819446233707488
aaa(lp211
I23
a(lp212
Vindex_01_r
p213
aF0.079699760575682371
aa(lp214
Vindex_02_r
p215
aF0.3985709994827828
aa(lp216
Vindex_03_r
p217
aF0.3985709994827828
aa(lp218
Vmiddle_02_r
p219
aF0.061579120229376068
aa(lp220
Vmiddle_03_r
p221
aF0.061579120229376068
aaa(lp222
I24
a(lp223
Vindex_01_r
p224
aF0.071728989859953435
aa(lp225
Vindex_02_r
p226
aF0.41328557496077312
aa(lp227
Vindex_03_r
p228
aF0.41328557496077334
aa(lp229
Vmiddle_02_r
p230
aF0.050849930109250048
aa(lp231
Vmiddle_03_r
p232
aF0.050849930109250048
aaa(lp233
I25
a(lp234
Vindex_01_r
p235
aF0.083212714795282305
aa(lp236
Vindex_02_r
p237
aF0.38467140410405237
aa(lp238
Vindex_03_r
p239
aF0.38467140410405237
aa(lp240
Vmiddle_02_r
p241
aF0.073722238498306558
aa(lp242
Vmiddle_03_r
p243
aF0.073722238498306558
aaa(lp244
I26
a(lp245
Vindex_01_r
p246
aF0.089458656674457127
aa(lp247
Vindex_02_r
p248
aF0.38258433069801767
aa(lp249
Vindex_03_r
p250
aF0.38258433069801745
aa(lp251
Vmiddle_02_r
p252
aF0.072686340964753932
aa(lp253
Vmiddle_03_r
p254
aF0.072686340964753932
aaa(lp255
I27
a(lp256
Vindex_01_r
p257
aF0.069189344575592865
aa(lp258
Vindex_02_r
p259
aF0.40161408595292869
aa(lp260
Vindex_03_r
p261
aF0.40161408595292891
aa(lp262
Vmiddle_02_r
p263
aF0.063791241759274739
aa(lp264
Vmiddle_03_r
p265
aF0.063791241759274739
aaa(lp266
I28
a(lp267
Vindex_01_r
p268
aF0.081705725764801923
aa(lp269
Vindex_02_r
p270
aF0.38311483685611192
aa(lp271
Vindex_03_r
p272
aF0.38311483685611192
aa(lp273
Vmiddle_02_r
p274
aF0.076032300261487121
aa(lp275
Vmiddle_03_r
p276
aF0.076032300261487121
aaa(lp277
I29
a(lp278
Vindex_01_r
p279
aF0.077291148453872902
aa(lp280
Vindex_02_r
p281
aF0.3963191483939465
aa(lp282
Vindex_03_r
p283
aF0.3963191483939465
aa(lp284
Vmiddle_02_r
p285
aF0.06503527737911706
aa(lp286
Vmiddle_03_r
p287
aF0.06503527737911706
aaa(lp288
I30
a(lp289
Vindex_01_r
p290
aF0.001362520152725945
aa(lp291
Vindex_02_r
p292
aF0.50270698087057031
aa(lp293
Vindex_03_r
p294
aF0.49552783450760723
aaa(lp295
I31
a(lp296
Vindex_02_r
p297
aF0.49985483292312166
aa(lp298
Vindex_03_r
p299
aF0.49985483292312188
aaa(lp300
I32
a(lp301
Vindex_02_r
p302
aF0.55130996783324204
aa(lp303
Vindex_03_r
p304
aF0.44764135618414297
aaa(lp305
I33
a(lp306
Vindex_01_r
p307
aF0.0028176670481025561
aa(lp308
Vindex_02_r
p309
aF0.71132564779476981
aa(lp310
Vindex_03_r
p311
aF0.28523065534607706
aaa(lp312
I34
a(lp313
Vindex_01_r
p314
aF0.0015951661467254723
aa(lp315
Vindex_02_r
p316
aF0.49895532332344261
aa(lp317
Vindex_03_r
p318
aF0.49895532332344283
aaa(lp319
I35
a(lp320
Vindex_02_r
p321
aF0.92968047712393587
aa(lp322
Vindex_03_r
p323
aF0.06959951423969428
aaa(lp324
I36
a(lp325
Vindex_01_r
p326
aF0.0025265936160879568
aa(lp327
Vindex_02_r
p328
aF0.65076626123790127
aa(lp329
Vindex_03_r
p330
aF0.34602736046131777
aaa(lp331
I37
a(lp332
Vindex_02_r
p333
aF0.55059074621764448
aa(lp334
Vindex_03_r
p335
aF0.44858703182739024
aaa(lp336
I38
a(lp337
Vhand_r
p338
aF0.0013415382353144806
aa(lp339
Vindex_01_r
p340
aF0.0064778387169704054
aa(lp341
Vindex_02_r
p342
aF0.49549384177071581
aa(lp343
Vindex_03_r
p344
aF0.49549384177071604
aa(lp345
Vmiddle_02_r
p346
aF0.0011929395062832044
aaa(lp347
I39
a(lp348
Vindex_01_r
p349
aF0.0018050862188899999
aa(lp350
Vindex_02_r
p351
aF0.49869294664093428
aa(lp352
Vindex_03_r
p353
aF0.4986929466409345
aaa(lp354
I40
a(lp355
Vindex_01_r
p356
aF0.001050870223793665
aa(lp357
Vindex_02_r
p358
aF0.49912673569201166
aa(lp359
Vindex_03_r
p360
aF0.49912673569201166
aaa(lp361
I41
a(lp362
Vindex_01_r
p363
aF0.0051209866084976421
aa(lp364
Vindex_02_r
p365
aF0.4960675918831412
aa(lp366
Vindex_03_r
p367
aF0.4960675918831412
aa(lp368
Vmiddle_02_r
p369
aF0.0014274578108641395
aa(lp370
Vmiddle_03_r
p371
aF0.0013163718143556996
aaa(lp372
I42
a(lp373
Vindex_01_r
p374
aF0.083654684651741973
aa(lp375
Vindex_02_r
p376
aF0.38214449907256648
aa(lp377
Vindex_03_r
p378
aF0.38214449907256648
aa(lp379
Vmiddle_02_r
p380
aF0.076028158601562576
aa(lp381
Vmiddle_03_r
p382
aF0.076028158601562576
aaa(lp383
I43
a(lp384
Vindex_01_r
p385
aF0.089360047730111289
aa(lp386
Vindex_02_r
p387
aF0.37531293943278865
aa(lp388
Vindex_03_r
p389
aF0.37531293943278887
aa(lp390
Vmiddle_02_r
p391
aF0.080007036702155546
aa(lp392
Vmiddle_03_r
p393
aF0.080007036702155546
aaa(lp394
I44
a(lp395
Vindex_01_r
p396
aF0.090852803116589498
aa(lp397
Vindex_02_r
p398
aF0.38151041417354381
aa(lp399
Vindex_03_r
p400
aF0.38151041417354381
aa(lp401
Vmiddle_02_r
p402
aF0.073063184268161496
aa(lp403
Vmiddle_03_r
p404
aF0.073063184268161496
aaa(lp405
I45
a(lp406
Vindex_01_r
p407
aF0.085042501676730345
aa(lp408
Vindex_02_r
p409
aF0.38796209219659572
aa(lp410
Vindex_03_r
p411
aF0.38796209219659572
aa(lp412
Vmiddle_02_r
p413
aF0.069516656965039114
aa(lp414
Vmiddle_03_r
p415
aF0.069516656965039114
aaa(lp416
I46
a(lp417
Vindex_01_r
p418
aF0.01593941948191651
aa(lp419
Vindex_02_r
p420
aF0.48726033356130061
aa(lp421
Vindex_03_r
p422
aF0.48726033356130038
aa(lp423
Vmiddle_02_r
p424
aF0.0048461709527205989
aa(lp425
Vmiddle_03_r
p426
aF0.0046937424427619927
aaa(lp427
I47
a(lp428
Vindex_01_r
p429
aF0.051571209416833505
aa(lp430
Vindex_02_r
p431
aF0.45148684472998929
aa(lp432
Vindex_03_r
p433
aF0.45148684472998951
aa(lp434
Vmiddle_02_r
p435
aF0.022776492679872643
aa(lp436
Vmiddle_03_r
p437
aF0.022678608443314843
aaa(lp438
I48
a(lp439
Vindex_01_r
p440
aF0.066912176417736127
aa(lp441
Vindex_02_r
p442
aF0.42861749992272213
aa(lp443
Vindex_03_r
p444
aF0.42861749992272213
aa(lp445
Vmiddle_02_r
p446
aF0.037926411868409837
aa(lp447
Vmiddle_03_r
p448
aF0.037926411868409837
aaa(lp449
I49
a(lp450
Vindex_01_r
p451
aF0.034489583499020371
aa(lp452
Vindex_02_r
p453
aF0.46588644015690978
aa(lp454
Vindex_03_r
p455
aF0.46588644015690978
aa(lp456
Vmiddle_02_r
p457
aF0.016868768093580035
aa(lp458
Vmiddle_03_r
p459
aF0.016868768093580035
aaa(lp460
I50
a(lp461
Vindex_01_r
p462
aF0.09000227062346948
aa(lp463
Vindex_02_r
p464
aF0.3795868090463454
aa(lp465
Vindex_03_r
p466
aF0.3795868090463454
aa(lp467
Vmiddle_02_r
p468
aF0.075412055641919842
aa(lp469
Vmiddle_03_r
p470
aF0.075412055641919842
aaa(lp471
I51
a(lp472
Vindex_01_r
p473
aF0.09153420681368557
aa(lp474
Vindex_02_r
p475
aF0.37506144204847963
aa(lp476
Vindex_03_r
p477
aF0.37506144204847985
aa(lp478
Vmiddle_02_r
p479
aF0.079171454544677416
aa(lp480
Vmiddle_03_r
p481
aF0.079171454544677416
aaa(lp482
I52
a(lp483
Vindex_01_r
p484
aF0.088921193278155466
aa(lp485
Vindex_02_r
p486
aF0.37519303307257168
aa(lp487
Vindex_03_r
p488
aF0.3751930330725719
aa(lp489
Vmiddle_02_r
p490
aF0.080346370288350413
aa(lp491
Vmiddle_03_r
p492
aF0.080346370288350413
aaa(lp493
I53
a(lp494
Vindex_01_r
p495
aF0.087456437830536846
aa(lp496
Vindex_02_r
p497
aF0.3798079491009646
aa(lp498
Vindex_03_r
p499
aF0.3798079491009646
aa(lp500
Vmiddle_02_r
p501
aF0.076463831983766911
aa(lp502
Vmiddle_03_r
p503
aF0.076463831983766911
aaa(lp504
I54
a(lp505
Vindex_01_r
p506
aF0.063248871663536543
aa(lp507
Vindex_02_r
p508
aF0.40996281224268105
aa(lp509
Vindex_03_r
p510
aF0.40996281224268105
aa(lp511
Vmiddle_02_r
p512
aF0.058412751925550704
aa(lp513
Vmiddle_03_r
p514
aF0.058412751925550704
aaa(lp515
I55
a(lp516
Vindex_01_r
p517
aF0.049740052279233359
aa(lp518
Vindex_02_r
p519
aF0.4420010250025932
aa(lp520
Vindex_03_r
p521
aF0.4420010250025932
aa(lp522
Vmiddle_02_r
p523
aF0.033128948857790164
aa(lp524
Vmiddle_03_r
p525
aF0.033128948857790164
aaa(lp526
I56
a(lp527
Vindex_01_r
p528
aF0.013947090863422846
aa(lp529
Vindex_02_r
p530
aF0.48582219171821578
aa(lp531
Vindex_03_r
p532
aF0.485822191718216
aa(lp533
Vmiddle_02_r
p534
aF0.0072077670692711412
aa(lp535
Vmiddle_03_r
p536
aF0.0072007586308742034
aaa(lp537
I57
a(lp538
Vindex_01_r
p539
aF0.032668764826829476
aa(lp540
Vindex_02_r
p541
aF0.45994694988945189
aa(lp542
Vindex_03_r
p543
aF0.45994694988945189
aa(lp544
Vmiddle_02_r
p545
aF0.023718667697133374
aa(lp546
Vmiddle_03_r
p547
aF0.023718667697133374
aaa(lp548
I58
a(lp549
Vindex_02_r
p550
aF0.94621379739474598
aa(lp551
Vindex_03_r
p552
aF0.053607028916823798
aaa(lp553
I59
a(lp554
Vindex_02_r
p555
aF0.98145565232442056
aa(lp556
Vindex_03_r
p557
aF0.018395442669099638
aaa(lp558
I60
a(lp559
Vindex_01_r
p560
aF0.0011293840826311239
aa(lp561
Vindex_02_r
p562
aF0.6973944005301056
aa(lp563
Vindex_03_r
p564
aF0.30121093227668666
aaa(lp565
I61
a(lp566
Vindex_02_r
p567
aF0.61755793107027546
aa(lp568
Vindex_03_r
p569
aF0.38173060650445084
aaa(lp570
I62
a(lp571
Vindex_01_r
p572
aF0.022979164002049367
aa(lp573
Vindex_02_r
p574
aF0.48055393251132233
aa(lp575
Vindex_03_r
p576
aF0.48055393251132233
aa(lp577
Vmiddle_02_r
p578
aF0.0080730484962546149
aa(lp579
Vmiddle_03_r
p580
aF0.0078399224790513464
aaa(lp581
I63
a(lp582
Vindex_01_r
p583
aF0.0789758498231065
aa(lp584
Vindex_02_r
p585
aF0.40728792145866571
aa(lp586
Vindex_03_r
p587
aF0.40728792145866571
aa(lp588
Vmiddle_02_r
p589
aF0.05322415362978105
aa(lp590
Vmiddle_03_r
p591
aF0.05322415362978105
aaa(lp592
I64
a(lp593
Vindex_01_r
p594
aF0.0094655873477856901
aa(lp595
Vindex_02_r
p596
aF0.49135157304708843
aa(lp597
Vindex_03_r
p598
aF0.49135157304708843
aa(lp599
Vmiddle_02_r
p600
aF0.0039212931663471099
aa(lp601
Vmiddle_03_r
p602
aF0.0039099733916903804
aaa(lp603
I65
a(lp604
Vindex_01_r
p605
aF0.053901524445427292
aa(lp606
Vindex_02_r
p607
aF0.43319102700218326
aa(lp608
Vindex_03_r
p609
aF0.43319102700218326
aa(lp610
Vmiddle_02_r
p611
aF0.039858210775103146
aa(lp612
Vmiddle_03_r
p613
aF0.039858210775103146
aaa(lp614
I66
a(lp615
Vindex_01_r
p616
aF0.086210780565566886
aa(lp617
Vindex_02_r
p618
aF0.39868850873985417
aa(lp619
Vindex_03_r
p620
aF0.39868850873985406
aa(lp621
Vmiddle_02_r
p622
aF0.058206100977362452
aa(lp623
Vmiddle_03_r
p624
aF0.058206100977362452
aaa(lp625
I67
a(lp626
Vindex_01_r
p627
aF0.084445804565155186
aa(lp628
Vindex_02_r
p629
aF0.39509032616013418
aa(lp630
Vindex_03_r
p631
aF0.39509032616013418
aa(lp632
Vmiddle_02_r
p633
aF0.062686771557288273
aa(lp634
Vmiddle_03_r
p635
aF0.062686771557288273
aaa(lp636
I68
a(lp637
Vindex_01_r
p638
aF0.042192492019510711
aa(lp639
Vindex_02_r
p640
aF0.46038040095131638
aa(lp641
Vindex_03_r
p642
aF0.46038040095131638
aa(lp643
Vmiddle_02_r
p644
aF0.018536789868959191
aa(lp645
Vmiddle_03_r
p646
aF0.018509916208897255
aaa(lp647
I69
a(lp648
Vindex_01_r
p649
aF0.09020805711749634
aa(lp650
Vindex_02_r
p651
aF0.37600067144976906
aa(lp652
Vindex_03_r
p653
aF0.37600067144976895
aa(lp654
Vmiddle_02_r
p655
aF0.078895299991482842
aa(lp656
Vmiddle_03_r
p657
aF0.078895299991482842
aaa(lp658
I70
a(lp659
Vindex_01_r
p660
aF0.039704746939478092
aa(lp661
Vindex_02_r
p662
aF0.45015350676482352
aa(lp663
Vindex_03_r
p664
aF0.45015350676482352
aa(lp665
Vmiddle_02_r
p666
aF0.029994119765437473
aa(lp667
Vmiddle_03_r
p668
aF0.029994119765437473
aaa(lp669
I71
a(lp670
Vindex_02_r
p671
aF0.97354266202192496
aa(lp672
Vindex_03_r
p673
aF0.026398696864588244
aaa(lp674
I72
a(lp675
Vindex_01_r
p676
aF0.053930645128311791
aa(lp677
Vindex_02_r
p678
aF0.44486996260398187
aa(lp679
Vindex_03_r
p680
aF0.44486996260398209
aa(lp681
Vmiddle_02_r
p682
aF0.028172127121294382
aa(lp683
Vmiddle_03_r
p684
aF0.028157302542429798
aaa(lp685
I73
a(lp686
Vindex_01_r
p687
aF0.031051788753858535
aa(lp688
Vindex_02_r
p689
aF0.46598408875065578
aa(lp690
Vindex_03_r
p691
aF0.465984088750656
aa(lp692
Vmiddle_02_r
p693
aF0.018490016872414829
aa(lp694
Vmiddle_03_r
p695
aF0.018490016872414829
aaa(lp696
I74
a(lp697
Vindex_01_r
p698
aF0.078905341077066232
aa(lp699
Vindex_02_r
p700
aF0.40806663259313258
aa(lp701
Vindex_03_r
p702
aF0.40806663259313281
aa(lp703
Vmiddle_02_r
p704
aF0.052480696868334148
aa(lp705
Vmiddle_03_r
p706
aF0.052480696868334148
aaa(lp707
I75
a(lp708
Vindex_01_r
p709
aF0.087352226781819683
aa(lp710
Vindex_02_r
p711
aF0.38978048469100662
aa(lp712
Vindex_03_r
p713
aF0.38978048469100662
aa(lp714
Vmiddle_02_r
p715
aF0.066543401918083542
aa(lp716
Vmiddle_03_r
p717
aF0.066543401918083542
aaa(lp718
I76
a(lp719
Vindex_01_r
p720
aF0.07521883593626702
aa(lp721
Vindex_02_r
p722
aF0.39087471583845057
aa(lp723
Vindex_03_r
p724
aF0.39087471583845046
aa(lp725
Vmiddle_02_r
p726
aF0.071515866193416003
aa(lp727
Vmiddle_03_r
p728
aF0.071515866193416003
aaa(lp729
I77
a(lp730
Vindex_01_r
p731
aF0.068265234919960407
aa(lp732
Vindex_02_r
p733
aF0.41065510308433278
aa(lp734
Vindex_03_r
p735
aF0.41065510308433278
aa(lp736
Vmiddle_02_r
p737
aF0.055212279455687054
aa(lp738
Vmiddle_03_r
p739
aF0.055212279455687054
aaa(lp740
I78
a(lp741
Vindex_02_r
p742
aF0.50306928288492336
aa(lp743
Vindex_03_r
p744
aF0.49601161843890185
aaa(lp745
I79
a(lp746
Vindex_01_r
p747
aF0.0020935911965317719
aa(lp748
Vindex_02_r
p749
aF0.56066581165488338
aa(lp750
Vindex_03_r
p751
aF0.4366767490838287
aaa(lp752
I80
a(lp753
Vindex_02_r
p754
aF0.90355996228170976
aa(lp755
Vindex_03_r
p756
aF0.095259317262145315
aaa(lp757
I81
a(lp758
Vindex_02_r
p759
aF0.7855973305989169
aa(lp760
Vindex_03_r
p761
aF0.21356047146366489
aaa(lp762
I82
a(lp763
Vindex_01_r
p764
aF0.0035045598452788877
aa(lp765
Vindex_02_r
p766
aF0.49752968719570356
aa(lp767
Vindex_03_r
p768
aF0.49752968719570356
aaa(lp769
I83
a(lp770
Vindex_02_r
p771
aF0.49929489499889668
aa(lp772
Vindex_03_r
p773
aF0.49929489499889668
aaa(lp774
I84
a(lp775
Vindex_01_r
p776
aF0.0021097554118843305
aa(lp777
Vindex_02_r
p778
aF0.49825116403513742
aa(lp779
Vindex_03_r
p780
aF0.49825116403513742
aaa(lp781
I85
a(lp782
Vhand_r
p783
aF0.0013263977931535253
aa(lp784
Vindex_01_r
p785
aF0.0066769745253579173
aa(lp786
Vindex_02_r
p787
aF0.4952913588655099
aa(lp788
Vindex_03_r
p789
aF0.49529135886551012
aa(lp790
Vmiddle_02_r
p791
aF0.0014139099504684644
aaa(lp792
I86
a(lp793
Vindex_01_r
p794
aF0.086185718269452399
aa(lp795
Vindex_02_r
p796
aF0.37769510923637989
aa(lp797
Vindex_03_r
p798
aF0.37769510923637989
aa(lp799
Vmiddle_02_r
p800
aF0.079212031628893939
aa(lp801
Vmiddle_03_r
p802
aF0.079212031628893939
aaa(lp803
I87
a(lp804
Vindex_01_r
p805
aF0.091106373063656904
aa(lp806
Vindex_02_r
p807
aF0.37743160189780406
aa(lp808
Vindex_03_r
p809
aF0.37743160189780406
aa(lp810
Vmiddle_02_r
p811
aF0.077015211570367448
aa(lp812
Vmiddle_03_r
p813
aF0.077015211570367448
aaa(lp814
I88
a(lp815
Vindex_01_r
p816
aF0.088105575862414173
aa(lp817
Vindex_02_r
p818
aF0.38571117549931561
aa(lp819
Vindex_03_r
p820
aF0.38571117549931561
aa(lp821
Vmiddle_02_r
p822
aF0.070236036569477259
aa(lp823
Vmiddle_03_r
p824
aF0.070236036569477259
aaa(lp825
I89
a(lp826
Vindex_01_r
p827
aF0.083423051656382557
aa(lp828
Vindex_02_r
p829
aF0.38627793104603109
aa(lp830
Vindex_03_r
p831
aF0.38627793104603109
aa(lp832
Vmiddle_02_r
p833
aF0.072010543125777621
aa(lp834
Vmiddle_03_r
p835
aF0.072010543125777621
aaa.