(lp1
(lp2
I0
a(lp3
Vhand_r
p4
aF0.0034871503959084532
aa(lp5
Vindex_01_r
p6
aF0.49351194975560297
aa(lp7
Vindex_02_r
p8
aF0.50048188402523031
aa(lp9
Vthumb_02_r
p10
aF0.0012595079116291218
aa(lp11
Vthumb_03_r
p12
aF0.0012595079116291218
aaa(lp13
I1
a(lp14
Vhand_r
p15
aF0.0036502753900297413
aa(lp16
Vindex_01_r
p17
aF0.41087741800836547
aa(lp18
Vindex_02_r
p19
aF0.58315080065739533
aa(lp20
Vindex_03_r
p21
aF0.0012902874843666512
aa(lp22
Vthumb_02_r
p23
aF0.0010312184598427528
aaa(lp24
I2
a(lp25
Vindex_01_r
p26
aF0.0041818183453671718
aa(lp27
Vindex_02_r
p28
aF0.4972041726252619
aa(lp29
Vindex_03_r
p30
aF0.49720417262526168
aaa(lp31
I3
a(lp32
Vhand_r
p33
aF0.0039431341591583142
aa(lp34
Vindex_01_r
p35
aF0.027586944976511582
aa(lp36
Vindex_02_r
p37
aF0.60253543039606761
aa(lp38
Vindex_03_r
p39
aF0.36307250165152888
aa(lp40
Vthumb_02_r
p41
aF0.0028619888167335564
aaa(lp42
I4
a(lp43
Vindex_01_r
p44
aF0.002403720415197035
aa(lp45
Vindex_02_r
p46
aF0.49824556162895456
aa(lp47
Vindex_03_r
p48
aF0.49824556162895478
aaa(lp49
I5
a(lp50
Vindex_01_r
p51
aF0.021615494801390377
aa(lp52
Vindex_02_r
p53
aF0.61520134380597991
aa(lp54
Vindex_03_r
p55
aF0.35299724836036217
aa(lp56
Vmiddle_02_r
p57
aF0.0055692365671634507
aa(lp58
Vmiddle_03_r
p59
aF0.0046166764651040188
aaa(lp60
I6
a(lp61
Vhand_r
p62
aF0.0022019731946916693
aa(lp63
Vindex_01_r
p64
aF0.49147453914472833
aa(lp65
Vindex_02_r
p66
aF0.50499991979076952
aaa(lp67
I7
a(lp68
Vhand_r
p69
aF0.0024161888969485633
aa(lp70
Vindex_01_r
p71
aF0.37884610032015648
aa(lp72
Vindex_02_r
p73
aF0.61652371561814756
aa(lp74
Vmiddle_01_r
p75
aF0.0011591647736722284
aa(lp76
Vmiddle_02_r
p77
aF0.001054830391075201
aaa(lp78
I8
a(lp79
Vindex_01_r
p80
aF0.00193084488425214
aa(lp81
Vindex_02_r
p82
aF0.49867217667893676
aa(lp83
Vindex_03_r
p84
aF0.49867217667893665
aaa(lp85
I9
a(lp86
Vindex_01_r
p87
aF0.0038489537053275173
aa(lp88
Vindex_02_r
p89
aF0.49761524887273989
aa(lp90
Vindex_03_r
p91
aF0.49731162209662921
aaa(lp92
I10
a(lp93
Vindex_01_r
p94
aF0.0024087057867988085
aa(lp95
Vindex_02_r
p96
aF0.49812503124292784
aa(lp97
Vindex_03_r
p98
aF0.49810480859345979
aaa(lp99
I11
a(lp100
Vindex_01_r
p101
aF0.0011339502033415369
aa(lp102
Vindex_02_r
p103
aF0.49910896432800661
aa(lp104
Vindex_03_r
p105
aF0.49910896432800661
aaa(lp106
I12
a(lp107
Vindex_01_r
p108
aF0.73646056467338994
aa(lp109
Vindex_02_r
p110
aF0.26254565077179598
aaa(lp111
I13
a(lp112
Vhand_r
p113
aF0.0026169570993444941
aa(lp114
Vindex_01_r
p115
aF0.61729468865508885
aa(lp116
Vindex_02_r
p117
aF0.37893190515956293
aaa(lp118
I14
a(lp119
Vhand_r
p120
aF0.0041606543934973985
aa(lp121
Vindex_01_r
p122
aF0.56355746902507453
aa(lp123
Vindex_02_r
p124
aF0.4310947614095148
aaa(lp125
I15
a(lp126
Vhand_r
p127
aF0.0019374712774042778
aa(lp128
Vindex_01_r
p129
aF0.61434600458411193
aa(lp130
Vindex_02_r
p131
aF0.38305609349733982
aaa(lp132
I16
a(lp133
Vindex_02_r
p134
aF0.49971039484713786
aa(lp135
Vindex_03_r
p136
aF0.49971039484713775
aaa(lp137
I17
a(lp138
Vindex_02_r
p139
aF0.53174645543494414
aa(lp140
Vindex_03_r
p141
aF0.46749557816759302
aaa(lp142
I18
a(lp143
Vindex_02_r
p144
aF0.54702798216332127
aa(lp145
Vindex_03_r
p146
aF0.45266937707134836
aaa(lp147
I19
a(lp148
Vindex_02_r
p149
aF0.4998817584456427
aa(lp150
Vindex_03_r
p151
aF0.49988175844564259
aaa(lp152
I20
a(lp153
Vhand_r
p154
aF0.0039664182661333413
aa(lp155
Vindex_01_r
p156
aF0.067770142243529397
aa(lp157
Vindex_02_r
p158
aF0.88585646483224612
aa(lp159
Vindex_03_r
p160
aF0.040144899015467764
aa(lp161
Vthumb_02_r
p162
aF0.0022620756426232707
aaa(lp163
I21
a(lp164
Vhand_r
p165
aF0.0028346341131632873
aa(lp166
Vindex_01_r
p167
aF0.059176484732423894
aa(lp168
Vindex_02_r
p169
aF0.90654653370513982
aa(lp170
Vindex_03_r
p171
aF0.029166884489501239
aa(lp172
Vthumb_02_r
p173
aF0.0022754629597717922
aaa(lp174
I22
a(lp175
Vhand_r
p176
aF0.0018036053928001095
aa(lp177
Vindex_01_r
p178
aF0.038941515941143964
aa(lp179
Vindex_02_r
p180
aF0.93825048341141992
aa(lp181
Vindex_03_r
p182
aF0.019519116069249987
aa(lp183
Vmiddle_02_r
p184
aF0.0014852791853860686
aaa(lp185
I23
a(lp186
Vindex_01_r
p187
aF0.04841062556956291
aa(lp188
Vindex_02_r
p189
aF0.91618475269855104
aa(lp190
Vindex_03_r
p191
aF0.02942311232458536
aa(lp192
Vmiddle_01_r
p193
aF0.0029444366023845211
aa(lp194
Vmiddle_02_r
p195
aF0.0030370728049162483
aaa(lp196
I24
a(lp197
Vindex_01_r
p198
aF0.0022975786784764315
aa(lp199
Vindex_02_r
p200
aF0.49845120980348545
aa(lp201
Vindex_03_r
p202
aF0.49845120980348545
aaa(lp203
I25
a(lp204
Vindex_01_r
p205
aF0.0027728382780538839
aa(lp206
Vindex_02_r
p207
aF0.49808828702696428
aa(lp208
Vindex_03_r
p209
aF0.49808828702696406
aaa(lp210
I26
a(lp211
Vhand_r
p212
aF0.004568364329630239
aa(lp213
Vindex_01_r
p214
aF0.032529629772435245
aa(lp215
Vindex_02_r
p216
aF0.63186216775549509
aa(lp217
Vindex_03_r
p218
aF0.32624903198845384
aa(lp219
Vmiddle_02_r
p220
aF0.004790806153985647
aaa(lp221
I27
a(lp222
Vindex_01_r
p223
aF0.0077189249659040766
aa(lp224
Vindex_02_r
p225
aF0.51934695055448077
aa(lp226
Vindex_03_r
p227
aF0.46851620930407323
aa(lp228
Vmiddle_02_r
p229
aF0.0023190233705536094
aa(lp230
Vmiddle_03_r
p231
aF0.0020988918049883302
aaa(lp232
I28
a(lp233
Vindex_01_r
p234
aF0.0031317274641185348
aa(lp235
Vindex_02_r
p236
aF0.50326556300104164
aa(lp237
Vindex_03_r
p238
aF0.49245441366776393
aaa(lp239
I29
a(lp240
Vindex_01_r
p241
aF0.0046169487919232267
aa(lp242
Vindex_02_r
p243
aF0.55623353060399261
aa(lp244
Vindex_03_r
p245
aF0.43661394007741972
aa(lp246
Vmiddle_02_r
p247
aF0.0013367964833763766
aa(lp248
Vmiddle_03_r
p249
aF0.0011987840432881327
aaa(lp250
I30
a(lp251
Vindex_01_r
p252
aF0.0016525535502280224
aa(lp253
Vindex_02_r
p254
aF0.49869888108578353
aa(lp255
Vindex_03_r
p256
aF0.49869888108578353
aaa(lp257
I31
a(lp258
Vindex_01_r
p259
aF0.0010509251211836697
aa(lp260
Vindex_02_r
p261
aF0.49913269869289084
aa(lp262
Vindex_03_r
p263
aF0.49913269869289106
aaa(lp264
I32
a(lp265
Vindex_01_r
p266
aF0.0022350028496179687
aa(lp267
Vindex_02_r
p268
aF0.49847136700295624
aa(lp269
Vindex_03_r
p270
aF0.49847136700295624
aaa(lp271
I33
a(lp272
Vindex_01_r
p273
aF0.0011852018879364397
aa(lp274
Vindex_02_r
p275
aF0.49913318116435001
aa(lp276
Vindex_03_r
p277
aF0.4991331811643499
aaa(lp278
I34
a(lp279
Vhand_r
p280
aF0.0040712165080697155
aa(lp281
Vindex_01_r
p282
aF0.51841979002720207
aa(lp283
Vindex_02_r
p284
aF0.47492600102193577
aa(lp285
Vmiddle_01_r
p286
aF0.0014353167072246934
aa(lp287
Vmiddle_02_r
p288
aF0.0011476757355675729
aaa(lp289
I35
a(lp290
Vhand_r
p291
aF0.0027537912111024149
aa(lp292
Vindex_01_r
p293
aF0.56751059780844637
aa(lp294
Vindex_02_r
p295
aF0.42857903120102842
aaa(lp296
I36
a(lp297
Vhand_r
p298
aF0.0058863678526620486
aa(lp299
Vindex_01_r
p300
aF0.5020289619392212
aa(lp301
Vindex_02_r
p302
aF0.48988224741976116
aa(lp303
Vthumb_02_r
p304
aF0.0011026170146129885
aa(lp305
Vthumb_03_r
p306
aF0.0010998057737425214
aaa(lp307
I37
a(lp308
Vhand_r
p309
aF0.0046646487280374337
aa(lp310
Vindex_01_r
p311
aF0.52382886482259705
aa(lp312
Vindex_02_r
p313
aF0.46914102393948787
aa(lp314
Vthumb_02_r
p315
aF0.0011895738110291815
aa(lp316
Vthumb_03_r
p317
aF0.0011758886988485387
aaa(lp318
I38
a(lp319
Vindex_01_r
p320
aF0.0020228023328076146
aa(lp321
Vindex_02_r
p322
aF0.50305147831187735
aa(lp323
Vindex_03_r
p324
aF0.49432428650203419
aaa(lp325
I39
a(lp326
Vindex_01_r
p327
aF0.0012934556784284881
aa(lp328
Vindex_02_r
p329
aF0.49912835604887573
aa(lp330
Vindex_03_r
p331
aF0.49912835604887573
aaa(lp332
I40
a(lp333
Vindex_01_r
p334
aF0.0010676487855799958
aa(lp335
Vindex_02_r
p336
aF0.50356728992927113
aa(lp337
Vindex_03_r
p338
aF0.49485560915768462
aaa(lp339
I41
a(lp340
Vindex_02_r
p341
aF0.49949210638431979
aa(lp342
Vindex_03_r
p343
aF0.49949210638431968
aaa(lp344
I42
a(lp345
Vhand_r
p346
aF0.0047989449972775083
aa(lp347
Vindex_01_r
p348
aF0.046113990545659511
aa(lp349
Vindex_02_r
p350
aF0.76692170702531604
aa(lp351
Vindex_03_r
p352
aF0.17897836899884442
aa(lp353
Vthumb_02_r
p354
aF0.0031869884329025371
aaa(lp355
I43
a(lp356
Vhand_r
p357
aF0.0015578688823501136
aa(lp358
Vindex_01_r
p359
aF0.014379772163033308
aa(lp360
Vindex_02_r
p361
aF0.73615229301957641
aa(lp362
Vindex_03_r
p363
aF0.24640247186124939
aa(lp364
Vthumb_02_r
p365
aF0.001507594073790787
aaa(lp366
I44
a(lp367
Vindex_01_r
p368
aF0.009189383623925837
aa(lp369
Vindex_02_r
p370
aF0.77811373762318159
aa(lp371
Vindex_03_r
p372
aF0.21045618241064298
aa(lp373
Vmiddle_01_r
p374
aF0.0010693794254220169
aa(lp375
Vmiddle_02_r
p376
aF0.00117131691682754
aaa(lp377
I45
a(lp378
Vindex_01_r
p379
aF0.035742810847695504
aa(lp380
Vindex_02_r
p381
aF0.79530743160567818
aa(lp382
Vindex_03_r
p383
aF0.15850148625396973
aa(lp384
Vmiddle_01_r
p385
aF0.0048916251942683481
aa(lp386
Vmiddle_02_r
p387
aF0.0055566460983882916
aaa(lp388
I46
a(lp389
Vhand_r
p390
aF0.0042360076860483908
aa(lp391
Vindex_01_r
p392
aF0.46700894293790512
aa(lp393
Vindex_02_r
p394
aF0.52545352735286222
aa(lp395
Vthumb_02_r
p396
aF0.0016507610115921588
aa(lp397
Vthumb_03_r
p398
aF0.0016507610115921588
aaa(lp399
I47
a(lp400
Vhand_r
p401
aF0.0036570028566976351
aa(lp402
Vindex_01_r
p403
aF0.15817970580259788
aa(lp404
Vindex_02_r
p405
aF0.83011894456454949
aa(lp406
Vindex_03_r
p407
aF0.0064686064547055614
aa(lp408
Vthumb_02_r
p409
aF0.0015757403214494495
aaa(lp410
I48
a(lp411
Vhand_r
p412
aF0.0032598780810536806
aa(lp413
Vindex_01_r
p414
aF0.06254322232093662
aa(lp415
Vindex_02_r
p416
aF0.89816478189149906
aa(lp417
Vindex_03_r
p418
aF0.033485373717482544
aa(lp419
Vthumb_02_r
p420
aF0.0025467439890281768
aaa(lp421
I49
a(lp422
Vhand_r
p423
aF0.003595892125136333
aa(lp424
Vindex_01_r
p425
aF0.24476623953334875
aa(lp426
Vindex_02_r
p427
aF0.74571259984210081
aa(lp428
Vindex_03_r
p429
aF0.003863861612018404
aa(lp430
Vthumb_02_r
p431
aF0.0020614068873957849
aaa(lp432
I50
a(lp433
Vindex_02_r
p434
aF0.50325460416645773
aa(lp435
Vindex_03_r
p436
aF0.49610785915286054
aaa(lp437
I51
a(lp438
Vindex_02_r
p439
aF0.62597863781936136
aa(lp440
Vindex_03_r
p441
aF0.37367984530080595
aaa(lp442
I52
a(lp443
Vindex_02_r
p444
aF0.50452079724677834
aa(lp445
Vindex_03_r
p446
aF0.49532311717909611
aaa(lp447
I53
a(lp448
Vindex_02_r
p449
aF0.49985550378437676
aa(lp450
Vindex_03_r
p451
aF0.49985550378437676
aaa(lp452
I54
a(lp453
Vindex_01_r
p454
aF0.036349268284165862
aa(lp455
Vindex_02_r
p456
aF0.93953133351103812
aa(lp457
Vindex_03_r
p458
aF0.020022725141097947
aa(lp459
Vmiddle_01_r
p460
aF0.002015848425513788
aa(lp461
Vmiddle_02_r
p462
aF0.0020808246381842505
aaa(lp463
I55
a(lp464
Vhand_r
p465
aF0.0023997134679566664
aa(lp466
Vindex_01_r
p467
aF0.11534476982118949
aa(lp468
Vindex_02_r
p469
aF0.87632628646927324
aa(lp470
Vindex_03_r
p471
aF0.0041489599370587698
aa(lp472
Vmiddle_01_r
p473
aF0.0017802703045218732
aaa(lp474
I56
a(lp475
Vhand_r
p476
aF0.0025082817453624417
aa(lp477
Vindex_01_r
p478
aF0.44913301190955135
aa(lp479
Vindex_02_r
p480
aF0.54609339381283029
aa(lp481
Vmiddle_01_r
p482
aF0.001191096272903931
aa(lp483
Vmiddle_02_r
p484
aF0.0010742162593519533
aaa(lp485
I57
a(lp486
Vhand_r
p487
aF0.0024028143635436714
aa(lp488
Vindex_01_r
p489
aF0.19456385098989298
aa(lp490
Vindex_02_r
p491
aF0.7992948085476409
aa(lp492
Vindex_03_r
p493
aF0.0024797721673637269
aa(lp494
Vmiddle_01_r
p495
aF0.001258753931558702
aaa(lp496
I58
a(lp497
Vhand_r
p498
aF0.0014174420538296093
aa(lp499
Vindex_01_r
p500
aF0.72619021376418358
aa(lp501
Vindex_02_r
p502
aF0.2718083371609924
aaa(lp503
I59
a(lp504
Vhand_r
p505
aF0.0042297236796431433
aa(lp506
Vindex_01_r
p507
aF0.61721545598002892
aa(lp508
Vindex_02_r
p509
aF0.37723434951108159
aaa(lp510
I60
a(lp511
Vhand_r
p512
aF0.0035010658751566301
aa(lp513
Vindex_01_r
p514
aF0.60168666788149772
aa(lp515
Vindex_02_r
p516
aF0.39366423437729409
aaa(lp517
I61
a(lp518
Vindex_01_r
p519
aF0.7569467193900894
aa(lp520
Vindex_02_r
p521
aF0.24224722387803591
aaa(lp522
I62
a(lp523
Vhand_r
p524
aF0.0016997974638688525
aa(lp525
Vindex_01_r
p526
aF0.33375313046196448
aa(lp527
Vindex_02_r
p528
aF0.66338419466903509
aaa(lp529
I63
a(lp530
Vhand_r
p531
aF0.0027213030197056113
aa(lp532
Vindex_01_r
p533
aF0.048183763377387577
aa(lp534
Vindex_02_r
p535
aF0.91792046359229817
aa(lp536
Vindex_03_r
p537
aF0.029303107599866856
aa(lp538
Vmiddle_02_r
p539
aF0.0018713624107417905
aaa(lp540
I64
a(lp541
Vhand_r
p542
aF0.0013635923110937764
aa(lp543
Vindex_01_r
p544
aF0.49822882233577931
aa(lp545
Vindex_02_r
p546
aF0.49985345454876617
aaa(lp547
I65
a(lp548
Vhand_r
p549
aF0.0014950692534645912
aa(lp550
Vindex_01_r
p551
aF0.035130784376778579
aa(lp552
Vindex_02_r
p553
aF0.94609739509285085
aa(lp554
Vindex_03_r
p555
aF0.016458239389886168
aaa(lp556
I66
a(lp557
Vhand_r
p558
aF0.0012561468141159293
aa(lp559
Vindex_01_r
p560
aF0.0085189703417816454
aa(lp561
Vindex_02_r
p562
aF0.54336184069887528
aa(lp563
Vindex_03_r
p564
aF0.44563892799257537
aa(lp565
Vthumb_02_r
p566
aF0.0012241141526518169
aaa(lp567
I67
a(lp568
Vhand_r
p569
aF0.0017496216858455247
aa(lp570
Vindex_01_r
p571
aF0.010689155162224993
aa(lp572
Vindex_02_r
p573
aF0.51695981630842991
aa(lp574
Vindex_03_r
p575
aF0.46919468778481427
aa(lp576
Vmiddle_02_r
p577
aF0.0014067190586854004
aaa(lp578
I68
a(lp579
Vhand_r
p580
aF0.004084611266184094
aa(lp581
Vindex_01_r
p582
aF0.20973312552301035
aa(lp583
Vindex_02_r
p584
aF0.77814038840558752
aa(lp585
Vindex_03_r
p586
aF0.0056354479218243885
aa(lp587
Vthumb_02_r
p588
aF0.0024064268833937615
aaa(lp589
I69
a(lp590
Vindex_02_r
p591
aF0.81091321702941399
aa(lp592
Vindex_03_r
p593
aF0.18908568491091018
aaa(lp594
I70
a(lp595
Vhand_r
p596
aF0.0024185275790417483
aa(lp597
Vindex_01_r
p598
aF0.14808179423736895
aa(lp599
Vindex_02_r
p600
aF0.84448446695959822
aa(lp601
Vindex_03_r
p602
aF0.0031984666263906725
aa(lp603
Vmiddle_01_r
p604
aF0.0018167445976004263
aaa(lp605
I71
a(lp606
Vindex_01_r
p607
aF0.96879696404129245
aa(lp608
Vindex_02_r
p609
aF0.031135466463611303
aaa(lp610
I72
a(lp611
Vhand_r
p612
aF0.0018085812090618727
aa(lp613
Vindex_01_r
p614
aF0.090823570512001212
aa(lp615
Vindex_02_r
p616
aF0.90300357570636869
aa(lp617
Vindex_03_r
p618
aF0.0034922376681987229
aaa(lp619
I73
a(lp620
Vhand_r
p621
aF0.001751499372451296
aa(lp622
Vindex_01_r
p623
aF0.18946783500622982
aa(lp624
Vindex_02_r
p625
aF0.80647385813012529
aa(lp626
Vindex_03_r
p627
aF0.0016994973712278596
aaa(lp628
I74
a(lp629
Vindex_01_r
p630
aF0.0039373665031149007
aa(lp631
Vindex_02_r
p632
aF0.49736293752462973
aa(lp633
Vindex_03_r
p634
aF0.49736293752462973
aaa(lp635
I75
a(lp636
Vindex_01_r
p637
aF0.011474861941699834
aa(lp638
Vindex_02_r
p639
aF0.54006873808600342
aa(lp640
Vindex_03_r
p641
aF0.44447451705833846
aa(lp642
Vmiddle_01_r
p643
aF0.0018741485478257446
aa(lp644
Vmiddle_02_r
p645
aF0.0021077343661325592
aaa(lp646
I76
a(lp647
Vindex_01_r
p648
aF0.0019210692475852506
aa(lp649
Vindex_02_r
p650
aF0.49839607181037981
aa(lp651
Vindex_03_r
p652
aF0.49839607181038004
aaa(lp653
I77
a(lp654
Vindex_01_r
p655
aF0.001775200354104602
aa(lp656
Vindex_02_r
p657
aF0.49866633812042466
aa(lp658
Vindex_03_r
p659
aF0.49866633812042466
aaa(lp660
I78
a(lp661
Vhand_r
p662
aF0.0031429585084887185
aa(lp663
Vindex_01_r
p664
aF0.54466173561876829
aa(lp665
Vindex_02_r
p666
aF0.45024618219324003
aa(lp667
Vmiddle_01_r
p668
aF0.0010862810936324266
aaa(lp669
I79
a(lp670
Vhand_r
p671
aF0.0035752709434468317
aa(lp672
Vindex_01_r
p673
aF0.50880351899435527
aa(lp674
Vindex_02_r
p675
aF0.48615395643656567
aaa(lp676
I80
a(lp677
Vhand_r
p678
aF0.005629542828325446
aa(lp679
Vindex_01_r
p680
aF0.50730723757509599
aa(lp681
Vindex_02_r
p682
aF0.48407171848956693
aa(lp683
Vthumb_02_r
p684
aF0.0014966470390231708
aa(lp685
Vthumb_03_r
p686
aF0.0014948540679885836
aaa(lp687
I81
a(lp688
Vhand_r
p689
aF0.0020001517627461296
aa(lp690
Vindex_01_r
p691
aF0.56918118371440185
aa(lp692
Vindex_02_r
p693
aF0.4282186651467656
aaa(lp694
I82
a(lp695
Vindex_01_r
p696
aF0.0014788087185628827
aa(lp697
Vindex_02_r
p698
aF0.49902106549752251
aa(lp699
Vindex_03_r
p700
aF0.49902106549752273
aaa(lp701
I83
a(lp702
Vindex_01_r
p703
aF0.0012970469400167854
aa(lp704
Vindex_02_r
p705
aF0.51842659175351036
aa(lp706
Vindex_03_r
p707
aF0.47984789700184205
aaa(lp708
I84
a(lp709
Vindex_02_r
p710
aF0.49956649663978547
aa(lp711
Vindex_03_r
p712
aF0.49956649663978547
aaa(lp713
I85
a(lp714
Vindex_02_r
p715
aF0.49949630577138682
aa(lp716
Vindex_03_r
p717
aF0.49949630577138704
aaa(lp718
I86
a(lp719
Vhand_r
p720
aF0.0023229161505374345
aa(lp721
Vindex_01_r
p722
aF0.022831084335402752
aa(lp723
Vindex_02_r
p724
aF0.78095887358757232
aa(lp725
Vindex_03_r
p726
aF0.19175864856515645
aa(lp727
Vthumb_02_r
p728
aF0.0021284773613310269
aaa(lp729
I87
a(lp730
Vindex_01_r
p731
aF0.0080072861048768457
aa(lp732
Vindex_02_r
p733
aF0.76080634187996277
aa(lp734
Vindex_03_r
p735
aF0.22965427773479336
aaa(lp736
I88
a(lp737
Vindex_01_r
p738
aF0.01321678895002909
aa(lp739
Vindex_02_r
p740
aF0.83471936000743008
aa(lp741
Vindex_03_r
p742
aF0.14806981656717491
aa(lp743
Vmiddle_01_r
p744
aF0.0018388007312827989
aa(lp745
Vmiddle_02_r
p746
aF0.0021552337440831721
aaa(lp747
I89
a(lp748
Vhand_r
p749
aF0.0047046326425276962
aa(lp750
Vindex_01_r
p751
aF0.046018990890647815
aa(lp752
Vindex_02_r
p753
aF0.79040440804472123
aa(lp754
Vindex_03_r
p755
aF0.15470473013237537
aa(lp756
Vmiddle_02_r
p757
aF0.0041672382897277793
aaa.