(lp1
(lp2
I0
a(lp3
Vhand_r
p4
aF0.53695627046214778
aa(lp5
Vindex_01_r
p6
aF0.39995566752361633
aa(lp7
Vindex_02_r
p8
aF0.0072549443529763913
aa(lp9
Vthumb_01_r
p10
aF0.027463434674347177
aa(lp11
Vthumb_02_r
p12
aF0.028369682986912417
aaa(lp13
I1
a(lp14
Vhand_r
p15
aF0.48482117871746871
aa(lp16
Vindex_01_r
p17
aF0.47958664120965605
aa(lp18
Vindex_02_r
p19
aF0.010909356588625694
aa(lp20
Vthumb_01_r
p21
aF0.012295122337433894
aa(lp22
Vthumb_02_r
p23
aF0.012387701146815696
aaa(lp24
I2
a(lp25
Vhand_r
p26
aF0.093754188918256237
aa(lp27
Vindex_01_r
p28
aF0.6927132879110538
aa(lp29
Vindex_02_r
p30
aF0.1937349802526695
aa(lp31
Vthumb_02_r
p32
aF0.011102608896131272
aa(lp33
Vthumb_03_r
p34
aF0.0086949340218891082
aaa(lp35
I3
a(lp36
Vhand_r
p37
aF0.087978938192116413
aa(lp38
Vindex_01_r
p39
aF0.68616426378505346
aa(lp40
Vindex_02_r
p41
aF0.21518864060112886
aa(lp42
Vmiddle_01_r
p43
aF0.005326280686976291
aa(lp44
Vthumb_02_r
p45
aF0.0053418767347250566
aaa(lp46
I4
a(lp47
Vhand_r
p48
aF0.10728386363598401
aa(lp49
Vindex_01_r
p50
aF0.71900825417101943
aa(lp51
Vindex_02_r
p52
aF0.14863371982146609
aa(lp53
Vmiddle_01_r
p54
aF0.015612937218042426
aa(lp55
Vmiddle_02_r
p56
aF0.0094612251534880714
aaa(lp57
I5
a(lp58
Vhand_r
p59
aF0.099768698568908062
aa(lp60
Vindex_01_r
p61
aF0.69889320806012134
aa(lp62
Vindex_02_r
p63
aF0.16544147180646018
aa(lp64
Vmiddle_01_r
p65
aF0.022028910731082308
aa(lp66
Vmiddle_02_r
p67
aF0.013867710833428179
aaa(lp68
I6
a(lp69
Vhand_r
p70
aF0.67832887986772561
aa(lp71
Vindex_01_r
p72
aF0.30450499914588219
aa(lp73
Vindex_02_r
p74
aF0.0025197854162192913
aa(lp75
Vmiddle_01_r
p76
aF0.012428572352755934
aa(lp77
Vthumb_01_r
p78
aF0.002217763217417049
aaa(lp79
I7
a(lp80
Vhand_r
p81
aF0.49576465589473201
aa(lp82
Vindex_01_r
p83
aF0.45478524561117173
aa(lp84
Vindex_02_r
p85
aF0.005148495953344232
aa(lp86
Vmiddle_01_r
p87
aF0.039820692711903007
aa(lp88
Vmiddle_02_r
p89
aF0.0044809098288489339
aaa(lp90
I8
a(lp91
Vhand_r
p92
aF0.015929189268114447
aa(lp93
Vindex_01_r
p94
aF0.6228242869496734
aa(lp95
Vindex_02_r
p96
aF0.35716336070577431
aa(lp97
Vthumb_02_r
p98
aF0.0021376321222228312
aa(lp99
Vthumb_03_r
p100
aF0.0019455309542150611
aaa(lp101
I9
a(lp102
Vhand_r
p103
aF0.014118594186826721
aa(lp104
Vindex_01_r
p105
aF0.60869373832711593
aa(lp106
Vindex_02_r
p107
aF0.37458426636081371
aa(lp108
Vmiddle_01_r
p109
aF0.0013862811487008022
aa(lp110
Vthumb_02_r
p111
aF0.0012171199765428425
aaa(lp112
I10
a(lp113
Vhand_r
p114
aF0.018478675125399011
aa(lp115
Vindex_01_r
p116
aF0.63917194913968545
aa(lp117
Vindex_02_r
p118
aF0.33388980059376122
aa(lp119
Vmiddle_01_r
p120
aF0.0046709418161296427
aa(lp121
Vmiddle_02_r
p122
aF0.003788633325024784
aaa(lp123
I11
a(lp124
Vhand_r
p125
aF0.020579245573309379
aa(lp126
Vindex_01_r
p127
aF0.65581202072628042
aa(lp128
Vindex_02_r
p129
aF0.31644457429100686
aa(lp130
Vmiddle_01_r
p131
aF0.0040125736306748381
aa(lp132
Vmiddle_02_r
p133
aF0.0031515857787284851
aaa(lp134
I12
a(lp135
Vhand_r
p136
aF0.98516040863717014
aa(lp137
Vindex_01_r
p138
aF0.013866323958274225
aaa(lp139
I13
a(lp140
Vhand_r
p141
aF0.76488751406068656
aa(lp142
Vindex_01_r
p143
aF0.21678303608101818
aa(lp144
Vmiddle_01_r
p145
aF0.013998130838689829
aa(lp146
Vthumb_01_r
p147
aF0.0024201986946326345
aa(lp148
Vthumb_02_r
p149
aF0.0019111203249728638
aaa(lp150
I14
a(lp151
Vhand_r
p152
aF0.64735377250221371
aa(lp153
Vindex_01_r
p154
aF0.32322747755682896
aa(lp155
Vmiddle_01_r
p156
aF0.0071900915040884134
aa(lp157
Vthumb_01_r
p158
aF0.011498271698940739
aa(lp159
Vthumb_02_r
p160
aF0.010730386737928079
aaa(lp161
I15
a(lp162
Vhand_r
p163
aF0.82750420312340178
aa(lp164
Vindex_01_r
p165
aF0.14818126140543983
aa(lp166
Vmiddle_01_r
p167
aF0.0025168389995725436
aa(lp168
Vthumb_01_r
p169
aF0.011258341401270407
aa(lp170
Vthumb_02_r
p171
aF0.010539355070315401
aaa(lp172
I16
a(lp173
Vhand_r
p174
aF0.0080921062786831789
aa(lp175
Vindex_01_r
p176
aF0.89992215740856729
aa(lp177
Vindex_02_r
p178
aF0.091072848032496198
aaa(lp179
I17
a(lp180
Vhand_r
p181
aF0.0079368873081316245
aa(lp182
Vindex_01_r
p183
aF0.88972404912123049
aa(lp184
Vindex_02_r
p185
aF0.10148122241458889
aaa(lp186
I18
a(lp187
Vhand_r
p188
aF0.0082921825818743113
aa(lp189
Vindex_01_r
p190
aF0.91100639091160718
aa(lp191
Vindex_02_r
p192
aF0.079092168469998975
aaa(lp193
I19
a(lp194
Vhand_r
p195
aF0.0082848572074658913
aa(lp196
Vindex_01_r
p197
aF0.9207368599324639
aa(lp198
Vindex_02_r
p199
aF0.069636974948706146
aaa(lp200
I20
a(lp201
Vhand_r
p202
aF0.6613410602106875
aa(lp203
Vindex_01_r
p204
aF0.32261082568221561
aa(lp205
Vmiddle_01_r
p206
aF0.0045617505924426642
aa(lp207
Vthumb_01_r
p208
aF0.0058127004823915829
aa(lp209
Vthumb_02_r
p210
aF0.0056736630322626221
aaa(lp211
I21
a(lp212
Vhand_r
p213
aF0.091573227887750894
aa(lp214
Vindex_01_r
p215
aF0.74294591874481075
aa(lp216
Vindex_02_r
p217
aF0.15493191995396835
aa(lp218
Vmiddle_01_r
p219
aF0.0060765593158804265
aa(lp220
Vthumb_02_r
p221
aF0.0044723740975893978
aaa(lp222
I22
a(lp223
Vhand_r
p224
aF0.027008748303542735
aa(lp225
Vindex_01_r
p226
aF0.60835257696100675
aa(lp227
Vindex_02_r
p228
aF0.35979158026798669
aa(lp229
Vmiddle_01_r
p230
aF0.0024805909752850159
aa(lp231
Vthumb_02_r
p232
aF0.0023665034921788726
aaa(lp233
I23
a(lp234
Vhand_r
p235
aF0.011904708251440049
aa(lp236
Vindex_01_r
p237
aF0.62466024864475134
aa(lp238
Vindex_02_r
p239
aF0.3604798621446002
aa(lp240
Vthumb_02_r
p241
aF0.0015314175920936304
aa(lp242
Vthumb_03_r
p243
aF0.0014237633671148268
aaa(lp244
I24
a(lp245
Vhand_r
p246
aF0.030048349796931596
aa(lp247
Vindex_01_r
p248
aF0.62122298129935882
aa(lp249
Vindex_02_r
p250
aF0.3401337559066131
aa(lp251
Vthumb_02_r
p252
aF0.0045286621317183456
aa(lp253
Vthumb_03_r
p254
aF0.0040662508653782105
aaa(lp255
I25
a(lp256
Vhand_r
p257
aF0.034206699306200287
aa(lp258
Vindex_01_r
p259
aF0.63510655064031796
aa(lp260
Vindex_02_r
p261
aF0.31359108734285179
aa(lp262
Vmiddle_01_r
p263
aF0.009535737192484026
aa(lp264
Vmiddle_02_r
p265
aF0.0075599255181460073
aaa(lp266
I26
a(lp267
Vhand_r
p268
aF0.013353364912314685
aa(lp269
Vindex_01_r
p270
aF0.63778740463241956
aa(lp271
Vindex_02_r
p272
aF0.34548686175731058
aa(lp273
Vmiddle_01_r
p274
aF0.0019277482730826077
aa(lp275
Vmiddle_02_r
p276
aF0.0014446204248726958
aaa(lp277
I27
a(lp278
Vhand_r
p279
aF0.03784321888786607
aa(lp280
Vindex_01_r
p281
aF0.6533226434076419
aa(lp282
Vindex_02_r
p283
aF0.29530063276501956
aa(lp284
Vmiddle_01_r
p285
aF0.0076746329981268744
aa(lp286
Vmiddle_02_r
p287
aF0.0058588719413454841
aaa(lp288
I28
a(lp289
Vhand_r
p290
aF0.01720893154948739
aa(lp291
Vindex_01_r
p292
aF0.6702650216293381
aa(lp293
Vindex_02_r
p294
aF0.30384351705400509
aa(lp295
Vmiddle_01_r
p296
aF0.0047747850185580736
aa(lp297
Vmiddle_02_r
p298
aF0.0039077447486111153
aaa(lp299
I29
a(lp300
Vhand_r
p301
aF0.015665462757682116
aa(lp302
Vindex_01_r
p303
aF0.66019038403659092
aa(lp304
Vindex_02_r
p305
aF0.32113967751062134
aa(lp306
Vmiddle_01_r
p307
aF0.0017501490500063841
aa(lp308
Vmiddle_02_r
p309
aF0.0012543266450993197
aaa(lp310
I30
a(lp311
Vhand_r
p312
aF0.61851319352741962
aa(lp313
Vindex_01_r
p314
aF0.32787345506135351
aa(lp315
Vmiddle_01_r
p316
aF0.045252719776956628
aa(lp317
Vmiddle_02_r
p318
aF0.0042792734910455654
aa(lp319
Vthumb_01_r
p320
aF0.0040813581432247188
aaa(lp321
I31
a(lp322
Vhand_r
p323
aF0.90228201137874398
aa(lp324
Vindex_01_r
p325
aF0.088092660420025476
aa(lp326
Vmiddle_01_r
p327
aF0.006502907260227917
aa(lp328
Vthumb_01_r
p329
aF0.0017523477860700684
aa(lp330
Vthumb_02_r
p331
aF0.0013700731549325569
aaa(lp332
I32
a(lp333
Vhand_r
p334
aF0.54587281357058959
aa(lp335
Vindex_01_r
p336
aF0.403218743670539
aa(lp337
Vmiddle_01_r
p338
aF0.011203235072355341
aa(lp339
Vthumb_01_r
p340
aF0.020150153815142607
aa(lp341
Vthumb_02_r
p342
aF0.019555053871373355
aaa(lp343
I33
a(lp344
Vhand_r
p345
aF0.67853428027067519
aa(lp346
Vindex_01_r
p347
aF0.24157521747266353
aa(lp348
Vmiddle_01_r
p349
aF0.004913789418803962
aa(lp350
Vthumb_01_r
p351
aF0.037815585248201507
aa(lp352
Vthumb_02_r
p353
aF0.037161127589655847
aaa(lp354
I34
a(lp355
Vhand_r
p356
aF0.014545493648724584
aa(lp357
Vindex_01_r
p358
aF0.71267496468699199
aa(lp359
Vindex_02_r
p360
aF0.2706200594794187
aa(lp361
Vmiddle_01_r
p362
aF0.0011976396469340596
aaa(lp363
I35
a(lp364
Vhand_r
p365
aF0.015909638545149922
aa(lp366
Vindex_01_r
p367
aF0.72834200866142651
aa(lp368
Vindex_02_r
p369
aF0.25285280964119455
aa(lp370
Vthumb_02_r
p371
aF0.0015472104452294796
aa(lp372
Vthumb_03_r
p373
aF0.0013483327069994998
aaa(lp374
I36
a(lp375
Vhand_r
p376
aF0.01776635303142143
aa(lp377
Vindex_01_r
p378
aF0.74587167444392122
aa(lp379
Vindex_02_r
p380
aF0.23045342013775222
aa(lp381
Vmiddle_01_r
p382
aF0.0033762621753324483
aa(lp383
Vmiddle_02_r
p384
aF0.0025322902115727471
aaa(lp385
I37
a(lp386
Vhand_r
p387
aF0.019161409542138318
aa(lp388
Vindex_01_r
p389
aF0.7626988214886341
aa(lp390
Vindex_02_r
p391
aF0.21317593918272262
aa(lp392
Vmiddle_01_r
p393
aF0.0028723081655506778
aa(lp394
Vmiddle_02_r
p395
aF0.0020915216209542579
aaa(lp396
I38
a(lp397
Vhand_r
p398
aF0.49186064176313443
aa(lp399
Vindex_01_r
p400
aF0.45169102788155036
aa(lp401
Vindex_02_r
p402
aF0.0088533901464334149
aa(lp403
Vthumb_01_r
p404
aF0.023196529943056592
aa(lp405
Vthumb_02_r
p406
aF0.024398410265825142
aaa(lp407
I39
a(lp408
Vhand_r
p409
aF0.35338552282824837
aa(lp410
Vindex_01_r
p411
aF0.58682921810775202
aa(lp412
Vindex_02_r
p413
aF0.043436281982194826
aa(lp414
Vmiddle_01_r
p415
aF0.0078458471945963924
aa(lp416
Vthumb_02_r
p417
aF0.0085031298872085201
aaa(lp418
I40
a(lp419
Vhand_r
p420
aF0.079038562905114504
aa(lp421
Vindex_01_r
p422
aF0.70752049718178989
aa(lp423
Vindex_02_r
p424
aF0.19786885766763598
aa(lp425
Vthumb_02_r
p426
aF0.0085301109985961836
aa(lp427
Vthumb_03_r
p428
aF0.0070419712468635454
aaa(lp429
I41
a(lp430
Vhand_r
p431
aF0.35834049264930562
aa(lp432
Vindex_01_r
p433
aF0.57323724472818061
aa(lp434
Vindex_02_r
p435
aF0.034966052376993906
aa(lp436
Vthumb_01_r
p437
aF0.014478145880989831
aa(lp438
Vthumb_02_r
p439
aF0.018978064364530107
aaa(lp440
I42
a(lp441
Vhand_r
p442
aF0.0071369947828809604
aa(lp443
Vindex_01_r
p444
aF0.92150247183030976
aa(lp445
Vindex_02_r
p446
aF0.070636230847437059
aaa(lp447
I43
a(lp448
Vhand_r
p449
aF0.0071644928404329244
aa(lp450
Vindex_01_r
p451
aF0.92836418856457481
aa(lp452
Vindex_02_r
p453
aF0.063568424632858944
aaa(lp454
I44
a(lp455
Vhand_r
p456
aF0.0068598025642094707
aa(lp457
Vindex_01_r
p458
aF0.94574440729542741
aa(lp459
Vindex_02_r
p460
aF0.046161632953490905
aaa(lp461
I45
a(lp462
Vhand_r
p463
aF0.0069855123641404384
aa(lp464
Vindex_01_r
p465
aF0.93987535649738363
aa(lp466
Vindex_02_r
p467
aF0.052422765963850704
aaa(lp468
I46
a(lp469
Vhand_r
p470
aF0.092994706392825741
aa(lp471
Vindex_01_r
p472
aF0.73492097942959833
aa(lp473
Vindex_02_r
p474
aF0.13412763768964842
aa(lp475
Vmiddle_01_r
p476
aF0.023409843681681038
aa(lp477
Vmiddle_02_r
p478
aF0.014546832806246426
aaa(lp479
I47
a(lp480
Vhand_r
p481
aF0.36450271800311423
aa(lp482
Vindex_01_r
p483
aF0.56683311605192421
aa(lp484
Vindex_02_r
p485
aF0.024289286719169276
aa(lp486
Vmiddle_01_r
p487
aF0.035083119748506301
aa(lp488
Vmiddle_02_r
p489
aF0.0092917594772861049
aaa(lp490
I48
a(lp491
Vhand_r
p492
aF0.58692535046778871
aa(lp493
Vindex_01_r
p494
aF0.37503033052040086
aa(lp495
Vindex_02_r
p496
aF0.002445852659911174
aa(lp497
Vmiddle_01_r
p498
aF0.032932347567325569
aa(lp499
Vmiddle_02_r
p500
aF0.0026661187845736655
aaa(lp501
I49
a(lp502
Vhand_r
p503
aF0.38226869559444115
aa(lp504
Vindex_01_r
p505
aF0.57438660384842199
aa(lp506
Vindex_02_r
p507
aF0.018940977478950984
aa(lp508
Vmiddle_01_r
p509
aF0.019036908385874612
aa(lp510
Vmiddle_02_r
p511
aF0.0053668146923113108
aaa(lp512
I50
a(lp513
Vhand_r
p514
aF0.93986281254824056
aa(lp515
Vindex_01_r
p516
aF0.055200895627902827
aa(lp517
Vmiddle_01_r
p518
aF0.0038440789100529314
aaa(lp519
I51
a(lp520
Vhand_r
p521
aF0.69385543198983479
aa(lp522
Vindex_01_r
p523
aF0.28627861252392756
aa(lp524
Vmiddle_01_r
p525
aF0.010121381014514794
aa(lp526
Vthumb_01_r
p527
aF0.0052515299478818602
aa(lp528
Vthumb_02_r
p529
aF0.0044930445238411309
aaa(lp530
I52
a(lp531
Vhand_r
p532
aF0.72463783909280832
aa(lp533
Vindex_01_r
p534
aF0.23933099383588263
aa(lp535
Vmiddle_01_r
p536
aF0.0042337565027609787
aa(lp537
Vthumb_01_r
p538
aF0.016305918971633637
aa(lp539
Vthumb_02_r
p540
aF0.015491491596914438
aaa(lp541
I53
a(lp542
Vhand_r
p543
aF0.96964436926177233
aa(lp544
Vindex_01_r
p545
aF0.027799570876518385
aa(lp546
Vthumb_01_r
p547
aF0.0010436714536983436
aaa(lp548
I54
a(lp549
Vhand_r
p550
aF0.49126466651546191
aa(lp551
Vindex_01_r
p552
aF0.48389220483846096
aa(lp553
Vindex_02_r
p554
aF0.007052344187010548
aa(lp555
Vmiddle_01_r
p556
aF0.013621968951938035
aa(lp557
Vthumb_01_r
p558
aF0.0041688155071286231
aaa(lp559
I55
a(lp560
Vhand_r
p561
aF0.083751432061036565
aa(lp562
Vindex_01_r
p563
aF0.72266465981496275
aa(lp564
Vindex_02_r
p565
aF0.18065171988392181
aa(lp566
Vmiddle_01_r
p567
aF0.0081729253054617611
aa(lp568
Vmiddle_02_r
p569
aF0.0047592629346172146
aaa(lp570
I56
a(lp571
Vhand_r
p572
aF0.34332148103730542
aa(lp573
Vindex_01_r
p574
aF0.59233553780258241
aa(lp575
Vindex_02_r
p576
aF0.03737740994666628
aa(lp577
Vthumb_01_r
p578
aF0.01148603729105015
aa(lp579
Vthumb_02_r
p580
aF0.015479533922395811
aaa(lp581
I57
a(lp582
Vindex_01_r
p583
aF0.99999956327738704
aaa(lp584
I58
a(lp585
Vhand_r
p586
aF0.36195203784015684
aa(lp587
Vindex_01_r
p588
aF0.57996045683807573
aa(lp589
Vindex_02_r
p590
aF0.015374279591081383
aa(lp591
Vmiddle_01_r
p592
aF0.034860999560626063
aa(lp593
Vmiddle_02_r
p594
aF0.0078522261700599977
aaa(lp595
I59
a(lp596
Vhand_r
p597
aF0.98146701195538855
aa(lp598
Vindex_01_r
p599
aF0.017772791057980349
aaa(lp600
I60
a(lp601
Vhand_r
p602
aF0.35371036556709706
aa(lp603
Vindex_01_r
p604
aF0.59980652024927927
aa(lp605
Vindex_02_r
p606
aF0.030169355268831705
aa(lp607
Vmiddle_01_r
p608
aF0.012252090237353717
aa(lp609
Vmiddle_02_r
p610
aF0.0040616686774382748
aaa(lp611
I61
a(lp612
Vhand_r
p613
aF0.36871748851177588
aa(lp614
Vindex_01_r
p615
aF0.59728731288774084
aa(lp616
Vindex_02_r
p617
aF0.021608902403830756
aa(lp618
Vmiddle_01_r
p619
aF0.0068147575826168283
aa(lp620
Vthumb_02_r
p621
aF0.0055715386140357016
aaa(lp622
I62
a(lp623
Vhand_r
p624
aF0.023170965619322074
aa(lp625
Vindex_01_r
p626
aF0.62504206802778106
aa(lp627
Vindex_02_r
p628
aF0.34545517016197769
aa(lp629
Vthumb_02_r
p630
aF0.0032932004521705315
aa(lp631
Vthumb_03_r
p632
aF0.00303859573874873
aaa(lp633
I63
a(lp634
Vhand_r
p635
aF0.025671357784851825
aa(lp636
Vindex_01_r
p637
aF0.63885077353302389
aa(lp638
Vindex_02_r
p639
aF0.32922407263128622
aa(lp640
Vmiddle_01_r
p641
aF0.0036281144095117322
aa(lp642
Vmiddle_02_r
p643
aF0.0026256816413264051
aaa(lp644
I64
a(lp645
Vhand_r
p646
aF0.032019285773088491
aa(lp647
Vindex_01_r
p648
aF0.66783868069450902
aa(lp649
Vindex_02_r
p650
aF0.28199516491674131
aa(lp651
Vmiddle_01_r
p652
aF0.010084919354807806
aa(lp653
Vmiddle_02_r
p654
aF0.0080619492608533412
aaa(lp655
I65
a(lp656
Vhand_r
p657
aF0.029656058382089651
aa(lp658
Vindex_01_r
p659
aF0.66221274391333773
aa(lp660
Vindex_02_r
p661
aF0.30278661862753126
aa(lp662
Vmiddle_01_r
p663
aF0.0031107167300354695
aa(lp664
Vthumb_02_r
p665
aF0.0022338623470059059
aaa(lp666
I66
a(lp667
Vhand_r
p668
aF0.80160390185608232
aa(lp669
Vindex_01_r
p670
aF0.16843483666113074
aa(lp671
Vmiddle_01_r
p672
aF0.026326566876356008
aa(lp673
Vmiddle_02_r
p674
aF0.0018403467875069061
aa(lp675
Vthumb_01_r
p676
aF0.0017943478189240533
aaa(lp677
I67
a(lp678
Vhand_r
p679
aF0.57237659533655894
aa(lp680
Vindex_01_r
p681
aF0.39497477016348348
aa(lp682
Vmiddle_01_r
p683
aF0.018455656469031228
aa(lp684
Vthumb_01_r
p685
aF0.0075182410040206841
aa(lp686
Vthumb_02_r
p687
aF0.0066747370269057511
aaa(lp688
I68
a(lp689
Vhand_r
p690
aF0.58481943625216481
aa(lp691
Vindex_01_r
p692
aF0.33494774456722948
aa(lp693
Vmiddle_01_r
p694
aF0.0063642442938301839
aa(lp695
Vthumb_01_r
p696
aF0.037034346903756107
aa(lp697
Vthumb_02_r
p698
aF0.036834227983019385
aaa(lp699
I69
a(lp700
Vhand_r
p701
aF0.87556920362799839
aa(lp702
Vindex_01_r
p703
aF0.11122751974788293
aa(lp704
Vmiddle_01_r
p705
aF0.0029674317734601535
aa(lp706
Vthumb_01_r
p707
aF0.0054241259294278031
aa(lp708
Vthumb_02_r
p709
aF0.0048117189212307423
aaa(lp710
I70
a(lp711
Vhand_r
p712
aF0.012310321383963114
aa(lp713
Vindex_01_r
p714
aF0.73462887578307368
aa(lp715
Vindex_02_r
p716
aF0.25087406592864459
aa(lp717
Vthumb_02_r
p718
aF0.0011555727506889829
aa(lp719
Vthumb_03_r
p720
aF0.0010311641536295585
aaa(lp721
I71
a(lp722
Vhand_r
p723
aF0.013384415925823118
aa(lp724
Vindex_01_r
p725
aF0.747860449633034
aa(lp726
Vindex_02_r
p727
aF0.2361002477330032
aa(lp728
Vmiddle_01_r
p729
aF0.0015616956377172535
aa(lp730
Vmiddle_02_r
p731
aF0.001093191070422478
aaa(lp732
I72
a(lp733
Vhand_r
p734
aF0.015968529581458977
aa(lp735
Vindex_01_r
p736
aF0.7810614409679103
aa(lp737
Vindex_02_r
p738
aF0.19727348813722234
aa(lp739
Vmiddle_01_r
p740
aF0.0032464647250709032
aa(lp741
Vmiddle_02_r
p742
aF0.0024500765883374606
aaa(lp743
I73
a(lp744
Vhand_r
p745
aF0.014951241910662197
aa(lp746
Vindex_01_r
p747
aF0.77035290411805946
aa(lp748
Vindex_02_r
p749
aF0.21241042630341353
aa(lp750
Vmiddle_01_r
p751
aF0.0013669806339150889
aaa.