(lp1
(lp2
I0
a(lp3
Vhand_l
p4
aF0.003476484747176605
aa(lp5
Vindex_01_l
p6
aF0.4965572497200107
aa(lp7
Vindex_02_l
p8
aF0.4978357704515905
aa(lp9
Vthumb_02_l
p10
aF0.00106532230519843
aa(lp11
Vthumb_03_l
p12
aF0.0010651727760238522
aaa(lp13
I1
a(lp14
Vhand_l
p15
aF0.0013211128055603504
aa(lp16
Vindex_01_l
p17
aF0.37957765366657464
aa(lp18
Vindex_02_l
p19
aF0.61836635043354715
aaa(lp20
I2
a(lp21
Vindex_01_l
p22
aF0.0042121298451454582
aa(lp23
Vindex_02_l
p24
aF0.49744433396733323
aa(lp25
Vindex_03_l
p26
aF0.49701109003100136
aaa(lp27
I3
a(lp28
Vhand_l
p29
aF0.0026030948704830557
aa(lp30
Vindex_01_l
p31
aF0.019810439641114543
aa(lp32
Vindex_02_l
p33
aF0.65041720159110084
aa(lp34
Vindex_03_l
p35
aF0.32538196157062793
aa(lp36
Vmiddle_02_l
p37
aF0.0017873023266736314
aaa(lp38
I4
a(lp39
Vindex_01_l
p40
aF0.0047211827379479267
aa(lp41
Vindex_02_l
p42
aF0.49650740429355333
aa(lp43
Vindex_03_l
p44
aF0.49648744842481374
aa(lp45
Vmiddle_02_l
p46
aF0.0012017498417275542
aa(lp47
Vmiddle_03_l
p48
aF0.0010822147019573394
aaa(lp49
I5
a(lp50
Vindex_01_l
p51
aF0.021313801802778753
aa(lp52
Vindex_02_l
p53
aF0.63087120227875737
aa(lp54
Vindex_03_l
p55
aF0.33790698978274697
aa(lp56
Vmiddle_02_l
p57
aF0.0053730339096716958
aa(lp58
Vmiddle_03_l
p59
aF0.0045349722260451218
aaa(lp60
I6
a(lp61
Vhand_l
p62
aF0.0060970850994418423
aa(lp63
Vindex_01_l
p64
aF0.49353524317642239
aa(lp65
Vindex_02_l
p66
aF0.4956421078179809
aa(lp67
Vmiddle_01_l
p68
aF0.0025243416263395499
aa(lp69
Vmiddle_02_l
p70
aF0.0022012222798152904
aaa(lp71
I7
a(lp72
Vhand_l
p73
aF0.0028468734622948463
aa(lp74
Vindex_01_l
p75
aF0.40649923162235096
aa(lp76
Vindex_02_l
p77
aF0.58772630550250859
aa(lp78
Vmiddle_01_l
p79
aF0.0015126241392605566
aa(lp80
Vmiddle_02_l
p81
aF0.0014149652735850171
aaa(lp82
I8
a(lp83
Vindex_01_l
p84
aF0.0017434680072669041
aa(lp85
Vindex_02_l
p86
aF0.4988152581698444
aa(lp87
Vindex_03_l
p88
aF0.4988152581698444
aaa(lp89
I9
a(lp90
Vindex_01_l
p91
aF0.0019976484556044716
aa(lp92
Vindex_02_l
p93
aF0.50037652741573913
aa(lp94
Vindex_03_l
p95
aF0.49702264510218164
aaa(lp96
I10
a(lp97
Vindex_01_l
p98
aF0.002330608124900168
aa(lp99
Vindex_02_l
p100
aF0.49897695960539501
aa(lp101
Vindex_03_l
p102
aF0.4973932276136902
aaa(lp103
I11
a(lp104
Vindex_01_l
p105
aF0.0019787242715095842
aa(lp106
Vindex_02_l
p107
aF0.49843413457559466
aa(lp108
Vindex_03_l
p109
aF0.49843413457559455
aaa(lp110
I12
a(lp111
Vhand_l
p112
aF0.0035979552001151336
aa(lp113
Vindex_01_l
p114
aF0.63562764297268293
aa(lp115
Vindex_02_l
p116
aF0.35925542199156013
aaa(lp117
I13
a(lp118
Vhand_l
p119
aF0.0025984567451950488
aa(lp120
Vindex_01_l
p121
aF0.64195925450420732
aa(lp122
Vindex_02_l
p123
aF0.35416849942668643
aaa(lp124
I14
a(lp125
Vhand_l
p126
aF0.0011930577284717434
aa(lp127
Vindex_01_l
p128
aF0.65469283675697754
aa(lp129
Vindex_02_l
p130
aF0.34380760524588022
aaa(lp131
I15
a(lp132
Vhand_l
p133
aF0.0018925619757787415
aa(lp134
Vindex_01_l
p135
aF0.64154966324490115
aa(lp136
Vindex_02_l
p137
aF0.35601157458500998
aaa(lp138
I16
a(lp139
Vindex_02_l
p140
aF0.49970967494381541
aa(lp141
Vindex_03_l
p142
aF0.49970967494381541
aaa(lp143
I17
a(lp144
Vindex_02_l
p145
aF0.58752528153399575
aa(lp146
Vindex_03_l
p147
aF0.41225146168146576
aaa(lp148
I18
a(lp149
Vindex_02_l
p150
aF0.56468536404255054
aa(lp151
Vindex_03_l
p152
aF0.43495184638956158
aaa(lp153
I19
a(lp154
Vindex_02_l
p155
aF0.49961635457977294
aa(lp156
Vindex_03_l
p157
aF0.49961635457977283
aaa(lp158
I20
a(lp159
Vhand_l
p160
aF0.0019711847982733684
aa(lp161
Vindex_01_l
p162
aF0.040672258133885024
aa(lp163
Vindex_02_l
p164
aF0.93606439787404361
aa(lp165
Vindex_03_l
p166
aF0.020277401681053842
aa(lp167
Vthumb_02_l
p168
aF0.00101475751274421
aaa(lp169
I21
a(lp170
Vhand_l
p171
aF0.0028808494709796116
aa(lp172
Vindex_01_l
p173
aF0.062490713727601996
aa(lp174
Vindex_02_l
p175
aF0.90524767089770242
aa(lp176
Vindex_03_l
p177
aF0.027311779959468773
aa(lp178
Vthumb_02_l
p179
aF0.0020689859442472708
aaa(lp180
I22
a(lp181
Vhand_l
p182
aF0.0038692758830306106
aa(lp183
Vindex_01_l
p184
aF0.073803865221102202
aa(lp185
Vindex_02_l
p186
aF0.8837700288891519
aa(lp187
Vindex_03_l
p188
aF0.034897337869260581
aa(lp189
Vmiddle_02_l
p190
aF0.0036594921374545936
aaa(lp191
I23
a(lp192
Vindex_01_l
p193
aF0.05158566924048099
aa(lp194
Vindex_02_l
p195
aF0.9141826425285946
aa(lp196
Vindex_03_l
p197
aF0.027788586440991244
aa(lp198
Vmiddle_01_l
p199
aF0.0031595307662159373
aa(lp200
Vmiddle_02_l
p201
aF0.003283571023717275
aaa(lp202
I24
a(lp203
Vindex_01_l
p204
aF0.0013236499360146988
aa(lp205
Vindex_02_l
p206
aF0.49912186990105056
aa(lp207
Vindex_03_l
p208
aF0.49912186990105056
aaa(lp209
I25
a(lp210
Vindex_01_l
p211
aF0.0025972730303559306
aa(lp212
Vindex_02_l
p213
aF0.49823248118547875
aa(lp214
Vindex_03_l
p215
aF0.49823248118547897
aaa(lp216
I26
a(lp217
Vhand_l
p218
aF0.003436664310256726
aa(lp219
Vindex_01_l
p220
aF0.026263413088228865
aa(lp221
Vindex_02_l
p222
aF0.67357562922005709
aa(lp223
Vindex_03_l
p224
aF0.2931896325019282
aa(lp225
Vmiddle_02_l
p226
aF0.0035346608795291403
aaa(lp227
I27
a(lp228
Vindex_01_l
p229
aF0.0074555700587472162
aa(lp230
Vindex_02_l
p231
aF0.52737811483025288
aa(lp232
Vindex_03_l
p233
aF0.46096738586568542
aa(lp234
Vmiddle_02_l
p235
aF0.0021941440493665749
aa(lp236
Vmiddle_03_l
p237
aF0.0020047851959479044
aaa(lp238
I28
a(lp239
Vindex_01_l
p240
aF0.0018919850776738811
aa(lp241
Vindex_02_l
p242
aF0.5113253610185603
aa(lp243
Vindex_03_l
p244
aF0.48611890696277954
aaa(lp245
I29
a(lp246
Vindex_01_l
p247
aF0.0068671771394622477
aa(lp248
Vindex_02_l
p249
aF0.55278946837072673
aa(lp250
Vindex_03_l
p251
aF0.43643639601370632
aa(lp252
Vmiddle_02_l
p253
aF0.0020607983307209441
aa(lp254
Vmiddle_03_l
p255
aF0.0018461601453837761
aaa(lp256
I30
a(lp257
Vindex_01_l
p258
aF0.0029207656454881417
aa(lp259
Vindex_02_l
p260
aF0.49767730869470256
aa(lp261
Vindex_03_l
p262
aF0.49767730869470256
aaa(lp263
I31
a(lp264
Vindex_01_l
p265
aF0.0016514913646121559
aa(lp266
Vindex_02_l
p267
aF0.49863196766111706
aa(lp268
Vindex_03_l
p269
aF0.49863196766111706
aaa(lp270
I32
a(lp271
Vindex_01_l
p272
aF0.0035811091158782604
aa(lp273
Vindex_02_l
p274
aF0.49759729507542216
aa(lp275
Vindex_03_l
p276
aF0.49759729507542205
aaa(lp277
I33
a(lp278
Vindex_01_l
p279
aF0.0016336457206768385
aa(lp280
Vindex_02_l
p281
aF0.49884045833836177
aa(lp282
Vindex_03_l
p283
aF0.49884045833836177
aaa(lp284
I34
a(lp285
Vhand_l
p286
aF0.0044497104766819699
aa(lp287
Vindex_01_l
p288
aF0.52569148283993705
aa(lp289
Vindex_02_l
p290
aF0.46669159488927309
aa(lp291
Vmiddle_01_l
p292
aF0.0017280155514878856
aa(lp293
Vmiddle_02_l
p294
aF0.0014391962426201113
aaa(lp295
I35
a(lp296
Vhand_l
p297
aF0.0082419273750143976
aa(lp298
Vindex_01_l
p299
aF0.54158211331247352
aa(lp300
Vindex_02_l
p301
aF0.44559120838543859
aa(lp302
Vmiddle_01_l
p303
aF0.002586077217610424
aa(lp304
Vmiddle_02_l
p305
aF0.0019986737094631682
aaa(lp306
I36
a(lp307
Vhand_l
p308
aF0.0020956564589627836
aa(lp309
Vindex_01_l
p310
aF0.51723285875743386
aa(lp311
Vindex_02_l
p312
aF0.48001016334666841
aaa(lp313
I37
a(lp314
Vhand_l
p315
aF0.0048129252033149265
aa(lp316
Vindex_01_l
p317
aF0.53337579255142642
aa(lp318
Vindex_02_l
p319
aF0.45975753654385154
aa(lp320
Vthumb_02_l
p321
aF0.0010356953818044358
aa(lp322
Vthumb_03_l
p323
aF0.0010180503196026537
aaa(lp324
I38
a(lp325
Vindex_02_l
p326
aF0.51289467514565001
aa(lp327
Vindex_03_l
p328
aF0.48596957005664315
aaa(lp329
I39
a(lp330
Vindex_01_l
p331
aF0.0012089113380572025
aa(lp332
Vindex_02_l
p333
aF0.49919423373355737
aa(lp334
Vindex_03_l
p335
aF0.49919423373355726
aaa(lp336
I40
a(lp337
Vindex_01_l
p338
aF0.0011123788636785371
aa(lp339
Vindex_02_l
p340
aF0.50856246741222644
aa(lp341
Vindex_03_l
p342
aF0.48979832541680945
aaa(lp343
I41
a(lp344
Vindex_01_l
p345
aF0.0014034724175531611
aa(lp346
Vindex_02_l
p347
aF0.49894113539429819
aa(lp348
Vindex_03_l
p349
aF0.49894113539429841
aaa(lp350
I42
a(lp351
Vhand_l
p352
aF0.0029544580060934071
aa(lp353
Vindex_01_l
p354
aF0.031962391238143074
aa(lp355
Vindex_02_l
p356
aF0.83478747172687762
aa(lp357
Vindex_03_l
p358
aF0.12849093701134279
aa(lp359
Vthumb_02_l
p360
aF0.0018047420175430185
aaa(lp361
I43
a(lp362
Vhand_l
p363
aF0.0015947444236095508
aa(lp364
Vindex_01_l
p365
aF0.015056664280330893
aa(lp366
Vindex_02_l
p367
aF0.7483383380634222
aa(lp368
Vindex_03_l
p369
aF0.23359340493364994
aa(lp370
Vthumb_02_l
p371
aF0.0014168482989874698
aaa(lp372
I44
a(lp373
Vindex_01_l
p374
aF0.016985416142947553
aa(lp375
Vindex_02_l
p376
aF0.7239426894257539
aa(lp377
Vindex_03_l
p378
aF0.25437747435335845
aa(lp379
Vmiddle_01_l
p380
aF0.0022538480363192238
aa(lp381
Vmiddle_02_l
p382
aF0.0024405720416208836
aaa(lp383
I45
a(lp384
Vindex_01_l
p385
aF0.035928012021367632
aa(lp386
Vindex_02_l
p387
aF0.80793854522068587
aa(lp388
Vindex_03_l
p389
aF0.14582711290400366
aa(lp390
Vmiddle_01_l
p391
aF0.0047862214143242852
aa(lp392
Vmiddle_02_l
p393
aF0.0055201084396185743
aaa(lp394
I46
a(lp395
Vhand_l
p396
aF0.00231342979728972
aa(lp397
Vindex_01_l
p398
aF0.47022260297458496
aa(lp399
Vindex_02_l
p400
aF0.52595068657228727
aaa(lp401
I47
a(lp402
Vhand_l
p403
aF0.0015378112207457587
aa(lp404
Vindex_01_l
p405
aF0.099048050531064399
aa(lp406
Vindex_02_l
p407
aF0.89628119605401713
aa(lp408
Vindex_03_l
p409
aF0.0025512955809780954
aaa(lp410
I48
a(lp411
Vhand_l
p412
aF0.0020079280639372023
aa(lp413
Vindex_01_l
p414
aF0.04454739599459074
aa(lp415
Vindex_02_l
p416
aF0.93176409739800681
aa(lp417
Vindex_03_l
p418
aF0.020274072572564486
aa(lp419
Vthumb_02_l
p420
aF0.0014065059709007987
aaa(lp421
I49
a(lp422
Vhand_l
p423
aF0.0035944333281942545
aa(lp424
Vindex_01_l
p425
aF0.25932801571049502
aa(lp426
Vindex_02_l
p427
aF0.7317085475804217
aa(lp428
Vindex_03_l
p429
aF0.0035787263056873157
aa(lp430
Vthumb_02_l
p431
aF0.0017902770752017741
aaa(lp432
I50
a(lp433
Vindex_02_l
p434
aF0.51346035600189022
aa(lp435
Vindex_03_l
p436
aF0.48621474694545569
aaa(lp437
I51
a(lp438
Vindex_02_l
p439
aF0.75811321554177924
aa(lp440
Vindex_03_l
p441
aF0.24178292395907147
aaa(lp442
I52
a(lp443
Vindex_02_l
p444
aF0.50796166894266204
aa(lp445
Vindex_03_l
p446
aF0.49150629074051044
aaa(lp447
I53
a(lp448
Vindex_02_l
p449
aF0.49968470201142462
aa(lp450
Vindex_03_l
p451
aF0.49968470201142462
aaa(lp452
I54
a(lp453
Vindex_01_l
p454
aF0.059586943772045119
aa(lp455
Vindex_02_l
p456
aF0.90227891350619693
aa(lp457
Vindex_03_l
p458
aF0.030150488573958651
aa(lp459
Vmiddle_01_l
p460
aF0.0039255880626350628
aa(lp461
Vmiddle_02_l
p462
aF0.0040580660851642436
aaa(lp463
I55
a(lp464
Vhand_l
p465
aF0.0027309335626287926
aa(lp466
Vindex_01_l
p467
aF0.13334150320552096
aa(lp468
Vindex_02_l
p469
aF0.8573877858985437
aa(lp470
Vindex_03_l
p471
aF0.0043398194188624352
aa(lp472
Vmiddle_01_l
p473
aF0.0021999579144441959
aaa(lp474
I56
a(lp475
Vhand_l
p476
aF0.0051770126086335402
aa(lp477
Vindex_01_l
p478
aF0.47157813203140403
aa(lp479
Vindex_02_l
p480
aF0.51746476230563387
aa(lp481
Vmiddle_01_l
p482
aF0.0029985076782892846
aa(lp483
Vmiddle_02_l
p484
aF0.0027815853760393481
aaa(lp485
I57
a(lp486
Vhand_l
p487
aF0.0053464822458177876
aa(lp488
Vindex_01_l
p489
aF0.28314905406306207
aa(lp490
Vindex_02_l
p491
aF0.70299747923708311
aa(lp492
Vindex_03_l
p493
aF0.005106420909006368
aa(lp494
Vmiddle_01_l
p495
aF0.0034005635450306626
aaa(lp496
I58
a(lp497
Vhand_l
p498
aF0.003507406227028686
aa(lp499
Vindex_01_l
p500
aF0.67370330009201773
aa(lp501
Vindex_02_l
p502
aF0.32102827090966829
aa(lp503
Vmiddle_01_l
p504
aF0.0010100855377047089
aaa(lp505
I59
a(lp506
Vhand_l
p507
aF0.0017283078664128107
aa(lp508
Vindex_01_l
p509
aF0.71345195615250834
aa(lp510
Vindex_02_l
p511
aF0.28427596892426138
aaa(lp512
I60
a(lp513
Vhand_l
p514
aF0.001363842817782433
aa(lp515
Vindex_01_l
p516
aF0.69509722432216925
aa(lp517
Vindex_02_l
p518
aF0.30317285437726865
aaa(lp519
I61
a(lp520
Vhand_l
p521
aF0.0022569539014075891
aa(lp522
Vindex_01_l
p523
aF0.67698265668082136
aa(lp524
Vindex_02_l
p525
aF0.32013276521784856
aaa(lp526
I62
a(lp527
Vindex_01_l
p528
aF0.28583142231331676
aa(lp529
Vindex_02_l
p530
aF0.71305258336417066
aaa(lp531
I63
a(lp532
Vhand_l
p533
aF0.001533829901369924
aa(lp534
Vindex_01_l
p535
aF0.031292799885384984
aa(lp536
Vindex_02_l
p537
aF0.9498770049108588
aa(lp538
Vindex_03_l
p539
aF0.016235728439185283
aa(lp540
Vmiddle_02_l
p541
aF0.0010606368632011128
aaa(lp542
I64
a(lp543
Vhand_l
p544
aF0.003324070011319822
aa(lp545
Vindex_01_l
p546
aF0.49760797573248911
aa(lp547
Vindex_02_l
p548
aF0.49760797573248899
aaa(lp549
I65
a(lp550
Vhand_l
p551
aF0.0027201158254387485
aa(lp552
Vindex_01_l
p553
aF0.059378816985593268
aa(lp554
Vindex_02_l
p555
aF0.91053716448949862
aa(lp556
Vindex_03_l
p557
aF0.025748903747666346
aa(lp558
Vmiddle_01_l
p559
aF0.0016149989518030041
aaa(lp560
I66
a(lp561
Vindex_01_l
p562
aF0.005797140584907298
aa(lp563
Vindex_02_l
p564
aF0.56963594357090752
aa(lp565
Vindex_03_l
p566
aF0.42302094301200138
aaa(lp567
I67
a(lp568
Vhand_l
p569
aF0.0010405445934509464
aa(lp570
Vindex_01_l
p571
aF0.0067594891002308024
aa(lp572
Vindex_02_l
p573
aF0.53527602835226629
aa(lp574
Vindex_03_l
p575
aF0.45610035303645952
aaa(lp576
I68
a(lp577
Vhand_l
p578
aF0.0024832905826093678
aa(lp579
Vindex_01_l
p580
aF0.17534210305045225
aa(lp581
Vindex_02_l
p582
aF0.81771604973442524
aa(lp583
Vindex_03_l
p584
aF0.0031877478153722965
aa(lp585
Vthumb_02_l
p586
aF0.0012708088171407691
aaa(lp587
I69
a(lp588
Vindex_02_l
p589
aF0.72496810622235219
aa(lp590
Vindex_03_l
p591
aF0.27502347249878345
aaa(lp592
I70
a(lp593
Vhand_l
p594
aF0.0045063404425406926
aa(lp595
Vindex_01_l
p596
aF0.21602013618678978
aa(lp597
Vindex_02_l
p598
aF0.77003033420694078
aa(lp599
Vindex_03_l
p600
aF0.0054688972306233957
aa(lp601
Vmiddle_01_l
p602
aF0.0039742919331053929
aaa(lp603
I71
a(lp604
Vindex_01_l
p605
aF0.99966113591482031
aaa(lp606
I72
a(lp607
Vindex_01_l
p608
aF0.054052057993248991
aa(lp609
Vindex_02_l
p610
aF0.94329411458344958
aa(lp611
Vindex_03_l
p612
aF0.0014507933523577724
aaa(lp613
I73
a(lp614
Vhand_l
p615
aF0.0033700502284995126
aa(lp616
Vindex_01_l
p617
aF0.26623621359658933
aa(lp618
Vindex_02_l
p619
aF0.7260754942929406
aa(lp620
Vindex_03_l
p621
aF0.0030305721621562264
aa(lp622
Vmiddle_01_l
p623
aF0.0012876697198144096
aaa(lp624
I74
a(lp625
Vindex_01_l
p626
aF0.0024120219776136063
aa(lp627
Vindex_02_l
p628
aF0.49841269106002262
aa(lp629
Vindex_03_l
p630
aF0.49841269106002251
aaa(lp631
I75
a(lp632
Vhand_l
p633
aF0.0012696587229448859
aa(lp634
Vindex_01_l
p635
aF0.008388305931443716
aa(lp636
Vindex_02_l
p637
aF0.56307930051455712
aa(lp638
Vindex_03_l
p639
aF0.42582057082837205
aa(lp640
Vmiddle_02_l
p641
aF0.0014421640026821732
aaa(lp642
I76
a(lp643
Vindex_01_l
p644
aF0.0029261934889075296
aa(lp645
Vindex_02_l
p646
aF0.49754167593521775
aa(lp647
Vindex_03_l
p648
aF0.49754167593521753
aa(lp649
Vmiddle_02_l
p650
aF0.0010210674787612308
aaa(lp651
I77
a(lp652
Vindex_01_l
p653
aF0.0025005589212868345
aa(lp654
Vindex_02_l
p655
aF0.49824123887163263
aa(lp656
Vindex_03_l
p657
aF0.49824123887163285
aaa(lp658
I78
a(lp659
Vhand_l
p660
aF0.0067748051303821938
aa(lp661
Vindex_01_l
p662
aF0.53432041096874805
aa(lp663
Vindex_02_l
p664
aF0.45360527575190379
aa(lp665
Vmiddle_01_l
p666
aF0.0029033906744397923
aa(lp667
Vmiddle_02_l
p668
aF0.0023961174745262158
aaa(lp669
I79
a(lp670
Vhand_l
p671
aF0.0015203119268798492
aa(lp672
Vindex_01_l
p673
aF0.52788842455698837
aa(lp674
Vindex_02_l
p675
aF0.46996032167208601
aaa(lp676
I80
a(lp677
Vhand_l
p678
aF0.0029285543098575631
aa(lp679
Vindex_01_l
p680
aF0.52351452341959914
aa(lp681
Vindex_02_l
p682
aF0.4722812270554646
aaa(lp683
I81
a(lp684
Vhand_l
p685
aF0.0050165210504858259
aa(lp686
Vindex_01_l
p687
aF0.55212932413981786
aa(lp688
Vindex_02_l
p689
aF0.4412412996068294
aaa(lp690
I82
a(lp691
Vindex_02_l
p692
aF0.49946434319991878
aa(lp693
Vindex_03_l
p694
aF0.49946434319991878
aaa(lp695
I83
a(lp696
Vindex_02_l
p697
aF0.54117760052638064
aa(lp698
Vindex_03_l
p699
aF0.45796029977210778
aaa(lp700
I84
a(lp701
Vindex_01_l
p702
aF0.0010762926542728702
aa(lp703
Vindex_02_l
p704
aF0.49916210130266292
aa(lp705
Vindex_03_l
p706
aF0.49916210130266292
aaa(lp707
I85
a(lp708
Vindex_01_l
p709
aF0.0011311397501745826
aa(lp710
Vindex_02_l
p711
aF0.49921829502752163
aa(lp712
Vindex_03_l
p713
aF0.49921829502752163
aaa(lp714
I86
a(lp715
Vhand_l
p716
aF0.0015185946909054184
aa(lp717
Vindex_01_l
p718
aF0.016181771510379573
aa(lp719
Vindex_02_l
p720
aF0.83786493420932362
aa(lp721
Vindex_03_l
p722
aF0.14315713820104151
aa(lp723
Vthumb_02_l
p724
aF0.0012775613883498835
aaa(lp725
I87
a(lp726
Vhand_l
p727
aF0.0014185066831651722
aa(lp728
Vindex_01_l
p729
aF0.012833575275534515
aa(lp730
Vindex_02_l
p731
aF0.72670505882490288
aa(lp732
Vindex_03_l
p733
aF0.25786772060467295
aa(lp734
Vmiddle_02_l
p735
aF0.0011751386117244366
aaa(lp736
I88
a(lp737
Vindex_01_l
p738
aF0.019989952072521962
aa(lp739
Vindex_02_l
p740
aF0.80045913971878424
aa(lp741
Vindex_03_l
p742
aF0.17300620298467165
aa(lp743
Vmiddle_01_l
p744
aF0.0030127385103999268
aa(lp745
Vmiddle_02_l
p746
aF0.0035319667136222213
aaa(lp747
I89
a(lp748
Vhand_l
p749
aF0.0032986694694214758
aa(lp750
Vindex_01_l
p751
aF0.035497494323711722
aa(lp752
Vindex_02_l
p753
aF0.84106316042401241
aa(lp754
Vindex_03_l
p755
aF0.11725579036599876
aa(lp756
Vmiddle_02_l
p757
aF0.0028848854168556262
aaa.