(lp1
(lp2
I0
a(lp3
Vlowerarm_r
p4
aF0.53743427935049992
aa(lp5
Vhand_r
p6
aF0.45757444536485747
aa(lp7
Vthumb_01_r
p8
aF0.0041537592692021267
aaa(lp9
I1
a(lp10
Vlowerarm_r
p11
aF0.54190802944296002
aa(lp12
Vhand_r
p13
aF0.45112302369627683
aa(lp14
Vthumb_01_r
p15
aF0.0056368633942038429
aaa(lp16
I2
a(lp17
Vlowerarm_r
p18
aF0.13798053375316394
aa(lp19
Vhand_r
p20
aF0.75341924401285609
aa(lp21
Vindex_01_r
p22
aF0.0019381023438631033
aa(lp23
Vthumb_01_r
p24
aF0.099792552514805011
aa(lp25
Vthumb_02_r
p26
aF0.0068695673753117635
aaa(lp27
I3
a(lp28
Vlowerarm_r
p29
aF0.15630169002297009
aa(lp30
Vhand_r
p31
aF0.77711267841056075
aa(lp32
Vmiddle_01_r
p33
aF0.0055261732462034419
aa(lp34
Vthumb_01_r
p35
aF0.056234422943790816
aa(lp36
Vthumb_02_r
p37
aF0.0048250353764749294
aaa(lp38
I4
a(lp39
Vlowerarm_r
p40
aF0.059781289986371514
aa(lp41
Vhand_r
p42
aF0.91747539866108163
aa(lp43
Vthumb_01_r
p44
aF0.021142593188423608
aa(lp45
Vthumb_02_r
p46
aF0.0012662969438183456
aaa(lp47
I5
a(lp48
Vlowerarm_r
p49
aF0.043159076588404885
aa(lp50
Vhand_r
p51
aF0.94663880262720967
aa(lp52
Vthumb_01_r
p53
aF0.008667522116770519
aaa(lp54
I6
a(lp55
Vlowerarm_r
p56
aF0.64315387931735879
aa(lp57
Vhand_r
p58
aF0.35658409422800458
aaa(lp59
I7
a(lp60
Vlowerarm_r
p61
aF0.58413540034340294
aa(lp62
Vhand_r
p63
aF0.41456760311227625
aa(lp64
Vthumb_01_r
p65
aF0.0010514315518377663
aaa(lp66
I8
a(lp67
Vlowerarm_r
p68
aF0.0026995545835957454
aa(lp69
Vhand_r
p70
aF0.40322203862068084
aa(lp71
Vindex_01_r
p72
aF0.0034061924776589876
aa(lp73
Vthumb_01_r
p74
aF0.56962069999686815
aa(lp75
Vthumb_02_r
p76
aF0.021051514321196209
aaa(lp77
I9
a(lp78
Vhand_r
p79
aF0.85170280781869823
aa(lp80
Vindex_01_r
p81
aF0.018618350593684541
aa(lp82
Vmiddle_01_r
p83
aF0.062646919980546861
aa(lp84
Vmiddle_02_r
p85
aF0.012816141133275099
aa(lp86
Vthumb_01_r
p87
aF0.054215780473795251
aaa(lp88
I10
a(lp89
Vhand_r
p90
aF0.97645902388496186
aa(lp91
Vindex_01_r
p92
aF0.0024390405159170586
aa(lp93
Vmiddle_01_r
p94
aF0.011412794789147114
aa(lp95
Vmiddle_02_r
p96
aF0.0022240117305062286
aa(lp97
Vthumb_01_r
p98
aF0.0074651290794677753
aaa(lp99
I11
a(lp100
Vhand_r
p101
aF0.27408226340312791
aa(lp102
Vthumb_01_r
p103
aF0.71811822880154907
aa(lp104
Vthumb_02_r
p105
aF0.0063215445185309535
aaa(lp106
I12
a(lp107
Vhand_r
p108
aF0.56011206008023773
aa(lp109
Vindex_01_r
p110
aF0.19250960423206684
aa(lp111
Vmiddle_01_r
p112
aF0.014750848390724334
aa(lp113
Vthumb_01_r
p114
aF0.12673418392297572
aa(lp115
Vthumb_02_r
p116
aF0.10589330337399525
aaa(lp117
I13
a(lp118
Vhand_r
p119
aF0.49945490329727005
aa(lp120
Vindex_01_r
p121
aF0.028813435689101868
aa(lp122
Vmiddle_01_r
p123
aF0.43106137295760488
aa(lp124
Vmiddle_02_r
p125
aF0.035488057096422561
aa(lp126
Vthumb_01_r
p127
aF0.0051822309596006788
aaa(lp128
I14
a(lp129
Vhand_r
p130
aF0.73221966095979307
aa(lp131
Vmiddle_01_r
p132
aF0.26458781360168426
aa(lp133
Vmiddle_02_r
p134
aF0.0024207660102129329
aaa(lp135
I15
a(lp136
Vhand_r
p137
aF0.70104811200795447
aa(lp138
Vindex_01_r
p139
aF0.12540718318138835
aa(lp140
Vmiddle_01_r
p141
aF0.0086839663730147853
aa(lp142
Vthumb_01_r
p143
aF0.089820765873181219
aa(lp144
Vthumb_02_r
p145
aF0.075039972564461127
aaa(lp146
I16
a(lp147
Vhand_r
p148
aF0.56230247340692652
aa(lp149
Vindex_01_r
p150
aF0.4242676205359035
aa(lp151
Vmiddle_01_r
p152
aF0.005712412564590626
aa(lp153
Vthumb_01_r
p154
aF0.0039465031725681972
aa(lp155
Vthumb_02_r
p156
aF0.0037709903200111522
aaa(lp157
I17
a(lp158
Vhand_r
p159
aF0.43156968906872473
aa(lp160
Vindex_01_r
p161
aF0.096348013753507641
aa(lp162
Vindex_02_r
p163
aF0.0084057201801688783
aa(lp164
Vmiddle_01_r
p165
aF0.43156968906872473
aa(lp166
Vmiddle_02_r
p167
aF0.032106887928874117
aaa(lp168
I18
a(lp169
Vhand_r
p170
aF0.49103060241325031
aa(lp171
Vindex_01_r
p172
aF0.010072795102763423
aa(lp173
Vmiddle_01_r
p174
aF0.49103060241325019
aa(lp175
Vmiddle_02_r
p176
aF0.007007152297004467
aaa(lp177
I19
a(lp178
Vhand_r
p179
aF0.73508866651397642
aa(lp180
Vindex_01_r
p181
aF0.26269424307701711
aa(lp182
Vmiddle_01_r
p183
aF0.0010605724312416672
aaa(lp184
I20
a(lp185
Vlowerarm_r
p186
aF0.016935959010279257
aa(lp187
Vhand_r
p188
aF0.60385040202425022
aa(lp189
Vindex_01_r
p190
aF0.0022289267173723304
aa(lp191
Vthumb_01_r
p192
aF0.3664631329744838
aa(lp193
Vthumb_02_r
p194
aF0.010521579273614383
aaa(lp195
I21
a(lp196
Vlowerarm_r
p197
aF0.0075011811329261709
aa(lp198
Vhand_r
p199
aF0.97562189179764625
aa(lp200
Vindex_01_r
p201
aF0.0011764094243502574
aa(lp202
Vmiddle_01_r
p203
aF0.0027511305272362439
aa(lp204
Vthumb_01_r
p205
aF0.012949387117841053
aaa(lp206
I22
a(lp207
Vhand_r
p208
aF0.89338788858091434
aa(lp209
Vindex_01_r
p210
aF0.010596139396584959
aa(lp211
Vmiddle_01_r
p212
aF0.060006922900992965
aa(lp213
Vmiddle_02_r
p214
aF0.01268754624440716
aa(lp215
Vthumb_01_r
p216
aF0.023321502877100608
aaa(lp217
I23
a(lp218
Vlowerarm_r
p219
aF0.0065440413112995525
aa(lp220
Vhand_r
p221
aF0.79512463599329697
aa(lp222
Vthumb_01_r
p223
aF0.19456755254888106
aa(lp224
Vthumb_02_r
p225
aF0.0031732816341505589
aaa(lp226
I24
a(lp227
Vhand_r
p228
aF0.88863968882979738
aa(lp229
Vindex_01_r
p230
aF0.0046490833833700172
aa(lp231
Vmiddle_01_r
p232
aF0.0061637660316616241
aa(lp233
Vthumb_01_r
p234
aF0.095397150582788415
aa(lp235
Vthumb_02_r
p236
aF0.0051503111723826336
aaa(lp237
I25
a(lp238
Vhand_r
p239
aF0.059547699283986719
aa(lp240
Vthumb_01_r
p241
aF0.93562495680259283
aa(lp242
Vthumb_02_r
p243
aF0.0043938627297390427
aaa(lp244
I26
a(lp245
Vhand_r
p246
aF0.71471804289950147
aa(lp247
Vindex_01_r
p248
aF0.027892048186902135
aa(lp249
Vmiddle_01_r
p250
aF0.21410925378819462
aa(lp251
Vmiddle_02_r
p252
aF0.02560574515769436
aa(lp253
Vthumb_01_r
p254
aF0.017674909967707365
aaa(lp255
I27
a(lp256
Vhand_r
p257
aF0.55873038894643889
aa(lp258
Vindex_01_r
p259
aF0.25951471677959964
aa(lp260
Vmiddle_01_r
p261
aF0.13011201868151698
aa(lp262
Vthumb_01_r
p263
aF0.031619254677477199
aa(lp264
Vthumb_02_r
p265
aF0.020023620914967337
aaa(lp266
I28
a(lp267
Vhand_r
p268
aF0.33039114250735979
aa(lp269
Vindex_01_r
p270
aF0.035131424080996683
aa(lp271
Vmiddle_01_r
p272
aF0.0078083009663571625
aa(lp273
Vthumb_01_r
p274
aF0.48543768915990876
aa(lp275
Vthumb_02_r
p276
aF0.14123144328537771
aaa(lp277
I29
a(lp278
Vhand_r
p279
aF0.94586936539291677
aa(lp280
Vindex_01_r
p281
aF0.0023091796610314563
aa(lp282
Vmiddle_01_r
p283
aF0.046697061705038553
aa(lp284
Vmiddle_02_r
p285
aF0.0036977210509428061
aa(lp286
Vthumb_01_r
p287
aF0.0014266721900704146
aaa(lp288
I30
a(lp289
Vhand_r
p290
aF0.50437830108021597
aa(lp291
Vindex_01_r
p292
aF0.0038575436957083908
aa(lp293
Vmiddle_01_r
p294
aF0.4669796114294209
aa(lp295
Vmiddle_02_r
p296
aF0.023997217515237899
aaa(lp297
I31
a(lp298
Vhand_r
p299
aF0.35515991791044937
aa(lp300
Vindex_01_r
p301
aF0.015886480980645514
aa(lp302
Vmiddle_01_r
p303
aF0.0037444452318558595
aa(lp304
Vthumb_01_r
p305
aF0.52482586421558619
aa(lp306
Vthumb_02_r
p307
aF0.10038329166146305
aaa(lp308
I32
a(lp309
Vhand_r
p310
aF0.6437966074244581
aa(lp311
Vindex_01_r
p312
aF0.16743207426198353
aa(lp313
Vmiddle_01_r
p314
aF0.15993016764213031
aa(lp315
Vmiddle_02_r
p316
aF0.01375224834715361
aa(lp317
Vthumb_01_r
p318
aF0.01508890232427456
aaa(lp319
I33
a(lp320
Vhand_r
p321
aF0.23441169126268163
aa(lp322
Vindex_01_r
p323
aF0.076038859282016924
aa(lp324
Vthumb_01_r
p325
aF0.35255853171236484
aa(lp326
Vthumb_02_r
p327
aF0.32829856566620202
aa(lp328
Vthumb_03_r
p329
aF0.0086923520767346069
aaa(lp330
I34
a(lp331
Vhand_r
p332
aF0.45329664151789062
aa(lp333
Vindex_01_r
p334
aF0.04422299092682383
aa(lp335
Vindex_02_r
p336
aF0.0062811420049926235
aa(lp337
Vmiddle_01_r
p338
aF0.45329664151789051
aa(lp339
Vmiddle_02_r
p340
aF0.042902584032402463
aaa(lp341
I35
a(lp342
Vhand_r
p343
aF0.55222965182754313
aa(lp344
Vindex_01_r
p345
aF0.3791126408557372
aa(lp346
Vmiddle_01_r
p347
aF0.012308492776934576
aa(lp348
Vthumb_01_r
p349
aF0.028656582749804104
aa(lp350
Vthumb_02_r
p351
aF0.027692631789980986
aaa(lp352
I36
a(lp353
Vhand_r
p354
aF0.44272087612232952
aa(lp355
Vmiddle_01_r
p356
aF0.55500261036863385
aa(lp357
Vmiddle_02_r
p358
aF0.0017540246629875263
aaa(lp359
I37
a(lp360
Vhand_r
p361
aF0.67289633326979925
aa(lp362
Vindex_01_r
p363
aF0.29502048885679327
aa(lp364
Vmiddle_01_r
p365
aF0.0060542751088586118
aa(lp366
Vthumb_01_r
p367
aF0.013175516711297266
aa(lp368
Vthumb_02_r
p369
aF0.012853386053251705
aaa(lp370
I38
a(lp371
Vlowerarm_r
p372
aF0.60685140462738252
aa(lp373
Vhand_r
p374
aF0.38865613017528078
aa(lp375
Vthumb_01_r
p376
aF0.0036523106452752835
aaa(lp377
I39
a(lp378
Vlowerarm_r
p379
aF0.41090631683851614
aa(lp380
Vhand_r
p381
aF0.56637030245440301
aa(lp382
Vmiddle_01_r
p383
aF0.0018794186461249622
aa(lp384
Vthumb_01_r
p385
aF0.018667777499321563
aa(lp386
Vthumb_02_r
p387
aF0.0021761845616343578
aaa(lp388
I40
a(lp389
Vlowerarm_r
p390
aF0.21095987057427926
aa(lp391
Vhand_r
p392
aF0.68130514413560395
aa(lp393
Vmiddle_01_r
p394
aF0.003423731212038037
aa(lp395
Vthumb_01_r
p396
aF0.097777288158341497
aa(lp397
Vthumb_02_r
p398
aF0.0065339659197372673
aaa(lp399
I41
a(lp400
Vlowerarm_r
p401
aF0.42918916143514824
aa(lp402
Vhand_r
p403
aF0.54862560651517778
aa(lp404
Vthumb_01_r
p405
aF0.019083180335705014
aa(lp406
Vthumb_02_r
p407
aF0.0022958559267300996
aaa(lp408
I42
a(lp409
Vhand_r
p410
aF0.45969394061732183
aa(lp411
Vindex_01_r
p412
aF0.43836522887898488
aa(lp413
Vindex_02_r
p414
aF0.01317602631970184
aa(lp415
Vmiddle_01_r
p416
aF0.077471537767440146
aa(lp417
Vmiddle_02_r
p418
aF0.011293266416551357
aaa(lp419
I43
a(lp420
Vhand_r
p421
aF0.48978821188416921
aa(lp422
Vindex_01_r
p423
aF0.0097162466596195443
aa(lp424
Vindex_02_r
p425
aF0.0010245359094650369
aa(lp426
Vmiddle_01_r
p427
aF0.4897882118841691
aa(lp428
Vmiddle_02_r
p429
aF0.0096827936625770942
aaa(lp430
I44
a(lp431
Vhand_r
p432
aF0.47848611673205643
aa(lp433
Vindex_01_r
p434
aF0.41518978860130451
aa(lp435
Vindex_02_r
p436
aF0.0080531963254912298
aa(lp437
Vmiddle_01_r
p438
aF0.088822333365547457
aa(lp439
Vmiddle_02_r
p440
aF0.009448564975600331
aaa(lp441
I45
a(lp442
Vhand_r
p443
aF0.69253844214671401
aa(lp444
Vindex_01_r
p445
aF0.30629195344399474
aaa(lp446
I46
a(lp447
Vlowerarm_r
p448
aF0.040986719316161588
aa(lp449
Vhand_r
p450
aF0.95248779545285212
aa(lp451
Vthumb_01_r
p452
aF0.00599530804312811
aaa(lp453
I47
a(lp454
Vlowerarm_r
p455
aF0.3281564753531796
aa(lp456
Vhand_r
p457
aF0.66706050564889563
aa(lp458
Vthumb_01_r
p459
aF0.0039443836173092281
aaa(lp460
I48
a(lp461
Vlowerarm_r
p462
aF0.98332036184882043
aa(lp463
Vhand_r
p464
aF0.016671334309941669
aaa(lp465
I49
a(lp466
Vlowerarm_r
p467
aF0.40145864835943768
aa(lp468
Vhand_r
p469
aF0.5959416350696588
aa(lp470
Vthumb_01_r
p471
aF0.0022523920880504226
aaa(lp472
I50
a(lp473
Vlowerarm_r
p474
aF0.62338869307885203
aa(lp475
Vhand_r
p476
aF0.37300829561650622
aa(lp477
Vthumb_01_r
p478
aF0.0028596473412295484
aaa(lp479
I51
a(lp480
Vlowerarm_r
p481
aF0.64288018335837749
aa(lp482
Vhand_r
p483
aF0.35536090956538602
aa(lp484
Vthumb_01_r
p485
aF0.0014459045362506173
aaa(lp486
I52
a(lp487
Vlowerarm_r
p488
aF0.091594269927883207
aa(lp489
Vhand_r
p490
aF0.87706139484138157
aa(lp491
Vmiddle_01_r
p492
aF0.003470331802467929
aa(lp493
Vthumb_01_r
p494
aF0.025577012246298603
aa(lp495
Vthumb_02_r
p496
aF0.0022969911819686406
aaa(lp497
I53
a(lp498
Vlowerarm_r
p499
aF0.095434936410509777
aa(lp500
Vhand_r
p501
aF0.83511810434041323
aa(lp502
Vthumb_01_r
p503
aF0.064129542967520436
aa(lp504
Vthumb_02_r
p505
aF0.0043441551349995763
aaa(lp506
I54
a(lp507
Vlowerarm_r
p508
aF0.042085920239001262
aa(lp509
Vhand_r
p510
aF0.84576537576959476
aa(lp511
Vindex_01_r
p512
aF0.0086795045777057177
aa(lp513
Vmiddle_01_r
p514
aF0.017449156281554079
aa(lp515
Vthumb_01_r
p516
aF0.086020043132144203
aaa(lp517
I55
a(lp518
Vhand_r
p519
aF0.63822040936983426
aa(lp520
Vindex_01_r
p521
aF0.02094315136008686
aa(lp522
Vmiddle_01_r
p523
aF0.021738606551646181
aa(lp524
Vthumb_01_r
p525
aF0.29764251808600317
aa(lp526
Vthumb_02_r
p527
aF0.021455314632429546
aaa(lp528
I56
a(lp529
Vlowerarm_r
p530
aF0.46224849993468331
aa(lp531
Vhand_r
p532
aF0.51703245687719079
aa(lp533
Vmiddle_01_r
p534
aF0.0010639096811761218
aa(lp535
Vthumb_01_r
p536
aF0.017674273824442706
aa(lp537
Vthumb_02_r
p538
aF0.0019808596825070524
aaa(lp539
I57
a(lp540
Vhand_r
p541
aF0.49884527313172511
aa(lp542
Vindex_01_r
p543
aF0.46722695901739053
aa(lp544
Vindex_02_r
p545
aF0.0031781779743985297
aa(lp546
Vmiddle_01_r
p547
aF0.027919973123825288
aa(lp548
Vmiddle_02_r
p549
aF0.0028296167526603677
aaa(lp550
I58
a(lp551
Vhand_r
p552
aF0.99999941170131901
aaa(lp553
I59
a(lp554
Vlowerarm_r
p555
aF0.92791091824532912
aa(lp556
Vhand_r
p557
aF0.071864641075878227
aaa(lp558
I60
a(lp559
Vlowerarm_r
p560
aF0.36008706458426715
aa(lp561
Vhand_r
p562
aF0.62603831423029965
aa(lp563
Vmiddle_01_r
p564
aF0.0013366613358489665
aa(lp565
Vthumb_01_r
p566
aF0.01123001590460174
aa(lp567
Vthumb_02_r
p568
aF0.001307943944982477
aaa(lp569
I61
a(lp570
Vlowerarm_r
p571
aF0.41093658833980778
aa(lp572
Vhand_r
p573
aF0.57715957210209723
aa(lp574
Vthumb_01_r
p575
aF0.010266792073664958
aa(lp576
Vthumb_02_r
p577
aF0.0012497842099880982
aaa(lp578
I62
a(lp579
Vlowerarm_r
p580
aF0.048113718338323432
aa(lp581
Vhand_r
p582
aF0.63106832218617648
aa(lp583
Vmiddle_01_r
p584
aF0.0075930986732248226
aa(lp585
Vthumb_01_r
p586
aF0.30083645321024349
aa(lp587
Vthumb_02_r
p588
aF0.012388407592031912
aaa(lp589
I63
a(lp590
Vlowerarm_r
p591
aF0.023593594263172538
aa(lp592
Vhand_r
p593
aF0.92181029179999052
aa(lp594
Vindex_01_r
p595
aF0.0049640472997483061
aa(lp596
Vmiddle_01_r
p597
aF0.013347878239611654
aa(lp598
Vthumb_01_r
p599
aF0.036284188397476977
aaa(lp600
I64
a(lp601
Vlowerarm_r
p602
aF0.0095963954353993752
aa(lp603
Vhand_r
p604
aF0.93277344977887644
aa(lp605
Vmiddle_01_r
p606
aF0.0010416026350966747
aa(lp607
Vthumb_01_r
p608
aF0.054986521209669584
aa(lp609
Vthumb_02_r
p610
aF0.0016020309409579311
aaa(lp611
I65
a(lp612
Vlowerarm_r
p613
aF0.0095760141537021854
aa(lp614
Vhand_r
p615
aF0.65174017479398783
aa(lp616
Vindex_01_r
p617
aF0.0011011018317374111
aa(lp618
Vthumb_01_r
p619
aF0.32923708492913595
aa(lp620
Vthumb_02_r
p621
aF0.008345624291436593
aaa(lp622
I66
a(lp623
Vhand_r
p624
aF0.70226058493498489
aa(lp625
Vindex_01_r
p626
aF0.090730732386624713
aa(lp627
Vmiddle_01_r
p628
aF0.076498867133547907
aa(lp629
Vthumb_01_r
p630
aF0.10088587050373594
aa(lp631
Vthumb_02_r
p632
aF0.029623945041106384
aaa(lp633
I67
a(lp634
Vhand_r
p635
aF0.73969695837892013
aa(lp636
Vindex_01_r
p637
aF0.010411427075056878
aa(lp638
Vmiddle_01_r
p639
aF0.21814097110942876
aa(lp640
Vmiddle_02_r
p641
aF0.025591844711655865
aa(lp642
Vthumb_01_r
p643
aF0.0061587987249383455
aaa(lp644
I68
a(lp645
Vhand_r
p646
aF0.86461399455328403
aa(lp647
Vindex_01_r
p648
aF0.035668898401388517
aa(lp649
Vmiddle_01_r
p650
aF0.047554785148328609
aa(lp651
Vthumb_01_r
p652
aF0.040786077037292853
aa(lp653
Vthumb_02_r
p654
aF0.011376244859705998
aaa(lp655
I69
a(lp656
Vhand_r
p657
aF0.0073450936104534322
aa(lp658
Vthumb_01_r
p659
aF0.94436298049034006
aa(lp660
Vthumb_02_r
p661
aF0.047187959383318642
aaa(lp662
I70
a(lp663
Vhand_r
p664
aF0.46159526451450578
aa(lp665
Vindex_01_r
p666
aF0.38590551741555446
aa(lp667
Vindex_02_r
p668
aF0.01733808324265159
aa(lp669
Vmiddle_01_r
p670
aF0.11755612371777488
aa(lp671
Vmiddle_02_r
p672
aF0.017605011109513336
aaa(lp673
I71
a(lp674
Vhand_r
p675
aF0.43540068863256709
aa(lp676
Vindex_01_r
p677
aF0.0013245571875170378
aa(lp678
Vmiddle_01_r
p679
aF0.55386836023343766
aa(lp680
Vmiddle_02_r
p681
aF0.0091581417884854868
aaa(lp682
I72
a(lp683
Vhand_r
p684
aF0.48158760098667058
aa(lp685
Vindex_01_r
p686
aF0.32312878806507112
aa(lp687
Vindex_02_r
p688
aF0.011031857056192014
aa(lp689
Vmiddle_01_r
p690
aF0.16707191088798551
aa(lp691
Vmiddle_02_r
p692
aF0.017179843004080878
aaa(lp693
I73
a(lp694
Vhand_r
p695
aF0.57244381857944038
aa(lp696
Vindex_01_r
p697
aF0.321003438087134
aa(lp698
Vindex_02_r
p699
aF0.0064701304958268086
aa(lp700
Vthumb_01_r
p701
aF0.049873178296417395
aa(lp702
Vthumb_02_r
p703
aF0.050209434541181514
aaa.