(lp1
(lp2
I0
a(lp3
Vlowerarm_l
p4
aF0.73684874354708507
aa(lp5
Vhand_l
p6
aF0.25548195008700664
aa(lp7
Vthumb_01_l
p8
aF0.0060005152670877986
aa(lp9
Vthumb_02_l
p10
aF0.0012164569112359496
aaa(lp11
I1
a(lp12
Vlowerarm_l
p13
aF0.9632446509661039
aa(lp14
Vhand_l
p15
aF0.036473208266250397
aaa(lp16
I2
a(lp17
Vlowerarm_l
p18
aF0.21167707032376981
aa(lp19
Vhand_l
p20
aF0.69062833063354645
aa(lp21
Vindex_01_l
p22
aF0.0020982735070671807
aa(lp23
Vthumb_01_l
p24
aF0.087092478357723269
aa(lp25
Vthumb_02_l
p26
aF0.0085038471778933426
aaa(lp27
I3
a(lp28
Vlowerarm_l
p29
aF0.24092824919291625
aa(lp30
Vhand_l
p31
aF0.7469392367074662
aa(lp32
Vmiddle_01_l
p33
aF0.0011458602628212958
aa(lp34
Vthumb_01_l
p35
aF0.0098739518015543443
aa(lp36
Vthumb_02_l
p37
aF0.0011127020352419573
aaa(lp38
I4
a(lp39
Vlowerarm_l
p40
aF0.23449728526505809
aa(lp41
Vhand_l
p42
aF0.6490457206794249
aa(lp43
Vindex_01_l
p44
aF0.0027507236157525124
aa(lp45
Vthumb_01_l
p46
aF0.10108038292587673
aa(lp47
Vthumb_02_l
p48
aF0.012625887513887902
aaa(lp49
I5
a(lp50
Vlowerarm_l
p51
aF0.080062294832359118
aa(lp52
Vhand_l
p53
aF0.91468151500963535
aa(lp54
Vthumb_01_l
p55
aF0.0041619287036917521
aaa(lp56
I6
a(lp57
Vlowerarm_l
p58
aF0.71790749225322548
aa(lp59
Vhand_l
p60
aF0.27260517281506208
aa(lp61
Vthumb_01_l
p62
aF0.0073412075904093176
aa(lp63
Vthumb_02_l
p64
aF0.0015804533427078097
aaa(lp65
I7
a(lp66
Vlowerarm_l
p67
aF0.91823529357335709
aa(lp68
Vhand_l
p69
aF0.08098375899911632
aaa(lp70
I8
a(lp71
Vlowerarm_l
p72
aF0.0018331135071637272
aa(lp73
Vhand_l
p74
aF0.41302058449792411
aa(lp75
Vindex_01_l
p76
aF0.0021958036350551388
aa(lp77
Vthumb_01_l
p78
aF0.56693518964383272
aa(lp79
Vthumb_02_l
p80
aF0.016015308716024357
aaa(lp81
I9
a(lp82
Vlowerarm_l
p83
aF0.010516864567052656
aa(lp84
Vhand_l
p85
aF0.92684135733084039
aa(lp86
Vindex_01_l
p87
aF0.0097917529299139262
aa(lp88
Vmiddle_01_l
p89
aF0.033095506641456426
aa(lp90
Vthumb_01_l
p91
aF0.019754518530736485
aaa(lp92
I10
a(lp93
Vlowerarm_l
p94
aF0.0056966329428413233
aa(lp95
Vhand_l
p96
aF0.95477952863528248
aa(lp97
Vindex_01_l
p98
aF0.0052500202266207866
aa(lp99
Vmiddle_01_l
p100
aF0.023876623781234004
aa(lp101
Vthumb_01_l
p102
aF0.01039719441402146
aaa(lp103
I11
a(lp104
Vlowerarm_l
p105
aF0.0028148133209983011
aa(lp106
Vhand_l
p107
aF0.30614675308280825
aa(lp108
Vindex_01_l
p109
aF0.0033054913368850613
aa(lp110
Vthumb_01_l
p111
aF0.64806632112723295
aa(lp112
Vthumb_02_l
p113
aF0.039666621132075364
aaa(lp114
I12
a(lp115
Vhand_l
p116
aF0.56677950153393797
aa(lp117
Vindex_01_l
p118
aF0.32665325809694912
aa(lp119
Vmiddle_01_l
p120
aF0.0086765346214084434
aa(lp121
Vthumb_01_l
p122
aF0.051203519211201101
aa(lp123
Vthumb_02_l
p124
aF0.046687186536503326
aaa(lp125
I13
a(lp126
Vhand_l
p127
aF0.49673718795621979
aa(lp128
Vindex_01_l
p129
aF0.016788996561079142
aa(lp130
Vindex_02_l
p131
aF0.0022835582959573712
aa(lp132
Vmiddle_01_l
p133
aF0.4596955577057375
aa(lp134
Vmiddle_02_l
p135
aF0.024494699481006244
aaa(lp136
I14
a(lp137
Vhand_l
p138
aF0.49901800389641798
aa(lp139
Vindex_01_l
p140
aF0.0018906920381204586
aa(lp141
Vmiddle_01_l
p142
aF0.4892964420366952
aa(lp143
Vmiddle_02_l
p144
aF0.0094406663666637379
aaa(lp145
I15
a(lp146
Vhand_l
p147
aF0.48601688389997078
aa(lp148
Vindex_01_l
p149
aF0.31036541165957521
aa(lp150
Vmiddle_01_l
p151
aF0.01443595261986323
aa(lp152
Vthumb_01_l
p153
aF0.095692255644878571
aa(lp154
Vthumb_02_l
p155
aF0.093489496175712283
aaa(lp156
I16
a(lp157
Vhand_l
p158
aF0.49878510840374052
aa(lp159
Vindex_01_l
p160
aF0.49878510840374052
aaa(lp161
I17
a(lp162
Vhand_l
p163
aF0.43585302657452879
aa(lp164
Vindex_01_l
p165
aF0.087438634318118727
aa(lp166
Vindex_02_l
p167
aF0.0086583926245894973
aa(lp168
Vmiddle_01_l
p169
aF0.43585302657452879
aa(lp170
Vmiddle_02_l
p171
aF0.032196919908234221
aaa(lp172
I18
a(lp173
Vhand_l
p174
aF0.46545667804975471
aa(lp175
Vindex_01_l
p176
aF0.026644393006058274
aa(lp177
Vindex_02_l
p178
aF0.0039959029174549045
aa(lp179
Vmiddle_01_l
p180
aF0.47859497087352887
aa(lp181
Vmiddle_02_l
p182
aF0.025308055153203189
aaa(lp183
I19
a(lp184
Vhand_l
p185
aF0.41408707650424026
aa(lp186
Vindex_01_l
p187
aF0.57552919330471675
aa(lp188
Vindex_02_l
p189
aF0.0045920630751163059
aa(lp190
Vmiddle_01_l
p191
aF0.0039559558829587718
aa(lp192
Vthumb_02_l
p193
aF0.0018357112329679699
aaa(lp194
I20
a(lp195
Vlowerarm_l
p196
aF0.018269236202514246
aa(lp197
Vhand_l
p198
aF0.6509655133350839
aa(lp199
Vindex_01_l
p200
aF0.0017545149640860493
aa(lp201
Vthumb_01_l
p202
aF0.31903316348750393
aa(lp203
Vthumb_02_l
p204
aF0.0099775720108119473
aaa(lp205
I21
a(lp206
Vlowerarm_l
p207
aF0.033127968195798788
aa(lp208
Vhand_l
p209
aF0.93934918084906127
aa(lp210
Vindex_01_l
p211
aF0.0027784467599288871
aa(lp212
Vmiddle_01_l
p213
aF0.0058499522051379876
aa(lp214
Vthumb_01_l
p215
aF0.0188944519900731
aaa(lp216
I22
a(lp217
Vlowerarm_l
p218
aF0.0085645917660289849
aa(lp219
Vhand_l
p220
aF0.92319271822735238
aa(lp221
Vmiddle_01_l
p222
aF0.047290108538010835
aa(lp223
Vmiddle_02_l
p224
aF0.0090129900007517704
aa(lp225
Vthumb_01_l
p226
aF0.011939591467856076
aaa(lp227
I23
a(lp228
Vlowerarm_l
p229
aF0.028192774934808471
aa(lp230
Vhand_l
p231
aF0.60393113410292354
aa(lp232
Vindex_01_l
p233
aF0.0028819833300983847
aa(lp234
Vthumb_01_l
p235
aF0.34423788732251442
aa(lp236
Vthumb_02_l
p237
aF0.020756220309655161
aaa(lp238
I24
a(lp239
Vhand_l
p240
aF0.76344688884782086
aa(lp241
Vindex_01_l
p242
aF0.019481479434956137
aa(lp243
Vmiddle_01_l
p244
aF0.020303646005327317
aa(lp245
Vthumb_01_l
p246
aF0.17648695735361858
aa(lp247
Vthumb_02_l
p248
aF0.020281028358277071
aaa(lp249
I25
a(lp250
Vhand_l
p251
aF0.021789052162261884
aa(lp252
Vthumb_01_l
p253
aF0.97330114157523928
aa(lp254
Vthumb_02_l
p255
aF0.0047034075008525215
aaa(lp256
I26
a(lp257
Vhand_l
p258
aF0.77996594169949973
aa(lp259
Vindex_01_l
p260
aF0.017111990786587372
aa(lp261
Vmiddle_01_l
p262
aF0.18023564858389934
aa(lp263
Vmiddle_02_l
p264
aF0.015227251079942992
aa(lp265
Vthumb_01_l
p266
aF0.0074591678500706537
aaa(lp267
I27
a(lp268
Vhand_l
p269
aF0.56939457081114342
aa(lp270
Vindex_01_l
p271
aF0.3261852727565448
aa(lp272
Vmiddle_01_l
p273
aF0.0818037266493922
aa(lp274
Vmiddle_02_l
p275
aF0.0089779744861727684
aa(lp276
Vthumb_01_l
p277
aF0.013638455296746873
aaa(lp278
I28
a(lp279
Vhand_l
p280
aF0.38164470653924665
aa(lp281
Vindex_01_l
p282
aF0.061734825551078183
aa(lp283
Vthumb_01_l
p284
aF0.39381906683613288
aa(lp285
Vthumb_02_l
p286
aF0.15545214966601539
aa(lp287
Vthumb_03_l
p288
aF0.0073492514075269716
aaa(lp289
I29
a(lp290
Vhand_l
p291
aF0.86230297865671457
aa(lp292
Vindex_01_l
p293
aF0.0051754433658156122
aa(lp294
Vmiddle_01_l
p295
aF0.12127596062164638
aa(lp296
Vmiddle_02_l
p297
aF0.0089128267690768738
aa(lp298
Vthumb_01_l
p299
aF0.002332790586746584
aaa(lp300
I30
a(lp301
Vhand_l
p302
aF0.42020081671780724
aa(lp303
Vindex_01_l
p304
aF0.0015006657275698344
aa(lp305
Vmiddle_01_l
p306
aF0.56101399177482336
aa(lp307
Vmiddle_02_l
p308
aF0.016963165020404326
aaa(lp309
I31
a(lp310
Vhand_l
p311
aF0.22983271453309395
aa(lp312
Vindex_01_l
p313
aF0.045489242129536506
aa(lp314
Vmiddle_01_l
p315
aF0.0069130286795232665
aa(lp316
Vthumb_01_l
p317
aF0.47307253291682072
aa(lp318
Vthumb_02_l
p319
aF0.24469248174102556
aaa(lp320
I32
a(lp321
Vhand_l
p322
aF0.45597588897266772
aa(lp323
Vindex_01_l
p324
aF0.29252430041309851
aa(lp325
Vmiddle_01_l
p326
aF0.21015735298881777
aa(lp327
Vmiddle_02_l
p328
aF0.022234010377788337
aa(lp329
Vthumb_01_l
p330
aF0.019108447247627627
aaa(lp331
I33
a(lp332
Vhand_l
p333
aF0.28028301965140512
aa(lp334
Vindex_01_l
p335
aF0.19525014899547161
aa(lp336
Vthumb_01_l
p337
aF0.23554344407235109
aa(lp338
Vthumb_02_l
p339
aF0.26789596969088392
aa(lp340
Vthumb_03_l
p341
aF0.021027417589888228
aaa(lp342
I34
a(lp343
Vhand_l
p344
aF0.46256726578321034
aa(lp345
Vindex_01_l
p346
aF0.031819706549367756
aa(lp347
Vindex_02_l
p348
aF0.0047011725168685991
aa(lp349
Vmiddle_01_l
p350
aF0.46256726578321022
aa(lp351
Vmiddle_02_l
p352
aF0.038344589367343133
aaa(lp353
I35
a(lp354
Vhand_l
p355
aF0.49293746304469777
aa(lp356
Vindex_01_l
p357
aF0.48752112649567814
aa(lp358
Vindex_02_l
p359
aF0.0049502650243566154
aa(lp360
Vthumb_01_l
p361
aF0.0071513594561876731
aa(lp362
Vthumb_02_l
p363
aF0.0074397859790798753
aaa(lp364
I36
a(lp365
Vhand_l
p366
aF0.37067990390440586
aa(lp367
Vindex_01_l
p368
aF0.0035216821155046999
aa(lp369
Vmiddle_01_l
p370
aF0.60581851863616443
aa(lp371
Vmiddle_02_l
p372
aF0.019187956588332184
aaa(lp373
I37
a(lp374
Vhand_l
p375
aF0.46712056548410397
aa(lp376
Vindex_01_l
p377
aF0.48206449723855282
aa(lp378
Vindex_02_l
p379
aF0.015342807862489163
aa(lp380
Vthumb_01_l
p381
aF0.01737382362918732
aa(lp382
Vthumb_02_l
p383
aF0.018098305785666846
aaa(lp384
I38
a(lp385
Vlowerarm_l
p386
aF0.94094892566542376
aa(lp387
Vhand_l
p388
aF0.058111323384981171
aaa(lp389
I39
a(lp390
Vlowerarm_l
p391
aF0.60859252478773107
aa(lp392
Vhand_l
p393
aF0.38878718810928098
aa(lp394
Vthumb_01_l
p395
aF0.0020540004815134917
aaa(lp396
I40
a(lp397
Vlowerarm_l
p398
aF0.30435258108722746
aa(lp399
Vhand_l
p400
aF0.67289113272796619
aa(lp401
Vthumb_01_l
p402
aF0.020206495629850302
aa(lp403
Vthumb_02_l
p404
aF0.0017446033557851296
aaa(lp405
I41
a(lp406
Vlowerarm_l
p407
aF0.50912167145552856
aa(lp408
Vhand_l
p409
aF0.46284777223421891
aa(lp410
Vindex_01_l
p411
aF0.0012529935856902207
aa(lp412
Vthumb_01_l
p413
aF0.022840128265701875
aa(lp414
Vthumb_02_l
p415
aF0.0039374344588603873
aaa(lp416
I42
a(lp417
Vhand_l
p418
aF0.46643718710881282
aa(lp419
Vindex_01_l
p420
aF0.46643718710881305
aa(lp421
Vindex_02_l
p422
aF0.011130606066093935
aa(lp423
Vmiddle_01_l
p424
aF0.048851401455421731
aa(lp425
Vmiddle_02_l
p426
aF0.007143618260858302
aaa(lp427
I43
a(lp428
Vhand_l
p429
aF0.46443574442335667
aa(lp430
Vindex_01_l
p431
aF0.01241797864521948
aa(lp432
Vindex_02_l
p433
aF0.0019025302149016112
aa(lp434
Vmiddle_01_l
p435
aF0.50344187569502374
aa(lp436
Vmiddle_02_l
p437
aF0.017801871021498356
aaa(lp438
I44
a(lp439
Vhand_l
p440
aF0.37779516827975984
aa(lp441
Vindex_01_l
p442
aF0.46494813665585533
aa(lp443
Vindex_02_l
p444
aF0.026060010319488708
aa(lp445
Vmiddle_01_l
p446
aF0.1136780341991669
aa(lp447
Vmiddle_02_l
p448
aF0.01751865054572932
aaa(lp449
I45
a(lp450
Vhand_l
p451
aF0.32565699623291716
aa(lp452
Vindex_01_l
p453
aF0.67372883073956924
aaa(lp454
I46
a(lp455
Vlowerarm_l
p456
aF0.0030361587163417218
aa(lp457
Vhand_l
p458
aF0.99664152092215763
aaa(lp459
I47
a(lp460
Vlowerarm_l
p461
aF0.37628458470295068
aa(lp462
Vhand_l
p463
aF0.62088465464349374
aa(lp464
Vthumb_01_l
p465
aF0.0021770510214745558
aaa(lp466
I48
a(lp467
Vlowerarm_l
p468
aF0.90103641278624058
aa(lp469
Vhand_l
p470
aF0.0970279907510085
aa(lp471
Vthumb_01_l
p472
aF0.0014684331967860409
aaa(lp473
I49
a(lp474
Vlowerarm_l
p475
aF0.46944497546272673
aa(lp476
Vhand_l
p477
aF0.49930485964027821
aa(lp478
Vindex_01_l
p479
aF0.0014351417592648218
aa(lp480
Vthumb_01_l
p481
aF0.024981069583387746
aa(lp482
Vthumb_02_l
p483
aF0.0048339535543425469
aaa(lp484
I50
a(lp485
Vlowerarm_l
p486
aF0.98541666578437681
aa(lp487
Vhand_l
p488
aF0.014418253439369104
aaa(lp489
I51
a(lp490
Vlowerarm_l
p491
aF0.76452178211139976
aa(lp492
Vhand_l
p493
aF0.22556610864258164
aa(lp494
Vthumb_01_l
p495
aF0.0075747770497489198
aa(lp496
Vthumb_02_l
p497
aF0.0017250505882219623
aaa(lp498
I52
a(lp499
Vlowerarm_l
p500
aF0.17820473275583643
aa(lp501
Vhand_l
p502
aF0.81153385270699241
aa(lp503
Vmiddle_01_l
p504
aF0.0013766821049616578
aa(lp505
Vthumb_01_l
p506
aF0.0078775633672889065
aa(lp507
Vthumb_02_l
p508
aF0.0010071690649205585
aaa(lp509
I53
a(lp510
Vlowerarm_l
p511
aF0.19433237794999042
aa(lp512
Vhand_l
p513
aF0.65631210195708423
aa(lp514
Vindex_01_l
p515
aF0.0028752413054968771
aa(lp516
Vthumb_01_l
p517
aF0.13074347147518237
aa(lp518
Vthumb_02_l
p519
aF0.01573680731224613
aaa(lp520
I54
a(lp521
Vlowerarm_l
p522
aF0.04322514479185581
aa(lp523
Vhand_l
p524
aF0.92293530562776049
aa(lp525
Vindex_01_l
p526
aF0.0033805529501479115
aa(lp527
Vmiddle_01_l
p528
aF0.006123015476192881
aa(lp529
Vthumb_01_l
p530
aF0.024335981154042816
aaa(lp531
I55
a(lp532
Vlowerarm_l
p533
aF0.01134426295836463
aa(lp534
Vhand_l
p535
aF0.83399937238531263
aa(lp536
Vindex_01_l
p537
aF0.011999753934963381
aa(lp538
Vthumb_01_l
p539
aF0.13333561517404077
aa(lp540
Vthumb_02_l
p541
aF0.009320995547318623
aaa(lp542
I56
a(lp543
Vlowerarm_l
p544
aF0.57645716383922974
aa(lp545
Vhand_l
p546
aF0.41900719069053294
aa(lp547
Vthumb_01_l
p548
aF0.0037145633989929625
aaa(lp549
I57
a(lp550
Vhand_l
p551
aF0.42346130362459894
aa(lp552
Vindex_01_l
p553
aF0.53717156308603464
aa(lp554
Vindex_02_l
p555
aF0.0064916039113671947
aa(lp556
Vmiddle_01_l
p557
aF0.029274927939484215
aa(lp558
Vmiddle_02_l
p559
aF0.003600601438515082
aaa(lp560
I58
a(lp561
Vlowerarm_l
p562
aF0.31591207772276247
aa(lp563
Vhand_l
p564
aF0.67949997433530374
aa(lp565
Vthumb_01_l
p566
aF0.0036686374592913933
aaa(lp567
I59
a(lp568
Vlowerarm_l
p569
aF0.99379325573551891
aa(lp570
Vhand_l
p571
aF0.0060853926805674802
aaa(lp572
I60
a(lp573
Vlowerarm_l
p574
aF0.60455293093964746
aa(lp575
Vhand_l
p576
aF0.39244196984948848
aa(lp577
Vthumb_01_l
p578
aF0.0022901184169234674
aaa(lp579
I61
a(lp580
Vlowerarm_l
p581
aF0.48657863526296602
aa(lp582
Vhand_l
p583
aF0.46882607839409313
aa(lp584
Vindex_01_l
p585
aF0.001865463654992417
aa(lp586
Vthumb_01_l
p587
aF0.035860904913613982
aa(lp588
Vthumb_02_l
p589
aF0.0068689177743345119
aaa(lp590
I62
a(lp591
Vlowerarm_l
p592
aF0.053248831725924491
aa(lp593
Vhand_l
p594
aF0.8269554502182147
aa(lp595
Vindex_01_l
p596
aF0.0029838454355717503
aa(lp597
Vthumb_01_l
p598
aF0.11179904170140607
aa(lp599
Vthumb_02_l
p600
aF0.005012830918882852
aaa(lp601
I63
a(lp602
Vlowerarm_l
p603
aF0.032311459525091915
aa(lp604
Vhand_l
p605
aF0.94157862054786545
aa(lp606
Vindex_01_l
p607
aF0.0030623902047473401
aa(lp608
Vmiddle_01_l
p609
aF0.0077175585559641846
aa(lp610
Vthumb_01_l
p611
aF0.015329971166331106
aaa(lp612
I64
a(lp613
Vlowerarm_l
p614
aF0.034193013137870397
aa(lp615
Vhand_l
p616
aF0.89541316446875985
aa(lp617
Vmiddle_01_l
p618
aF0.0022384633074775903
aa(lp619
Vthumb_01_l
p620
aF0.063658773958613316
aa(lp621
Vthumb_02_l
p622
aF0.00449658512727892
aaa(lp623
I65
a(lp624
Vlowerarm_l
p625
aF0.016488576720690779
aa(lp626
Vhand_l
p627
aF0.56117287278524786
aa(lp628
Vindex_01_l
p629
aF0.0019998617435144066
aa(lp630
Vthumb_01_l
p631
aF0.3985258610403033
aa(lp632
Vthumb_02_l
p633
aF0.0218128277102436
aaa(lp634
I66
a(lp635
Vhand_l
p636
aF0.81731070780040904
aa(lp637
Vindex_01_l
p638
aF0.081761171991093007
aa(lp639
Vmiddle_01_l
p640
aF0.042504942800178518
aa(lp641
Vthumb_01_l
p642
aF0.045511633808636313
aa(lp643
Vthumb_02_l
p644
aF0.012911543599683134
aaa(lp645
I67
a(lp646
Vhand_l
p647
aF0.74416660438091087
aa(lp648
Vindex_01_l
p649
aF0.0069833884126193988
aa(lp650
Vmiddle_01_l
p651
aF0.22464117393031535
aa(lp652
Vmiddle_02_l
p653
aF0.021082293345443089
aa(lp654
Vthumb_01_l
p655
aF0.0031265399307113116
aaa(lp656
I68
a(lp657
Vhand_l
p658
aF0.70675723510079258
aa(lp659
Vindex_01_l
p660
aF0.10412647269786349
aa(lp661
Vmiddle_01_l
p662
aF0.1011067483054903
aa(lp663
Vthumb_01_l
p664
aF0.062977907542170058
aa(lp665
Vthumb_02_l
p666
aF0.025031636353683644
aaa(lp667
I69
a(lp668
Vhand_l
p669
aF0.011366064726484137
aa(lp670
Vindex_01_l
p671
aF0.0030582845546486426
aa(lp672
Vthumb_01_l
p673
aF0.73936224809230389
aa(lp674
Vthumb_02_l
p675
aF0.24519059819298017
aa(lp676
Vthumb_03_l
p677
aF0.0010228044335831615
aaa(lp678
I70
a(lp679
Vhand_l
p680
aF0.45532511031951756
aa(lp681
Vindex_01_l
p682
aF0.44758240253452158
aa(lp683
Vindex_02_l
p684
aF0.012520340671109192
aa(lp685
Vmiddle_01_l
p686
aF0.074212460866624683
aa(lp687
Vmiddle_02_l
p688
aF0.01035968560822702
aaa(lp689
I71
a(lp690
Vhand_l
p691
aF0.13598805215029253
aa(lp692
Vmiddle_01_l
p693
aF0.8589988127513738
aa(lp694
Vmiddle_02_l
p695
aF0.0046082991789202421
aaa(lp696
I72
a(lp697
Vhand_l
p698
aF0.37201235775205016
aa(lp699
Vindex_01_l
p700
aF0.37846050325198738
aa(lp701
Vindex_02_l
p702
aF0.029581309768572234
aa(lp703
Vmiddle_01_l
p704
aF0.19182661501246021
aa(lp705
Vmiddle_02_l
p706
aF0.028119214214930046
aaa(lp707
I73
a(lp708
Vhand_l
p709
aF0.47161020964212169
aa(lp710
Vindex_01_l
p711
aF0.46883463935104447
aa(lp712
Vindex_02_l
p713
aF0.0086652255895636361
aa(lp714
Vthumb_01_l
p715
aF0.023011470217028415
aa(lp716
Vthumb_02_l
p717
aF0.027878455200241854
aaa.