(lp1
(lp2
I0
a(lp3
Vhand_r
p4
aF0.47296509547458215
aa(lp5
Vindex_01_r
p6
aF0.029795155902047996
aa(lp7
Vindex_02_r
p8
aF0.0038178512185228076
aa(lp9
Vmiddle_01_r
p10
aF0.47296509547458193
aa(lp11
Vmiddle_02_r
p12
aF0.020456801930265125
aaa(lp13
I1
a(lp14
Vhand_r
p15
aF0.49760503325375394
aa(lp16
Vindex_01_r
p17
aF0.0016898184655411612
aa(lp18
Vmiddle_01_r
p19
aF0.49760503325375371
aa(lp20
Vmiddle_02_r
p21
aF0.0028600700450115541
aaa(lp22
I2
a(lp23
Vhand_r
p24
aF0.081734742743301281
aa(lp25
Vindex_01_r
p26
aF0.0099779994607885926
aa(lp27
Vindex_02_r
p28
aF0.0058612823373192253
aa(lp29
Vmiddle_01_r
p30
aF0.54886066262073707
aa(lp31
Vmiddle_02_r
p32
aF0.35356531283785386
aaa(lp33
I3
a(lp34
Vhand_r
p35
aF0.040392867812687687
aa(lp36
Vindex_01_r
p37
aF0.0016609173967163087
aa(lp38
Vmiddle_01_r
p39
aF0.69126667763068927
aa(lp40
Vmiddle_02_r
p41
aF0.2657968766203857
aaa(lp42
I4
a(lp43
Vhand_r
p44
aF0.071765171201999184
aa(lp45
Vindex_01_r
p46
aF0.003318624100102671
aa(lp47
Vmiddle_01_r
p48
aF0.54552613713396891
aa(lp49
Vmiddle_02_r
p50
aF0.37754284995853116
aa(lp51
Vmiddle_03_r
p52
aF0.0018472176053979867
aaa(lp53
I5
a(lp54
Vhand_r
p55
aF0.032995844408780617
aa(lp56
Vmiddle_01_r
p57
aF0.67381702676087341
aa(lp58
Vmiddle_02_r
p59
aF0.29191704545991665
aaa(lp60
I6
a(lp61
Vhand_r
p62
aF0.54763917248435678
aa(lp63
Vindex_01_r
p64
aF0.0077023036264461655
aa(lp65
Vindex_02_r
p66
aF0.0013971538157757089
aa(lp67
Vmiddle_01_r
p68
aF0.42001000332602689
aa(lp69
Vmiddle_02_r
p70
aF0.023251366747394447
aaa(lp71
I7
a(lp72
Vhand_r
p73
aF0.63613160768508481
aa(lp74
Vmiddle_01_r
p75
aF0.3591047273417477
aa(lp76
Vmiddle_02_r
p77
aF0.0039067007896168224
aaa(lp78
I8
a(lp79
Vhand_r
p80
aF0.019362524449381167
aa(lp81
Vindex_01_r
p82
aF0.002540125492990561
aa(lp83
Vindex_02_r
p84
aF0.0018246548038397929
aa(lp85
Vmiddle_01_r
p86
aF0.49205947284541818
aa(lp87
Vmiddle_02_r
p88
aF0.48421322240837028
aaa(lp89
I9
a(lp90
Vhand_r
p91
aF0.0053983642805896107
aa(lp92
Vmiddle_01_r
p93
aF0.51582821554866209
aa(lp94
Vmiddle_02_r
p95
aF0.47809512205657567
aaa(lp96
I10
a(lp97
Vhand_r
p98
aF0.0035987305719768817
aa(lp99
Vmiddle_01_r
p100
aF0.50687083136131839
aa(lp101
Vmiddle_02_r
p102
aF0.48916528953182253
aaa(lp103
I11
a(lp104
Vhand_r
p105
aF0.015882735056810357
aa(lp106
Vindex_01_r
p107
aF0.0010343038736876909
aa(lp108
Vmiddle_01_r
p109
aF0.49184731756669758
aa(lp110
Vmiddle_02_r
p111
aF0.49007158429902287
aa(lp112
Vmiddle_03_r
p113
aF0.0011640592037815332
aaa(lp114
I12
a(lp115
Vhand_r
p116
aF0.76152232935636954
aa(lp117
Vindex_01_r
p118
aF0.0038511180310593835
aa(lp119
Vmiddle_01_r
p120
aF0.2295395694801434
aa(lp121
Vmiddle_02_r
p122
aF0.0045720182419927086
aaa(lp123
I13
a(lp124
Vhand_r
p125
aF0.99014054077751501
aa(lp126
Vmiddle_01_r
p127
aF0.0097842761977907228
aaa(lp128
I14
a(lp129
Vhand_r
p130
aF0.59998091068760029
aa(lp131
Vindex_01_r
p132
aF0.0016861541615923374
aa(lp133
Vmiddle_01_r
p134
aF0.39701509590035605
aa(lp135
Vmiddle_02_r
p136
aF0.0011666565012590524
aaa(lp137
I15
a(lp138
Vhand_r
p139
aF0.53355117733766466
aa(lp140
Vindex_01_r
p141
aF0.019310493044515535
aa(lp142
Vindex_02_r
p143
aF0.001460526185719635
aa(lp144
Vmiddle_01_r
p145
aF0.4385884747963108
aa(lp146
Vmiddle_02_r
p147
aF0.0070893286357893914
aaa(lp148
I16
a(lp149
Vhand_r
p150
aF0.012023806430767166
aa(lp151
Vmiddle_01_r
p152
aF0.60369086368792291
aa(lp153
Vmiddle_02_r
p154
aF0.38302768635512852
aaa(lp155
I17
a(lp156
Vhand_r
p157
aF0.0016614420566076202
aa(lp158
Vmiddle_01_r
p159
aF0.80511852546266949
aa(lp160
Vmiddle_02_r
p161
aF0.19311385608060863
aaa(lp162
I18
a(lp163
Vhand_r
p164
aF0.0010605111805177248
aa(lp165
Vmiddle_01_r
p166
aF0.81178109045095703
aa(lp167
Vmiddle_02_r
p168
aF0.18710203479997431
aaa(lp169
I19
a(lp170
Vhand_r
p171
aF0.010114712800175776
aa(lp172
Vmiddle_01_r
p173
aF0.59413138442244606
aa(lp174
Vmiddle_02_r
p175
aF0.39501950141390402
aaa(lp176
I20
a(lp177
Vhand_r
p178
aF0.48395847818794813
aa(lp179
Vindex_01_r
p180
aF0.017084450206449206
aa(lp181
Vindex_02_r
p182
aF0.002698719260173173
aa(lp183
Vmiddle_01_r
p184
aF0.47137087016932311
aa(lp185
Vmiddle_02_r
p186
aF0.024887482176106403
aaa(lp187
I21
a(lp188
Vhand_r
p189
aF0.076407070019380949
aa(lp190
Vindex_01_r
p191
aF0.0058202944397064086
aa(lp192
Vindex_02_r
p193
aF0.0032532800092327369
aa(lp194
Vmiddle_01_r
p195
aF0.54490605847864282
aa(lp196
Vmiddle_02_r
p197
aF0.36961329705303714
aaa(lp198
I22
a(lp199
Vhand_r
p200
aF0.011517554743253304
aa(lp201
Vmiddle_01_r
p202
aF0.53676905941945452
aa(lp203
Vmiddle_02_r
p204
aF0.45042543657046341
aaa(lp205
I23
a(lp206
Vhand_r
p207
aF0.010520920522037111
aa(lp208
Vindex_01_r
p209
aF0.0011054114314919357
aa(lp210
Vmiddle_01_r
p211
aF0.50413655930203682
aa(lp212
Vmiddle_02_r
p213
aF0.48345989914335002
aaa(lp214
I24
a(lp215
Vhand_r
p216
aF0.031922947195964238
aa(lp217
Vindex_01_r
p218
aF0.004635656552112892
aa(lp219
Vindex_02_r
p220
aF0.0032692828916550316
aa(lp221
Vmiddle_01_r
p222
aF0.493327923097374
aa(lp223
Vmiddle_02_r
p224
aF0.46684419026289381
aaa(lp225
I25
a(lp226
Vhand_r
p227
aF0.0082901051384753083
aa(lp228
Vmiddle_01_r
p229
aF0.52412455036205075
aa(lp230
Vmiddle_02_r
p231
aF0.46687265721300919
aaa(lp232
I26
a(lp233
Vhand_r
p234
aF0.0018116703046972063
aa(lp235
Vmiddle_01_r
p236
aF0.52427693056500535
aa(lp237
Vmiddle_02_r
p238
aF0.47372844637101652
aaa(lp239
I27
a(lp240
Vhand_r
p241
aF0.026683480386473633
aa(lp242
Vindex_01_r
p243
aF0.0016873600064271814
aa(lp244
Vmiddle_01_r
p245
aF0.49197280698412327
aa(lp246
Vmiddle_02_r
p247
aF0.47798587141215482
aa(lp248
Vmiddle_03_r
p249
aF0.0016704812108210487
aaa(lp250
I28
a(lp251
Vhand_r
p252
aF0.0071686472473190457
aa(lp253
Vmiddle_01_r
p254
aF0.49847846320842726
aa(lp255
Vmiddle_02_r
p256
aF0.49354388610122929
aaa(lp257
I29
a(lp258
Vhand_r
p259
aF0.018035852341871626
aa(lp260
Vindex_01_r
p261
aF0.001719254525979797
aa(lp262
Vmiddle_01_r
p263
aF0.49117303475705215
aa(lp264
Vmiddle_02_r
p265
aF0.48777814978067391
aa(lp266
Vmiddle_03_r
p267
aF0.0012937085944224431
aaa(lp268
I30
a(lp269
Vhand_r
p270
aF0.90549140357351032
aa(lp271
Vmiddle_01_r
p272
aF0.093296422786714905
aaa(lp273
I31
a(lp274
Vhand_r
p275
aF0.68669388664489228
aa(lp276
Vindex_01_r
p277
aF0.007381391650290399
aa(lp278
Vmiddle_01_r
p279
aF0.29391021131611672
aa(lp280
Vmiddle_02_r
p281
aF0.01085803838376501
aa(lp282
Vthumb_01_r
p283
aF0.0011564720049356153
aaa(lp284
I32
a(lp285
Vhand_r
p286
aF0.5112978266198368
aa(lp287
Vindex_01_r
p288
aF0.0035348643598069308
aa(lp289
Vmiddle_01_r
p290
aF0.48221656426696247
aa(lp291
Vmiddle_02_r
p292
aF0.0026065011341642945
aaa(lp293
I33
a(lp294
Vhand_r
p295
aF0.47835067824316319
aa(lp296
Vindex_01_r
p297
aF0.045809969027841041
aa(lp298
Vindex_02_r
p299
aF0.0035394852466007903
aa(lp300
Vmiddle_01_r
p301
aF0.45866994652625798
aa(lp302
Vmiddle_02_r
p303
aF0.013629920956137052
aaa(lp304
I34
a(lp305
Vhand_r
p306
aF0.0044098146198254086
aa(lp307
Vmiddle_01_r
p308
aF0.58971470520174751
aa(lp309
Vmiddle_02_r
p310
aF0.40546687242992424
aaa(lp311
I35
a(lp312
Vhand_r
p313
aF0.018435505197412452
aa(lp314
Vindex_01_r
p315
aF0.0018715981867410175
aa(lp316
Vindex_02_r
p317
aF0.0012540284419648674
aa(lp318
Vmiddle_01_r
p319
aF0.51753230839686515
aa(lp320
Vmiddle_02_r
p321
aF0.46090655977701656
aaa(lp322
I36
a(lp323
Vhand_r
p324
aF0.002934859102369204
aa(lp325
Vmiddle_01_r
p326
aF0.57525313920159771
aa(lp327
Vmiddle_02_r
p328
aF0.42159370389900874
aaa(lp329
I37
a(lp330
Vhand_r
p331
aF0.015231251915374278
aa(lp332
Vmiddle_01_r
p333
aF0.51148657108745599
aa(lp334
Vmiddle_02_r
p335
aF0.47169023304477137
aaa(lp336
I38
a(lp337
Vhand_r
p338
aF0.49035483474798042
aa(lp339
Vindex_01_r
p340
aF0.010053426790864493
aa(lp341
Vindex_02_r
p342
aF0.0012166199851769111
aa(lp343
Vmiddle_01_r
p344
aF0.49035483474798019
aa(lp345
Vmiddle_02_r
p346
aF0.0080202837279981665
aaa(lp347
I39
a(lp348
Vhand_r
p349
aF0.22769414495217227
aa(lp350
Vindex_01_r
p351
aF0.0022808659485869195
aa(lp352
Vmiddle_01_r
p353
aF0.73652822378819782
aa(lp354
Vmiddle_02_r
p355
aF0.032795127798886103
aaa(lp356
I40
a(lp357
Vhand_r
p358
aF0.057841515900187747
aa(lp359
Vindex_01_r
p360
aF0.0047842626614642047
aa(lp361
Vindex_02_r
p362
aF0.0027158194727447175
aa(lp363
Vmiddle_01_r
p364
aF0.62366073161821212
aa(lp365
Vmiddle_02_r
p366
aF0.31099767034739118
aaa(lp367
I41
a(lp368
Vhand_r
p369
aF0.30382049110278253
aa(lp370
Vindex_01_r
p371
aF0.019894481453096517
aa(lp372
Vindex_02_r
p373
aF0.0063904947974882413
aa(lp374
Vmiddle_01_r
p375
aF0.57104058972713201
aa(lp376
Vmiddle_02_r
p377
aF0.098853942919500573
aaa(lp378
I42
a(lp379
Vhand_r
p380
aF0.0061563267575131097
aa(lp381
Vmiddle_01_r
p382
aF0.7196124116092103
aa(lp383
Vmiddle_02_r
p384
aF0.27373785742480478
aaa(lp385
I43
a(lp386
Vmiddle_01_r
p387
aF0.97102363025931804
aa(lp388
Vmiddle_02_r
p389
aF0.02881049775644063
aaa(lp390
I44
a(lp391
Vhand_r
p392
aF0.0045211832351840378
aa(lp393
Vmiddle_01_r
p394
aF0.7086295855821465
aa(lp395
Vmiddle_02_r
p396
aF0.28660523298450363
aaa(lp397
I45
a(lp398
Vhand_r
p399
aF0.013346820550131594
aa(lp400
Vmiddle_01_r
p401
aF0.61708450541938209
aa(lp402
Vmiddle_02_r
p403
aF0.36849241497905255
aaa(lp404
I46
a(lp405
Vhand_r
p406
aF0.045945655106087925
aa(lp407
Vindex_01_r
p408
aF0.0012604692426874569
aa(lp409
Vmiddle_01_r
p410
aF0.60716164986782395
aa(lp411
Vmiddle_02_r
p412
aF0.34468272016942642
aaa(lp413
I47
a(lp414
Vhand_r
p415
aF0.21796113406746909
aa(lp416
Vindex_01_r
p417
aF0.001169622733561089
aa(lp418
Vmiddle_01_r
p419
aF0.73551826641292684
aa(lp420
Vmiddle_02_r
p421
aF0.045006632979942687
aaa(lp422
I48
a(lp423
Vhand_r
p424
aF0.64061552098834951
aa(lp425
Vindex_01_r
p426
aF0.0019708640618217354
aa(lp427
Vmiddle_01_r
p428
aF0.3475134798099539
aa(lp429
Vmiddle_02_r
p430
aF0.0095102058118514705
aaa(lp431
I49
a(lp432
Vhand_r
p433
aF0.29119461559928517
aa(lp434
Vindex_01_r
p435
aF0.0065875176075646706
aa(lp436
Vindex_02_r
p437
aF0.0021049807942439226
aa(lp438
Vmiddle_01_r
p439
aF0.58270709352179695
aa(lp440
Vmiddle_02_r
p441
aF0.1174057924771094
aaa(lp442
I50
a(lp443
Vhand_r
p444
aF0.94174713073933047
aa(lp445
Vmiddle_01_r
p446
aF0.057169551156020758
aaa(lp447
I51
a(lp448
Vhand_r
p449
aF0.92476182087528436
aa(lp450
Vmiddle_01_r
p451
aF0.074939469338914835
aaa(lp452
I52
a(lp453
Vhand_r
p454
aF0.54100896580039981
aa(lp455
Vindex_01_r
p456
aF0.0088432608824750986
aa(lp457
Vmiddle_01_r
p458
aF0.44620202148883026
aa(lp459
Vmiddle_02_r
p460
aF0.0033163118998705524
aaa(lp461
I53
a(lp462
Vhand_r
p463
aF0.62849156875644918
aa(lp464
Vindex_01_r
p465
aF0.011375447493355131
aa(lp466
Vindex_02_r
p467
aF0.0010813037796116832
aa(lp468
Vmiddle_01_r
p469
aF0.35201759695319201
aa(lp470
Vmiddle_02_r
p471
aF0.0070340830173919369
aaa(lp472
I54
a(lp473
Vhand_r
p474
aF0.5097792499244127
aa(lp475
Vmiddle_01_r
p476
aF0.48867543586402951
aa(lp477
Vmiddle_02_r
p478
aF0.0011759853129006696
aaa(lp479
I55
a(lp480
Vhand_r
p481
aF0.020929680507176338
aa(lp482
Vmiddle_01_r
p483
aF0.7647605794823189
aa(lp484
Vmiddle_02_r
p485
aF0.21355079482965805
aaa(lp486
I56
a(lp487
Vhand_r
p488
aF0.27568708269569503
aa(lp489
Vindex_01_r
p490
aF0.0084601192558033927
aa(lp491
Vindex_02_r
p492
aF0.0025981183522217743
aa(lp493
Vmiddle_01_r
p494
aF0.65582706373714217
aa(lp495
Vmiddle_02_r
p496
aF0.057427615959137514
aaa(lp497
I57
a(lp498
Vmiddle_01_r
p499
aF0.94348661773876796
aa(lp500
Vmiddle_02_r
p501
aF0.055884235466328411
aaa(lp502
I58
a(lp503
Vhand_r
p504
aF0.25608886423256344
aa(lp505
Vindex_01_r
p506
aF0.0024697532655610153
aa(lp507
Vmiddle_01_r
p508
aF0.66278000710559348
aa(lp509
Vmiddle_02_r
p510
aF0.077917221736187287
aaa(lp511
I59
a(lp512
Vhand_r
p513
aF0.89473011790588508
aa(lp514
Vmiddle_01_r
p515
aF0.10441373503170499
aaa(lp516
I60
a(lp517
Vhand_r
p518
aF0.15208880346635698
aa(lp519
Vmiddle_01_r
p520
aF0.82865046760216254
aa(lp521
Vmiddle_02_r
p522
aF0.018483876402050986
aaa(lp523
I61
a(lp524
Vhand_r
p525
aF0.29709994632618253
aa(lp526
Vindex_01_r
p527
aF0.011690346886607026
aa(lp528
Vindex_02_r
p529
aF0.0038877855379489713
aa(lp530
Vmiddle_01_r
p531
aF0.57518177465114295
aa(lp532
Vmiddle_02_r
p533
aF0.11214014659811859
aaa(lp534
I62
a(lp535
Vhand_r
p536
aF0.019117225281113943
aa(lp537
Vindex_01_r
p538
aF0.0021190964243698708
aa(lp539
Vindex_02_r
p540
aF0.0014561888663134966
aa(lp541
Vmiddle_01_r
p542
aF0.5158686565448819
aa(lp543
Vmiddle_02_r
p544
aF0.46143883288332072
aaa(lp545
I63
a(lp546
Vhand_r
p547
aF0.0048135556371659803
aa(lp548
Vmiddle_01_r
p549
aF0.55579567411227726
aa(lp550
Vmiddle_02_r
p551
aF0.4389836759543248
aaa(lp552
I64
a(lp553
Vhand_r
p554
aF0.013652442403901888
aa(lp555
Vmiddle_01_r
p556
aF0.50609230861959653
aa(lp557
Vmiddle_02_r
p558
aF0.47892024613387379
aaa(lp559
I65
a(lp560
Vhand_r
p561
aF0.029409772954075299
aa(lp562
Vindex_01_r
p563
aF0.0028825618801065177
aa(lp564
Vindex_02_r
p565
aF0.0019177419722064984
aa(lp566
Vmiddle_01_r
p567
aF0.49176433692367999
aa(lp568
Vmiddle_02_r
p569
aF0.47402558626993169
aaa(lp570
I66
a(lp571
Vhand_r
p572
aF0.86173822406677481
aa(lp573
Vindex_01_r
p574
aF0.0011371218294131274
aa(lp575
Vmiddle_01_r
p576
aF0.13427691112534096
aa(lp577
Vmiddle_02_r
p578
aF0.0026141433422278005
aaa(lp579
I67
a(lp580
Vhand_r
p581
aF0.73337387441502488
aa(lp582
Vmiddle_01_r
p583
aF0.26527584969287826
aaa(lp584
I68
a(lp585
Vhand_r
p586
aF0.48868386668578156
aa(lp587
Vindex_01_r
p588
aF0.018504822394997619
aa(lp589
Vindex_02_r
p590
aF0.0013574644015074508
aa(lp591
Vmiddle_01_r
p592
aF0.48530639885086868
aa(lp593
Vmiddle_02_r
p594
aF0.0061474476668447881
aaa(lp595
I69
a(lp596
Vhand_r
p597
aF0.55090450858442386
aa(lp598
Vindex_01_r
p599
aF0.021646574437702876
aa(lp600
Vindex_02_r
p601
aF0.0023567114390355502
aa(lp602
Vmiddle_01_r
p603
aF0.41041043009780509
aa(lp604
Vmiddle_02_r
p605
aF0.014681775441032607
aaa(lp606
I70
a(lp607
Vhand_r
p608
aF0.0096632262263274919
aa(lp609
Vmiddle_01_r
p610
aF0.54835357453035316
aa(lp611
Vmiddle_02_r
p612
aF0.440674546457622
aaa(lp613
I71
a(lp614
Vhand_r
p615
aF0.0012894458912914132
aa(lp616
Vmiddle_01_r
p617
aF0.64926083722929429
aa(lp618
Vmiddle_02_r
p619
aF0.34935404804154896
aaa(lp620
I72
a(lp621
Vhand_r
p622
aF0.0066781043506298366
aa(lp623
Vmiddle_01_r
p624
aF0.53353791708720677
aa(lp625
Vmiddle_02_r
p626
aF0.45922281212330118
aaa(lp627
I73
a(lp628
Vhand_r
p629
aF0.017538161049423604
aa(lp630
Vindex_01_r
p631
aF0.0013562780120994146
aa(lp632
Vmiddle_01_r
p633
aF0.51193102253608136
aa(lp634
Vmiddle_02_r
p635
aF0.46830504204535633
aaa.