(lp1
(lp2
I0
a(lp3
Vmiddle_01_r
p4
aF0.0013241398261396901
aa(lp5
Vmiddle_02_r
p6
aF0.50595569271788177
aa(lp7
Vmiddle_03_r
p8
aF0.4922825413344521
aaa(lp9
I1
a(lp10
Vmiddle_02_r
p11
aF0.75682210310960485
aa(lp12
Vmiddle_03_r
p13
aF0.24267338617197817
aaa(lp14
I2
a(lp15
Vhand_r
p16
aF0.022225170956869329
aa(lp17
Vindex_02_r
p18
aF0.017269511429138164
aa(lp19
Vmiddle_01_r
p20
aF0.05018573777153975
aa(lp21
Vmiddle_02_r
p22
aF0.45515978992122635
aa(lp23
Vmiddle_03_r
p24
aF0.45515978992122635
aaa(lp25
I3
a(lp26
Vhand_r
p27
aF0.029303156570222928
aa(lp28
Vindex_02_r
p29
aF0.019330758333820221
aa(lp30
Vmiddle_01_r
p31
aF0.064754687236466449
aa(lp32
Vmiddle_02_r
p33
aF0.4433056989297452
aa(lp34
Vmiddle_03_r
p35
aF0.4433056989297452
aaa(lp36
I4
a(lp37
Vhand_r
p38
aF0.022001607829038906
aa(lp39
Vindex_02_r
p40
aF0.012966241605251026
aa(lp41
Vmiddle_01_r
p42
aF0.050461591715138698
aa(lp43
Vmiddle_02_r
p44
aF0.45728527942528568
aa(lp45
Vmiddle_03_r
p46
aF0.45728527942528568
aaa(lp47
I5
a(lp48
Vhand_r
p49
aF0.029368403028725929
aa(lp50
Vindex_02_r
p51
aF0.01483952119309122
aa(lp52
Vmiddle_01_r
p53
aF0.065967250087606233
aa(lp54
Vmiddle_02_r
p55
aF0.44491241284528837
aa(lp56
Vmiddle_03_r
p57
aF0.44491241284528837
aaa(lp58
I6
a(lp59
Vmiddle_01_r
p60
aF0.001202194341430745
aa(lp61
Vmiddle_02_r
p62
aF0.54233012933040015
aa(lp63
Vmiddle_03_r
p64
aF0.45614133881263075
aaa(lp65
I7
a(lp66
Vmiddle_02_r
p67
aF0.98037910218488078
aa(lp68
Vmiddle_03_r
p69
aF0.019585447831888456
aaa(lp70
I8
a(lp71
Vhand_r
p72
aF0.0425331210242193
aa(lp73
Vindex_02_r
p74
aF0.02901978357337744
aa(lp75
Vmiddle_01_r
p76
aF0.083206710531202238
aa(lp77
Vmiddle_02_r
p78
aF0.42262019243560056
aa(lp79
Vmiddle_03_r
p80
aF0.42262019243560045
aaa(lp81
I9
a(lp82
Vhand_r
p83
aF0.044499782418959147
aa(lp84
Vindex_02_r
p85
aF0.029499408381712274
aa(lp86
Vmiddle_01_r
p87
aF0.0864908252546564
aa(lp88
Vmiddle_02_r
p89
aF0.41975499197233612
aa(lp90
Vmiddle_03_r
p91
aF0.41975499197233612
aaa(lp92
I10
a(lp93
Vhand_r
p94
aF0.044562993279568891
aa(lp95
Vindex_02_r
p96
aF0.028114961122031063
aa(lp97
Vmiddle_01_r
p98
aF0.086792867662181652
aa(lp99
Vmiddle_02_r
p100
aF0.42026458896810925
aa(lp101
Vmiddle_03_r
p102
aF0.42026458896810925
aaa(lp103
I11
a(lp104
Vhand_r
p105
aF0.042578438837546716
aa(lp106
Vindex_02_r
p107
aF0.027632803571880069
aa(lp108
Vmiddle_01_r
p109
aF0.083469281499815903
aa(lp110
Vmiddle_02_r
p111
aF0.42315973804537865
aa(lp112
Vmiddle_03_r
p113
aF0.42315973804537865
aaa(lp114
I12
a(lp115
Vhand_r
p116
aF0.0026182374549251122
aa(lp117
Vindex_02_r
p118
aF0.0014582154603243157
aa(lp119
Vmiddle_01_r
p120
aF0.0083779881727617279
aa(lp121
Vmiddle_02_r
p122
aF0.4937727794559944
aa(lp123
Vmiddle_03_r
p124
aF0.4937727794559944
aaa(lp125
I13
a(lp126
Vhand_r
p127
aF0.0029026481969758639
aa(lp128
Vindex_02_r
p129
aF0.0022758601308735639
aa(lp130
Vmiddle_01_r
p131
aF0.0089945795388102975
aa(lp132
Vmiddle_02_r
p133
aF0.49291345606666997
aa(lp134
Vmiddle_03_r
p135
aF0.4929134560666702
aaa(lp136
I14
a(lp137
Vhand_r
p138
aF0.0042829731746090692
aa(lp139
Vindex_02_r
p140
aF0.0027557667508503201
aa(lp141
Vmiddle_01_r
p142
aF0.013588255765475029
aa(lp143
Vmiddle_02_r
p144
aF0.4896865021545328
aa(lp145
Vmiddle_03_r
p146
aF0.4896865021545328
aaa(lp147
I15
a(lp148
Vhand_r
p149
aF0.0039533314926012515
aa(lp150
Vindex_02_r
p151
aF0.0018127503857686001
aa(lp152
Vmiddle_01_r
p153
aF0.013041470972982399
aa(lp154
Vmiddle_02_r
p155
aF0.49059622357432392
aa(lp156
Vmiddle_03_r
p157
aF0.49059622357432392
aaa(lp158
I16
a(lp159
Vmiddle_02_r
p160
aF0.51046495383860346
aa(lp161
Vmiddle_03_r
p162
aF0.48842620042733847
aaa(lp163
I17
a(lp164
Vmiddle_01_r
p165
aF0.0011215186666348261
aa(lp166
Vmiddle_02_r
p167
aF0.49920190636133738
aa(lp168
Vmiddle_03_r
p169
aF0.49920190636133738
aaa(lp170
I18
a(lp171
Vmiddle_02_r
p172
aF0.49939772064209403
aa(lp173
Vmiddle_03_r
p174
aF0.49939772064209403
aaa(lp175
I19
a(lp176
Vmiddle_02_r
p177
aF0.64706856927085821
aa(lp178
Vmiddle_03_r
p179
aF0.35243359751007231
aaa(lp180
I20
a(lp181
Vhand_r
p182
aF0.036236229864141933
aa(lp183
Vindex_02_r
p184
aF0.022767420412124959
aa(lp185
Vmiddle_01_r
p186
aF0.074053417529143462
aa(lp187
Vmiddle_02_r
p188
aF0.43347146609729481
aa(lp189
Vmiddle_03_r
p190
aF0.43347146609729481
aaa(lp191
I21
a(lp192
Vhand_r
p193
aF0.04097279522772436
aa(lp194
Vindex_02_r
p195
aF0.023941838582003886
aa(lp196
Vmiddle_01_r
p197
aF0.082463219674688781
aa(lp198
Vmiddle_02_r
p199
aF0.4263110732577915
aa(lp200
Vmiddle_03_r
p201
aF0.4263110732577915
aaa(lp202
I22
a(lp203
Vhand_r
p204
aF0.040839378580299436
aa(lp205
Vindex_02_r
p206
aF0.027090628162179664
aa(lp207
Vmiddle_01_r
p208
aF0.081713520646892218
aa(lp209
Vmiddle_02_r
p210
aF0.42517823630531432
aa(lp211
Vmiddle_03_r
p212
aF0.42517823630531432
aaa(lp213
I23
a(lp214
Vhand_r
p215
aF0.036208200551030183
aa(lp216
Vindex_02_r
p217
aF0.025909766225414081
aa(lp218
Vmiddle_01_r
p219
aF0.073558548306940474
aa(lp220
Vmiddle_02_r
p221
aF0.43216174245830746
aa(lp222
Vmiddle_03_r
p223
aF0.43216174245830768
aaa(lp224
I24
a(lp225
Vhand_r
p226
aF0.030589131338184552
aa(lp227
Vindex_02_r
p228
aF0.022869273307506183
aa(lp229
Vmiddle_01_r
p230
aF0.064523214090264763
aa(lp231
Vmiddle_02_r
p232
aF0.44100919063202221
aa(lp233
Vmiddle_03_r
p234
aF0.44100919063202221
aaa(lp235
I25
a(lp236
Vhand_r
p237
aF0.03729634268542182
aa(lp238
Vindex_02_r
p239
aF0.020303646136621181
aa(lp240
Vmiddle_01_r
p241
aF0.077808998480946592
aa(lp242
Vmiddle_02_r
p243
aF0.43229550634850522
aa(lp244
Vmiddle_03_r
p245
aF0.43229550634850522
aaa(lp246
I26
a(lp247
Vhand_r
p248
aF0.04171647860564217
aa(lp249
Vindex_02_r
p250
aF0.025617263048166417
aa(lp251
Vmiddle_01_r
p252
aF0.083503910361852882
aa(lp253
Vmiddle_02_r
p254
aF0.42458117399216927
aa(lp255
Vmiddle_03_r
p256
aF0.42458117399216927
aaa(lp257
I27
a(lp258
Vhand_r
p259
aF0.030532414614301014
aa(lp260
Vindex_02_r
p261
aF0.018614332558277855
aa(lp262
Vmiddle_01_r
p263
aF0.065056254497782587
aa(lp264
Vmiddle_02_r
p265
aF0.44289849916481927
aa(lp266
Vmiddle_03_r
p267
aF0.44289849916481927
aaa(lp268
I28
a(lp269
Vhand_r
p270
aF0.038492842819950142
aa(lp271
Vindex_02_r
p272
aF0.022849825835605964
aa(lp273
Vmiddle_01_r
p274
aF0.078175548612188644
aa(lp275
Vmiddle_02_r
p276
aF0.43024089136612748
aa(lp277
Vmiddle_03_r
p278
aF0.4302408913661277
aaa(lp279
I29
a(lp280
Vhand_r
p281
aF0.035469912197679893
aa(lp282
Vindex_02_r
p283
aF0.024044762575823216
aa(lp284
Vmiddle_01_r
p285
aF0.072459192775508635
aa(lp286
Vmiddle_02_r
p287
aF0.43401306622549418
aa(lp288
Vmiddle_03_r
p289
aF0.43401306622549418
aaa(lp290
I30
a(lp291
Vmiddle_01_r
p292
aF0.0019409512253610952
aa(lp293
Vmiddle_02_r
p294
aF0.49865986285620706
aa(lp295
Vmiddle_03_r
p296
aF0.49865986285620706
aaa(lp297
I31
a(lp298
Vmiddle_02_r
p299
aF0.49938509019576099
aa(lp300
Vmiddle_03_r
p301
aF0.49938509019576099
aaa(lp302
I32
a(lp303
Vmiddle_01_r
p304
aF0.0018968321521144337
aa(lp305
Vmiddle_02_r
p306
aF0.50378978237930361
aa(lp307
Vmiddle_03_r
p308
aF0.4937637870607145
aaa(lp309
I33
a(lp310
Vmiddle_02_r
p311
aF0.65382556997662156
aa(lp312
Vmiddle_03_r
p313
aF0.34504499891704765
aaa(lp314
I34
a(lp315
Vmiddle_02_r
p316
aF0.49938973883654714
aa(lp317
Vmiddle_03_r
p318
aF0.49938973883654703
aaa(lp319
I35
a(lp320
Vmiddle_02_r
p321
aF0.93536289602348532
aa(lp322
Vmiddle_03_r
p323
aF0.064458073329018567
aaa(lp324
I36
a(lp325
Vmiddle_02_r
p326
aF0.65123399223610068
aa(lp327
Vmiddle_03_r
p328
aF0.34836100596979669
aaa(lp329
I37
a(lp330
Vmiddle_02_r
p331
aF0.50594067830078793
aa(lp332
Vmiddle_03_r
p333
aF0.49336335278586757
aaa(lp334
I38
a(lp335
Vmiddle_01_r
p336
aF0.0025693951593911257
aa(lp337
Vmiddle_02_r
p338
aF0.49819638884455997
aa(lp339
Vmiddle_03_r
p340
aF0.49819638884455997
aaa(lp341
I39
a(lp342
Vmiddle_01_r
p343
aF0.0016782971960528895
aa(lp344
Vmiddle_02_r
p345
aF0.49875549656118501
aa(lp346
Vmiddle_03_r
p347
aF0.4987554965611849
aaa(lp348
I40
a(lp349
Vmiddle_01_r
p350
aF0.0012887820851040551
aa(lp351
Vmiddle_02_r
p352
aF0.49910566329365663
aa(lp353
Vmiddle_03_r
p354
aF0.49910566329365663
aaa(lp355
I41
a(lp356
Vmiddle_01_r
p357
aF0.0020344762643210545
aa(lp358
Vmiddle_02_r
p359
aF0.49865115524944786
aa(lp360
Vmiddle_03_r
p361
aF0.49865115524944786
aaa(lp362
I42
a(lp363
Vhand_r
p364
aF0.040470018604814681
aa(lp365
Vindex_02_r
p366
aF0.025963126643245953
aa(lp367
Vmiddle_01_r
p368
aF0.080385006668767051
aa(lp369
Vmiddle_02_r
p370
aF0.42659092404158622
aa(lp371
Vmiddle_03_r
p372
aF0.42659092404158622
aaa(lp373
I43
a(lp374
Vhand_r
p375
aF0.043656371168996462
aa(lp376
Vindex_02_r
p377
aF0.026742823066169166
aa(lp378
Vmiddle_01_r
p379
aF0.085816136728543602
aa(lp380
Vmiddle_02_r
p381
aF0.4218923345181454
aa(lp382
Vmiddle_03_r
p383
aF0.4218923345181454
aaa(lp384
I44
a(lp385
Vhand_r
p386
aF0.043556098594646715
aa(lp387
Vindex_02_r
p388
aF0.028930465423988701
aa(lp389
Vmiddle_01_r
p390
aF0.085321070169784352
aa(lp391
Vmiddle_02_r
p392
aF0.42109618290578998
aa(lp393
Vmiddle_03_r
p394
aF0.42109618290579021
aaa(lp395
I45
a(lp396
Vhand_r
p397
aF0.040416303917961451
aa(lp398
Vindex_02_r
p399
aF0.028154541800241874
aa(lp400
Vmiddle_01_r
p401
aF0.079995412964349838
aa(lp402
Vmiddle_02_r
p403
aF0.42571687065872343
aa(lp404
Vmiddle_03_r
p405
aF0.42571687065872343
aaa(lp406
I46
a(lp407
Vhand_r
p408
aF0.0034911013548473819
aa(lp409
Vindex_02_r
p410
aF0.0026444129390145871
aa(lp411
Vmiddle_01_r
p412
aF0.010893629821057977
aa(lp413
Vmiddle_02_r
p414
aF0.49148542794254002
aa(lp415
Vmiddle_03_r
p416
aF0.49148542794254002
aaa(lp417
I47
a(lp418
Vhand_r
p419
aF0.015250562902932448
aa(lp420
Vindex_02_r
p421
aF0.0099354965556506403
aa(lp422
Vmiddle_01_r
p423
aF0.039073865917640685
aa(lp424
Vmiddle_02_r
p425
aF0.46787003731188814
aa(lp426
Vmiddle_03_r
p427
aF0.46787003731188814
aaa(lp428
I48
a(lp429
Vhand_r
p430
aF0.025353752689340522
aa(lp431
Vindex_02_r
p432
aF0.019078541792925577
aa(lp433
Vmiddle_01_r
p434
aF0.056576445542863563
aa(lp435
Vmiddle_02_r
p436
aF0.4494956299874352
aa(lp437
Vmiddle_03_r
p438
aF0.4494956299874352
aaa(lp439
I49
a(lp440
Vhand_r
p441
aF0.010899367948584145
aa(lp442
Vindex_02_r
p443
aF0.0085302281874459814
aa(lp444
Vmiddle_01_r
p445
aF0.028097305420190691
aa(lp446
Vmiddle_02_r
p447
aF0.47623654922188963
aa(lp448
Vmiddle_03_r
p449
aF0.47623654922188963
aaa(lp450
I50
a(lp451
Vhand_r
p452
aF0.044048811175360914
aa(lp453
Vindex_02_r
p454
aF0.029801341457338655
aa(lp455
Vmiddle_01_r
p456
aF0.085565621169348724
aa(lp457
Vmiddle_02_r
p458
aF0.42029211309897579
aa(lp459
Vmiddle_03_r
p460
aF0.42029211309897579
aaa(lp461
I51
a(lp462
Vhand_r
p463
aF0.045263019609482751
aa(lp464
Vindex_02_r
p465
aF0.029247885042772669
aa(lp466
Vmiddle_01_r
p467
aF0.087689541715814057
aa(lp468
Vmiddle_02_r
p469
aF0.41889977681596524
aa(lp470
Vmiddle_03_r
p471
aF0.41889977681596524
aaa(lp472
I52
a(lp473
Vhand_r
p474
aF0.044115229295895723
aa(lp475
Vindex_02_r
p476
aF0.028162312339133775
aa(lp477
Vmiddle_01_r
p478
aF0.085900367710078876
aa(lp479
Vmiddle_02_r
p480
aF0.42091104532744567
aa(lp481
Vmiddle_03_r
p482
aF0.42091104532744589
aaa(lp483
I53
a(lp484
Vhand_r
p485
aF0.042937462057991004
aa(lp486
Vindex_02_r
p487
aF0.028683923280724846
aa(lp488
Vmiddle_01_r
p489
aF0.083823391104675862
aa(lp490
Vmiddle_02_r
p491
aF0.42227761177830403
aa(lp492
Vmiddle_03_r
p493
aF0.42227761177830425
aaa(lp494
I54
a(lp495
Vhand_r
p496
aF0.025207552318585159
aa(lp497
Vindex_02_r
p498
aF0.013201566024822104
aa(lp499
Vmiddle_01_r
p500
aF0.057465966347709625
aa(lp501
Vmiddle_02_r
p502
aF0.45206245765444164
aa(lp503
Vmiddle_03_r
p504
aF0.45206245765444153
aaa(lp505
I55
a(lp506
Vhand_r
p507
aF0.014986295719242766
aa(lp508
Vindex_02_r
p509
aF0.0072012999031204226
aa(lp510
Vmiddle_01_r
p511
aF0.039374856320609275
aa(lp512
Vmiddle_02_r
p513
aF0.46921877402851375
aa(lp514
Vmiddle_03_r
p515
aF0.46921877402851375
aaa(lp516
I56
a(lp517
Vhand_r
p518
aF0.0030787100644039237
aa(lp519
Vindex_02_r
p520
aF0.0014805351930798972
aa(lp521
Vmiddle_01_r
p522
aF0.010071388194236407
aa(lp523
Vmiddle_02_r
p524
aF0.49268468327413995
aa(lp525
Vmiddle_03_r
p526
aF0.49268468327413995
aaa(lp527
I57
a(lp528
Vhand_r
p529
aF0.010529674003784573
aa(lp530
Vindex_02_r
p531
aF0.0060337196211608943
aa(lp532
Vmiddle_01_r
p533
aF0.027756445408775837
aa(lp534
Vmiddle_02_r
p535
aF0.47784008048313942
aa(lp536
Vmiddle_03_r
p537
aF0.47784008048313942
aaa(lp538
I58
a(lp539
Vmiddle_02_r
p540
aF0.73928331879698417
aa(lp541
Vmiddle_03_r
p542
aF0.26002763469438994
aaa(lp543
I59
a(lp544
Vmiddle_02_r
p545
aF0.99484420392110273
aa(lp546
Vmiddle_03_r
p547
aF0.005146899603097623
aaa(lp548
I60
a(lp549
Vmiddle_02_r
p550
aF0.57185325975364321
aa(lp551
Vmiddle_03_r
p552
aF0.42689513583408523
aaa(lp553
I61
a(lp554
Vmiddle_01_r
p555
aF0.001394953658708783
aa(lp556
Vmiddle_02_r
p557
aF0.51500183409542355
aa(lp558
Vmiddle_03_r
p559
aF0.48318145423447628
aaa(lp560
I62
a(lp561
Vhand_r
p562
aF0.004308630093436328
aa(lp563
Vindex_02_r
p564
aF0.0022433901103421409
aa(lp565
Vmiddle_01_r
p566
aF0.014034484749042281
aa(lp567
Vmiddle_02_r
p568
aF0.4897067475235895
aa(lp569
Vmiddle_03_r
p570
aF0.48970674752358972
aaa(lp571
I63
a(lp572
Vhand_r
p573
aF0.030634798475367764
aa(lp574
Vindex_02_r
p575
aF0.017117699149114228
aa(lp576
Vmiddle_01_r
p577
aF0.068036054100876292
aa(lp578
Vmiddle_02_r
p579
aF0.44210572413732085
aa(lp580
Vmiddle_03_r
p581
aF0.44210572413732085
aaa(lp582
I64
a(lp583
Vhand_r
p584
aF0.0025179648870392196
aa(lp585
Vindex_02_r
p586
aF0.0017027384707305449
aa(lp587
Vmiddle_01_r
p588
aF0.007908911862354864
aa(lp589
Vmiddle_02_r
p590
aF0.49393519238993772
aa(lp591
Vmiddle_03_r
p592
aF0.49393519238993772
aaa(lp593
I65
a(lp594
Vhand_r
p595
aF0.020998915444935366
aa(lp596
Vindex_02_r
p597
aF0.01449745526397744
aa(lp598
Vmiddle_01_r
p599
aF0.047974496727874738
aa(lp600
Vmiddle_02_r
p601
aF0.45826456628160622
aa(lp602
Vmiddle_03_r
p603
aF0.45826456628160622
aaa(lp604
I66
a(lp605
Vhand_r
p606
aF0.03712910374538831
aa(lp607
Vindex_02_r
p608
aF0.024616336634495386
aa(lp609
Vmiddle_01_r
p610
aF0.076680061790266207
aa(lp611
Vmiddle_02_r
p612
aF0.43078724891492504
aa(lp613
Vmiddle_03_r
p614
aF0.43078724891492504
aaa(lp615
I67
a(lp616
Vhand_r
p617
aF0.038390932255100846
aa(lp618
Vindex_02_r
p619
aF0.027047466442614337
aa(lp620
Vmiddle_01_r
p621
aF0.07735633758471884
aa(lp622
Vmiddle_02_r
p623
aF0.428602631858783
aa(lp624
Vmiddle_03_r
p625
aF0.428602631858783
aaa(lp626
I68
a(lp627
Vhand_r
p628
aF0.012791459458030934
aa(lp629
Vindex_02_r
p630
aF0.0096735779075005201
aa(lp631
Vmiddle_01_r
p632
aF0.032797400927983882
aa(lp633
Vmiddle_02_r
p634
aF0.47236878085324235
aa(lp635
Vmiddle_03_r
p636
aF0.47236878085324235
aaa(lp637
I69
a(lp638
Vhand_r
p639
aF0.044775811090748907
aa(lp640
Vindex_02_r
p641
aF0.029482596039774548
aa(lp642
Vmiddle_01_r
p643
aF0.086681020565896924
aa(lp644
Vmiddle_02_r
p645
aF0.41953028615178978
aa(lp646
Vmiddle_03_r
p647
aF0.41953028615178978
aaa(lp648
I70
a(lp649
Vhand_r
p650
aF0.012341133748218771
aa(lp651
Vindex_02_r
p652
aF0.0061865851009676766
aa(lp653
Vmiddle_01_r
p654
aF0.032661022655632435
aa(lp655
Vmiddle_02_r
p656
aF0.47440562924759055
aa(lp657
Vmiddle_03_r
p658
aF0.47440562924759055
aaa(lp659
I71
a(lp660
Vmiddle_02_r
p661
aF0.75218083289286486
aa(lp662
Vmiddle_03_r
p663
aF0.24743674356295622
aaa(lp664
I72
a(lp665
Vhand_r
p666
aF0.015885490251583784
aa(lp667
Vindex_02_r
p668
aF0.0085570595624671376
aa(lp669
Vmiddle_01_r
p670
aF0.041225697923188941
aa(lp671
Vmiddle_02_r
p672
aF0.46716587613138011
aa(lp673
Vmiddle_03_r
p674
aF0.46716587613138011
aaa(lp675
I73
a(lp676
Vhand_r
p677
aF0.010020794340812187
aa(lp678
Vindex_02_r
p679
aF0.0068588190979086486
aa(lp680
Vmiddle_01_r
p681
aF0.026166712566964137
aa(lp682
Vmiddle_02_r
p683
aF0.47847683699715765
aa(lp684
Vmiddle_03_r
p685
aF0.47847683699715743
aaa(lp686
I74
a(lp687
Vhand_r
p688
aF0.033576954748065629
aa(lp689
Vindex_02_r
p690
aF0.024500727629100251
aa(lp691
Vmiddle_01_r
p692
aF0.070029731736507533
aa(lp693
Vmiddle_02_r
p694
aF0.43594629294316328
aa(lp695
Vmiddle_03_r
p696
aF0.43594629294316328
aaa(lp697
I75
a(lp698
Vhand_r
p699
aF0.038389579396349273
aa(lp700
Vindex_02_r
p701
aF0.022542114391949766
aa(lp702
Vmiddle_01_r
p703
aF0.079414064666001538
aa(lp704
Vmiddle_02_r
p705
aF0.42982712077284974
aa(lp706
Vmiddle_03_r
p707
aF0.42982712077284974
aaa(lp708
I76
a(lp709
Vhand_r
p710
aF0.033630298164966259
aa(lp711
Vindex_02_r
p712
aF0.018778516860824688
aa(lp713
Vmiddle_01_r
p714
aF0.071095963194945405
aa(lp715
Vmiddle_02_r
p716
aF0.43824761088963177
aa(lp717
Vmiddle_03_r
p718
aF0.43824761088963177
aaa(lp719
I77
a(lp720
Vhand_r
p721
aF0.029515805388252978
aa(lp722
Vindex_02_r
p723
aF0.02024694452268452
aa(lp724
Vmiddle_01_r
p725
aF0.062801830470414363
aa(lp726
Vmiddle_02_r
p727
aF0.44371770980932407
aa(lp728
Vmiddle_03_r
p729
aF0.44371770980932407
aaa(lp730
I78
a(lp731
Vmiddle_01_r
p732
aF0.001803610984014857
aa(lp733
Vmiddle_02_r
p734
aF0.49879006064131998
aa(lp735
Vmiddle_03_r
p736
aF0.49879006064131998
aaa(lp737
I79
a(lp738
Vmiddle_01_r
p739
aF0.0014153190857264075
aa(lp740
Vmiddle_02_r
p741
aF0.5083142337491352
aa(lp742
Vmiddle_03_r
p743
aF0.48977920593426105
aaa(lp744
I80
a(lp745
Vmiddle_02_r
p746
aF0.97117995487806408
aa(lp747
Vmiddle_03_r
p748
aF0.028762057415538146
aaa(lp749
I81
a(lp750
Vmiddle_02_r
p751
aF0.62981047498961207
aa(lp752
Vmiddle_03_r
p753
aF0.36898043748186982
aaa(lp754
I82
a(lp755
Vmiddle_01_r
p756
aF0.0019691801002954049
aa(lp757
Vmiddle_02_r
p758
aF0.49856100700734507
aa(lp759
Vmiddle_03_r
p760
aF0.49856100700734507
aaa(lp761
I83
a(lp762
Vmiddle_01_r
p763
aF0.0012512336939523307
aa(lp764
Vmiddle_02_r
p765
aF0.49909963675094138
aa(lp766
Vmiddle_03_r
p767
aF0.49909963675094138
aaa(lp768
I84
a(lp769
Vmiddle_01_r
p770
aF0.0013683484830554139
aa(lp771
Vmiddle_02_r
p772
aF0.49907955041873636
aa(lp773
Vmiddle_03_r
p774
aF0.49907955041873614
aaa(lp775
I85
a(lp776
Vmiddle_01_r
p777
aF0.0022625354495168408
aa(lp778
Vmiddle_02_r
p779
aF0.4984759920512436
aa(lp780
Vmiddle_03_r
p781
aF0.4984759920512436
aaa(lp782
I86
a(lp783
Vhand_r
p784
aF0.042024397405460379
aa(lp785
Vindex_02_r
p786
aF0.025997816409455789
aa(lp787
Vmiddle_01_r
p788
aF0.083101631399884718
aa(lp789
Vmiddle_02_r
p790
aF0.42443807739259953
aa(lp791
Vmiddle_03_r
p792
aF0.42443807739259953
aaa(lp793
I87
a(lp794
Vhand_r
p795
aF0.044145829072338286
aa(lp796
Vindex_02_r
p797
aF0.027924245506451471
aa(lp798
Vmiddle_01_r
p799
aF0.086478173876492925
aa(lp800
Vmiddle_02_r
p801
aF0.42072587577235881
aa(lp802
Vmiddle_03_r
p803
aF0.42072587577235859
aaa(lp804
I88
a(lp805
Vhand_r
p806
aF0.04192317994760713
aa(lp807
Vindex_02_r
p808
aF0.028918234322863928
aa(lp809
Vmiddle_01_r
p810
aF0.082514323267435422
aa(lp811
Vmiddle_02_r
p812
aF0.42332213123104673
aa(lp813
Vmiddle_03_r
p814
aF0.42332213123104673
aaa(lp815
I89
a(lp816
Vhand_r
p817
aF0.039928101154328058
aa(lp818
Vindex_02_r
p819
aF0.026886336913323861
aa(lp820
Vmiddle_01_r
p821
aF0.079306732328964735
aa(lp822
Vmiddle_02_r
p823
aF0.42693941480169173
aa(lp824
Vmiddle_03_r
p825
aF0.42693941480169173
aaa.