(lp1
(lp2
I0
a(lp3
Vmiddle_01_l
p4
aF0.001459009224505724
aa(lp5
Vmiddle_02_l
p6
aF0.4990163862617647
aa(lp7
Vmiddle_03_l
p8
aF0.4990163862617647
aaa(lp9
I1
a(lp10
Vmiddle_02_l
p11
aF0.58663538855940223
aa(lp12
Vmiddle_03_l
p13
aF0.41306407002488726
aaa(lp14
I2
a(lp15
Vhand_l
p16
aF0.022767766032008748
aa(lp17
Vindex_02_l
p18
aF0.019310531265599045
aa(lp19
Vmiddle_01_l
p20
aF0.04984987064802552
aa(lp21
Vmiddle_02_l
p22
aF0.45403591602718335
aa(lp23
Vmiddle_03_l
p24
aF0.45403591602718335
aaa(lp25
I3
a(lp26
Vhand_l
p27
aF0.028251619641749288
aa(lp28
Vindex_02_l
p29
aF0.020799290164795228
aa(lp30
Vmiddle_01_l
p31
aF0.06039234870978006
aa(lp32
Vmiddle_02_l
p33
aF0.44527837074183768
aa(lp34
Vmiddle_03_l
p35
aF0.44527837074183768
aaa(lp36
I4
a(lp37
Vhand_l
p38
aF0.02244878391644797
aa(lp39
Vindex_02_l
p40
aF0.014447502535876063
aa(lp41
Vmiddle_01_l
p42
aF0.04979277351596588
aa(lp43
Vmiddle_02_l
p44
aF0.45665547001585521
aa(lp45
Vmiddle_03_l
p46
aF0.45665547001585499
aaa(lp47
I5
a(lp48
Vhand_l
p49
aF0.028108463434221014
aa(lp50
Vindex_02_l
p51
aF0.015857837529693941
aa(lp52
Vmiddle_01_l
p53
aF0.060888276377804668
aa(lp54
Vmiddle_02_l
p55
aF0.44757271132914023
aa(lp56
Vmiddle_03_l
p57
aF0.44757271132914023
aaa(lp58
I6
a(lp59
Vmiddle_01_l
p60
aF0.001292499064441824
aa(lp61
Vmiddle_02_l
p62
aF0.50081881257908023
aa(lp63
Vmiddle_03_l
p64
aF0.4975146438758038
aaa(lp65
I7
a(lp66
Vmiddle_02_l
p67
aF0.86776239162495872
aa(lp68
Vmiddle_03_l
p69
aF0.13218982770271195
aaa(lp70
I8
a(lp71
Vhand_l
p72
aF0.041692780753107221
aa(lp73
Vindex_02_l
p74
aF0.031265424694659635
aa(lp75
Vmiddle_01_l
p76
aF0.07959254557676905
aa(lp77
Vmiddle_02_l
p78
aF0.42372462448773207
aa(lp79
Vmiddle_03_l
p80
aF0.42372462448773207
aaa(lp81
I9
a(lp82
Vhand_l
p83
aF0.043282341888070973
aa(lp84
Vindex_02_l
p85
aF0.031651364709724635
aa(lp86
Vmiddle_01_l
p87
aF0.08208429686476644
aa(lp88
Vmiddle_02_l
p89
aF0.42149099826871894
aa(lp90
Vmiddle_03_l
p91
aF0.42149099826871894
aaa(lp92
I10
a(lp93
Vhand_l
p94
aF0.043307033442342893
aa(lp95
Vindex_02_l
p96
aF0.030138158362591656
aa(lp97
Vmiddle_01_l
p98
aF0.082270752586929521
aa(lp99
Vmiddle_02_l
p100
aF0.42214202780406795
aa(lp101
Vmiddle_03_l
p102
aF0.42214202780406795
aaa(lp103
I11
a(lp104
Vhand_l
p105
aF0.041704762207309502
aa(lp106
Vindex_02_l
p107
aF0.029745869708074229
aa(lp108
Vmiddle_01_l
p109
aF0.079752772766871705
aa(lp110
Vmiddle_02_l
p111
aF0.42439829765887238
aa(lp112
Vmiddle_03_l
p113
aF0.42439829765887216
aaa(lp114
I12
a(lp115
Vhand_l
p116
aF0.0033388726702157775
aa(lp117
Vindex_02_l
p118
aF0.0020005693723193804
aa(lp119
Vmiddle_01_l
p120
aF0.010162750342619728
aa(lp121
Vmiddle_02_l
p122
aF0.49224890380742253
aa(lp123
Vmiddle_03_l
p124
aF0.49224890380742253
aaa(lp125
I13
a(lp126
Vhand_l
p127
aF0.0036847185136750942
aa(lp128
Vindex_02_l
p129
aF0.0030968766402545344
aa(lp130
Vmiddle_01_l
p131
aF0.010921558069721456
aa(lp132
Vmiddle_02_l
p133
aF0.49114842338817444
aa(lp134
Vmiddle_03_l
p135
aF0.49114842338817444
aaa(lp136
I14
a(lp137
Vhand_l
p138
aF0.0044884555190550877
aa(lp139
Vindex_02_l
p140
aF0.0031942511234908087
aa(lp141
Vmiddle_01_l
p142
aF0.013469707059088717
aa(lp143
Vmiddle_02_l
p144
aF0.48942379314918266
aa(lp145
Vmiddle_03_l
p146
aF0.48942379314918266
aaa(lp147
I15
a(lp148
Vhand_l
p149
aF0.0040834958359645349
aa(lp150
Vindex_02_l
p151
aF0.0020786074557310684
aa(lp152
Vmiddle_01_l
p153
aF0.012644157785105865
aa(lp154
Vmiddle_02_l
p155
aF0.49059686946159925
aa(lp156
Vmiddle_03_l
p157
aF0.49059686946159925
aaa(lp158
I16
a(lp159
Vmiddle_02_l
p160
aF0.49962419358537125
aa(lp161
Vmiddle_03_l
p162
aF0.49962419358537102
aaa(lp163
I17
a(lp164
Vmiddle_01_l
p165
aF0.0018847311579022743
aa(lp166
Vmiddle_02_l
p167
aF0.49863760431239573
aa(lp168
Vmiddle_03_l
p169
aF0.49863760431239573
aaa(lp170
I18
a(lp171
Vmiddle_01_l
p172
aF0.0015152477678957435
aa(lp173
Vmiddle_02_l
p174
aF0.49898220270020532
aa(lp175
Vmiddle_03_l
p176
aF0.49898220270020532
aaa(lp177
I19
a(lp178
Vmiddle_02_l
p179
aF0.50474138712083527
aa(lp180
Vmiddle_03_l
p181
aF0.49498064301501776
aaa(lp182
I20
a(lp183
Vhand_l
p184
aF0.035816753080700481
aa(lp185
Vindex_02_l
p186
aF0.024685625395157753
aa(lp187
Vmiddle_01_l
p188
aF0.071238353912979016
aa(lp189
Vmiddle_02_l
p190
aF0.43412963380558139
aa(lp191
Vmiddle_03_l
p192
aF0.43412963380558139
aaa(lp193
I21
a(lp194
Vhand_l
p195
aF0.039595826349758709
aa(lp196
Vindex_02_l
p197
aF0.025628982382410823
aa(lp198
Vmiddle_01_l
p199
aF0.07752186901409884
aa(lp200
Vmiddle_02_l
p201
aF0.42862666112686587
aa(lp202
Vmiddle_03_l
p203
aF0.42862666112686576
aaa(lp204
I22
a(lp205
Vhand_l
p206
aF0.039566694659076723
aa(lp207
Vindex_02_l
p208
aF0.029075917163149837
aa(lp209
Vmiddle_01_l
p210
aF0.077093294760525455
aa(lp211
Vmiddle_02_l
p212
aF0.42713204670862387
aa(lp213
Vmiddle_03_l
p214
aF0.42713204670862409
aaa(lp215
I23
a(lp216
Vhand_l
p217
aF0.035859966086529228
aa(lp218
Vindex_02_l
p219
aF0.028150955454521988
aa(lp220
Vmiddle_01_l
p221
aF0.070974438572230528
aa(lp222
Vmiddle_02_l
p223
aF0.43250731994335917
aa(lp224
Vmiddle_03_l
p225
aF0.43250731994335917
aaa(lp226
I24
a(lp227
Vhand_l
p228
aF0.030649027415938335
aa(lp229
Vindex_02_l
p230
aF0.025086488713732234
aa(lp231
Vmiddle_01_l
p232
aF0.062883762411934357
aa(lp233
Vmiddle_02_l
p234
aF0.44069036072919754
aa(lp235
Vmiddle_03_l
p236
aF0.44069036072919754
aaa(lp237
I25
a(lp238
Vhand_l
p239
aF0.035826133704040579
aa(lp240
Vindex_02_l
p241
aF0.021690103805501123
aa(lp242
Vmiddle_01_l
p243
aF0.072490278103540473
aa(lp244
Vmiddle_02_l
p245
aF0.43499674219345891
aa(lp246
Vmiddle_03_l
p247
aF0.43499674219345891
aaa(lp248
I26
a(lp249
Vhand_l
p250
aF0.040220241733715634
aa(lp251
Vindex_02_l
p252
aF0.027405639716475999
aa(lp253
Vmiddle_01_l
p254
aF0.078351581198039089
aa(lp255
Vmiddle_02_l
p256
aF0.42701126867588463
aa(lp257
Vmiddle_03_l
p258
aF0.42701126867588463
aaa(lp259
I27
a(lp260
Vhand_l
p261
aF0.030499743902948132
aa(lp262
Vindex_02_l
p263
aF0.020357600880942021
aa(lp264
Vmiddle_01_l
p265
aF0.063104025086240481
aa(lp266
Vmiddle_02_l
p267
aF0.44301931506493475
aa(lp268
Vmiddle_03_l
p269
aF0.44301931506493475
aaa(lp270
I28
a(lp271
Vhand_l
p272
aF0.037604160924348116
aa(lp273
Vindex_02_l
p274
aF0.024604805752414478
aa(lp275
Vmiddle_01_l
p276
aF0.074294323547613339
aa(lp277
Vmiddle_02_l
p278
aF0.43174835488781199
aa(lp279
Vmiddle_03_l
p280
aF0.43174835488781199
aaa(lp281
I29
a(lp282
Vhand_l
p283
aF0.035229095932860381
aa(lp284
Vindex_02_l
p285
aF0.026156787050272533
aa(lp286
Vmiddle_01_l
p287
aF0.070082841153712716
aa(lp288
Vmiddle_02_l
p289
aF0.43426563793157724
aa(lp290
Vmiddle_03_l
p291
aF0.43426563793157713
aaa(lp292
I30
a(lp293
Vmiddle_01_l
p294
aF0.0024258611282738187
aa(lp295
Vmiddle_02_l
p296
aF0.49830477384093474
aa(lp297
Vmiddle_03_l
p298
aF0.49830477384093474
aaa(lp299
I31
a(lp300
Vmiddle_01_l
p301
aF0.001724859507324349
aa(lp302
Vmiddle_02_l
p303
aF0.49879479696833851
aa(lp304
Vmiddle_03_l
p305
aF0.49879479696833839
aaa(lp306
I32
a(lp307
Vmiddle_01_l
p308
aF0.0021993479584393109
aa(lp309
Vmiddle_02_l
p310
aF0.4985628620343085
aa(lp311
Vmiddle_03_l
p312
aF0.49856286203430872
aaa(lp313
I33
a(lp314
Vmiddle_02_l
p315
aF0.53223860718622562
aa(lp316
Vmiddle_03_l
p317
aF0.46711293366926382
aaa(lp318
I34
a(lp319
Vmiddle_01_l
p320
aF0.0011010265732209865
aa(lp321
Vmiddle_02_l
p322
aF0.49921731257300622
aa(lp323
Vmiddle_03_l
p324
aF0.49921731257300622
aaa(lp325
I35
a(lp326
Vmiddle_02_l
p327
aF0.77181764096756611
aa(lp328
Vmiddle_03_l
p329
aF0.22803427515264324
aaa(lp330
I36
a(lp331
Vmiddle_02_l
p332
aF0.50285541762675745
aa(lp333
Vmiddle_03_l
p334
aF0.49699371806147974
aaa(lp335
I37
a(lp336
Vmiddle_02_l
p337
aF0.49960938182372272
aa(lp338
Vmiddle_03_l
p339
aF0.49960938182372294
aaa(lp340
I38
a(lp341
Vmiddle_01_l
p342
aF0.0026478565575239876
aa(lp343
Vmiddle_02_l
p344
aF0.49808227301768415
aa(lp345
Vmiddle_03_l
p346
aF0.49808227301768415
aaa(lp347
I39
a(lp348
Vmiddle_01_l
p349
aF0.0028894714284650354
aa(lp350
Vmiddle_02_l
p351
aF0.49780795651487963
aa(lp352
Vmiddle_03_l
p353
aF0.49780795651487952
aaa(lp354
I40
a(lp355
Vmiddle_01_l
p356
aF0.0023351427412629977
aa(lp357
Vmiddle_02_l
p358
aF0.49834447513211422
aa(lp359
Vmiddle_03_l
p360
aF0.49834447513211411
aaa(lp361
I41
a(lp362
Vmiddle_01_l
p363
aF0.0019706438828511964
aa(lp364
Vmiddle_02_l
p365
aF0.49865526600814769
aa(lp366
Vmiddle_03_l
p367
aF0.49865526600814769
aaa(lp368
I42
a(lp369
Vhand_l
p370
aF0.03976416214910429
aa(lp371
Vindex_02_l
p372
aF0.028012578950540545
aa(lp373
Vmiddle_01_l
p374
aF0.076992732989912077
aa(lp375
Vmiddle_02_l
p376
aF0.42761526295522156
aa(lp377
Vmiddle_03_l
p378
aF0.42761526295522156
aaa(lp379
I43
a(lp380
Vhand_l
p381
aF0.042327485552011518
aa(lp382
Vindex_02_l
p383
aF0.028645291980977955
aa(lp384
Vmiddle_01_l
p385
aF0.081090037537983078
aa(lp386
Vmiddle_02_l
p387
aF0.42396859246451374
aa(lp388
Vmiddle_03_l
p389
aF0.42396859246451374
aaa(lp390
I44
a(lp391
Vhand_l
p392
aF0.042292163315224791
aa(lp393
Vindex_02_l
p394
aF0.031037235101640841
aa(lp395
Vmiddle_01_l
p396
aF0.080790880308069829
aa(lp397
Vmiddle_02_l
p398
aF0.42293986063753231
aa(lp399
Vmiddle_03_l
p400
aF0.42293986063753219
aaa(lp401
I45
a(lp402
Vhand_l
p403
aF0.03976146514646995
aa(lp404
Vindex_02_l
p405
aF0.030418306683529475
aa(lp406
Vmiddle_01_l
p407
aF0.076762940492486248
aa(lp408
Vmiddle_02_l
p409
aF0.42652864383875716
aa(lp410
Vmiddle_03_l
p411
aF0.42652864383875716
aaa(lp412
I46
a(lp413
Vhand_l
p414
aF0.0040390566790240775
aa(lp415
Vindex_02_l
p416
aF0.0033276434956629008
aa(lp417
Vmiddle_01_l
p418
aF0.012003352076144624
aa(lp419
Vmiddle_02_l
p420
aF0.49031497387458423
aa(lp421
Vmiddle_03_l
p422
aF0.49031497387458423
aaa(lp423
I47
a(lp424
Vhand_l
p425
aF0.014995949619191963
aa(lp426
Vindex_02_l
p427
aF0.010890119705694869
aa(lp428
Vmiddle_01_l
p429
aF0.036815942593505055
aa(lp430
Vmiddle_02_l
p431
aF0.46864899404080401
aa(lp432
Vmiddle_03_l
p433
aF0.46864899404080401
aaa(lp434
I48
a(lp435
Vhand_l
p436
aF0.025215835586369154
aa(lp437
Vindex_02_l
p438
aF0.020937329986818822
aa(lp439
Vmiddle_01_l
p440
aF0.054515722748355339
aa(lp441
Vmiddle_02_l
p442
aF0.44966555583922835
aa(lp443
Vmiddle_03_l
p444
aF0.44966555583922835
aaa(lp445
I49
a(lp446
Vhand_l
p447
aF0.011824640468775545
aa(lp448
Vindex_02_l
p449
aF0.010044249231800525
aa(lp450
Vmiddle_01_l
p451
aF0.029368261066610106
aa(lp452
Vmiddle_02_l
p453
aF0.47438142461640698
aa(lp454
Vmiddle_03_l
p455
aF0.47438142461640698
aaa(lp456
I50
a(lp457
Vhand_l
p458
aF0.043003122307440141
aa(lp459
Vindex_02_l
p460
aF0.032031503238032846
aa(lp461
Vmiddle_01_l
p462
aF0.08153285044786944
aa(lp463
Vmiddle_02_l
p464
aF0.42171626200332879
aa(lp465
Vmiddle_03_l
p466
aF0.42171626200332879
aaa(lp467
I51
a(lp468
Vhand_l
p469
aF0.043969603301133142
aa(lp470
Vindex_02_l
p471
aF0.031346334628835529
aa(lp472
Vmiddle_01_l
p473
aF0.083120894405668957
aa(lp474
Vmiddle_02_l
p475
aF0.42078158383218117
aa(lp476
Vmiddle_03_l
p477
aF0.42078158383218117
aaa(lp478
I52
a(lp479
Vhand_l
p480
aF0.043027386734720285
aa(lp481
Vindex_02_l
p482
aF0.030238515388173785
aa(lp483
Vmiddle_01_l
p484
aF0.081740277184923174
aa(lp485
Vmiddle_02_l
p486
aF0.42249691034609144
aa(lp487
Vmiddle_03_l
p488
aF0.42249691034609144
aaa(lp489
I53
a(lp490
Vhand_l
p491
aF0.042089011020376814
aa(lp492
Vindex_02_l
p493
aF0.030889105684388948
aa(lp494
Vmiddle_01_l
p495
aF0.080186048482063788
aa(lp496
Vmiddle_02_l
p497
aF0.42341791740658524
aa(lp498
Vmiddle_03_l
p499
aF0.42341791740658524
aaa(lp500
I54
a(lp501
Vhand_l
p502
aF0.024881016724673063
aa(lp503
Vindex_02_l
p504
aF0.014386014274328207
aa(lp505
Vmiddle_01_l
p506
aF0.054745926494555827
aa(lp507
Vmiddle_02_l
p508
aF0.45299352125322145
aa(lp509
Vmiddle_03_l
p510
aF0.45299352125322145
aaa(lp511
I55
a(lp512
Vhand_l
p513
aF0.014585610755697599
aa(lp514
Vindex_02_l
p515
aF0.0078253250860402575
aa(lp516
Vmiddle_01_l
p517
aF0.036544131962996579
aa(lp518
Vmiddle_02_l
p519
aF0.47052246609763282
aa(lp520
Vmiddle_03_l
p521
aF0.47052246609763282
aaa(lp522
I56
a(lp523
Vhand_l
p524
aF0.0035398448863918027
aa(lp525
Vindex_02_l
p526
aF0.0018602847080683063
aa(lp527
Vmiddle_01_l
p528
aF0.010932667475746663
aa(lp529
Vmiddle_02_l
p530
aF0.49183360146489646
aa(lp531
Vmiddle_03_l
p532
aF0.49183360146489669
aaa(lp533
I57
a(lp534
Vhand_l
p535
aF0.011382876357848577
aa(lp536
Vindex_02_l
p537
aF0.0070907937302724126
aa(lp538
Vmiddle_01_l
p539
aF0.028798864931179318
aa(lp540
Vmiddle_02_l
p541
aF0.47636373249034991
aa(lp542
Vmiddle_03_l
p543
aF0.4763637324903498
aaa(lp544
I58
a(lp545
Vmiddle_02_l
p546
aF0.57700054374866283
aa(lp547
Vmiddle_03_l
p548
aF0.42236789459286656
aaa(lp549
I59
a(lp550
Vmiddle_02_l
p551
aF0.97504019688026566
aa(lp552
Vmiddle_03_l
p553
aF0.024954284418748814
aaa(lp554
I60
a(lp555
Vmiddle_02_l
p556
aF0.50610245801175868
aa(lp557
Vmiddle_03_l
p558
aF0.49283438906380561
aaa(lp559
I61
a(lp560
Vmiddle_01_l
p561
aF0.0015718156674980957
aa(lp562
Vmiddle_02_l
p563
aF0.49896376242719492
aa(lp564
Vmiddle_03_l
p565
aF0.49896376242719492
aaa(lp566
I62
a(lp567
Vhand_l
p568
aF0.0043454114768225437
aa(lp569
Vindex_02_l
p570
aF0.0025217137164480026
aa(lp571
Vmiddle_01_l
p572
aF0.013302806196282683
aa(lp573
Vmiddle_02_l
p574
aF0.48991503430522343
aa(lp575
Vmiddle_03_l
p576
aF0.48991503430522332
aaa(lp577
I63
a(lp578
Vhand_l
p579
aF0.029139309160875693
aa(lp580
Vindex_02_l
p581
aF0.018247936226946041
aa(lp582
Vmiddle_01_l
p583
aF0.062473593288847072
aa(lp584
Vmiddle_02_l
p585
aF0.44506958066166558
aa(lp586
Vmiddle_03_l
p587
aF0.44506958066166558
aaa(lp588
I64
a(lp589
Vhand_l
p590
aF0.0033313582699674251
aa(lp591
Vindex_02_l
p592
aF0.002407957502842117
aa(lp593
Vmiddle_01_l
p594
aF0.0099971823768737825
aa(lp595
Vmiddle_02_l
p596
aF0.49213175092515837
aa(lp597
Vmiddle_03_l
p598
aF0.49213175092515837
aaa(lp599
I65
a(lp600
Vhand_l
p601
aF0.021711261898329011
aa(lp602
Vindex_02_l
p603
aF0.01630914639528452
aa(lp604
Vmiddle_01_l
p605
aF0.048049883489362302
aa(lp606
Vmiddle_02_l
p607
aF0.45696485410851212
aa(lp608
Vmiddle_03_l
p609
aF0.45696485410851212
aaa(lp610
I66
a(lp611
Vhand_l
p612
aF0.035826704605249622
aa(lp613
Vindex_02_l
p614
aF0.026416200049888559
aa(lp615
Vmiddle_01_l
p616
aF0.071895331084557937
aa(lp617
Vmiddle_02_l
p618
aF0.43293088213015196
aa(lp619
Vmiddle_03_l
p620
aF0.43293088213015196
aaa(lp621
I67
a(lp622
Vhand_l
p623
aF0.037617660991722549
aa(lp624
Vindex_02_l
p625
aF0.029216683582893643
aa(lp626
Vmiddle_01_l
p627
aF0.073839661275106674
aa(lp628
Vmiddle_02_l
p629
aF0.42966299707513855
aa(lp630
Vmiddle_03_l
p631
aF0.42966299707513855
aaa(lp632
I68
a(lp633
Vhand_l
p634
aF0.013228505498688356
aa(lp635
Vindex_02_l
p636
aF0.010997284415555012
aa(lp637
Vmiddle_01_l
p638
aF0.032611047053776217
aa(lp639
Vmiddle_02_l
p640
aF0.47158158151599022
aa(lp641
Vmiddle_03_l
p642
aF0.47158158151599022
aaa(lp643
I69
a(lp644
Vhand_l
p645
aF0.043680502161716241
aa(lp646
Vindex_02_l
p647
aF0.031658680595515708
aa(lp648
Vmiddle_01_l
p649
aF0.082540133415521744
aa(lp650
Vmiddle_02_l
p651
aF0.42106034191362318
aa(lp652
Vmiddle_03_l
p653
aF0.42106034191362318
aaa(lp654
I70
a(lp655
Vhand_l
p656
aF0.012645173632936301
aa(lp657
Vindex_02_l
p658
aF0.0069826713274699454
aa(lp659
Vmiddle_01_l
p660
aF0.031992624376731532
aa(lp661
Vmiddle_02_l
p662
aF0.47418976533143115
aa(lp663
Vmiddle_03_l
p664
aF0.47418976533143115
aaa(lp665
I71
a(lp666
Vmiddle_02_l
p667
aF0.57444668861940817
aa(lp668
Vmiddle_03_l
p669
aF0.42521094180926455
aaa(lp670
I72
a(lp671
Vhand_l
p672
aF0.015294242691065232
aa(lp673
Vindex_02_l
p674
aF0.0092359572333539728
aa(lp675
Vmiddle_01_l
p676
aF0.037895161168191416
aa(lp677
Vmiddle_02_l
p678
aF0.46878731945369484
aa(lp679
Vmiddle_03_l
p680
aF0.46878731945369462
aaa(lp681
I73
a(lp682
Vhand_l
p683
aF0.011057585811024071
aa(lp684
Vindex_02_l
p685
aF0.0081878844583685682
aa(lp686
Vmiddle_01_l
p687
aF0.027788080656216928
aa(lp688
Vmiddle_02_l
p689
aF0.47648322453719533
aa(lp690
Vmiddle_03_l
p691
aF0.4764832245371951
aaa(lp692
I74
a(lp693
Vhand_l
p694
aF0.033031423434243423
aa(lp695
Vindex_02_l
p696
aF0.026593631056898787
aa(lp697
Vmiddle_01_l
p698
aF0.066991015842439355
aa(lp699
Vmiddle_02_l
p700
aF0.43669196483320921
aa(lp701
Vmiddle_03_l
p702
aF0.43669196483320921
aaa(lp703
I75
a(lp704
Vhand_l
p705
aF0.03673332728706992
aa(lp706
Vindex_02_l
p707
aF0.024054347208494732
aa(lp708
Vmiddle_01_l
p709
aF0.073752053327755779
aa(lp710
Vmiddle_02_l
p711
aF0.43273013608833982
aa(lp712
Vmiddle_03_l
p713
aF0.43273013608833982
aaa(lp714
I76
a(lp715
Vhand_l
p716
aF0.032917340380962501
aa(lp717
Vindex_02_l
p718
aF0.020279567080116898
aa(lp719
Vmiddle_01_l
p720
aF0.067507523151691951
aa(lp721
Vmiddle_02_l
p722
aF0.43964778469361449
aa(lp723
Vmiddle_03_l
p724
aF0.43964778469361426
aaa(lp725
I77
a(lp726
Vhand_l
p727
aF0.029729242777242072
aa(lp728
Vindex_02_l
p729
aF0.022271523738205314
aa(lp730
Vmiddle_01_l
p731
aF0.061485756624106033
aa(lp732
Vmiddle_02_l
p733
aF0.44325673843022334
aa(lp734
Vmiddle_03_l
p735
aF0.44325673843022334
aaa(lp736
I78
a(lp737
Vmiddle_01_l
p738
aF0.0024242637935681633
aa(lp739
Vmiddle_02_l
p740
aF0.49835567372317852
aa(lp741
Vmiddle_03_l
p742
aF0.49835567372317852
aaa(lp743
I79
a(lp744
Vmiddle_01_l
p745
aF0.0012964991713617683
aa(lp746
Vmiddle_02_l
p747
aF0.49911094157768848
aa(lp748
Vmiddle_03_l
p749
aF0.49911094157768848
aaa(lp750
I80
a(lp751
Vmiddle_02_l
p752
aF0.90926739749603969
aa(lp753
Vmiddle_03_l
p754
aF0.09071157995340394
aaa(lp755
I81
a(lp756
Vmiddle_02_l
p757
aF0.52276410156388575
aa(lp758
Vmiddle_03_l
p759
aF0.47614140220476042
aaa(lp760
I82
a(lp761
Vmiddle_01_l
p762
aF0.0027095857162850452
aa(lp763
Vmiddle_02_l
p764
aF0.49796451844363487
aa(lp765
Vmiddle_03_l
p766
aF0.49796451844363487
aaa(lp767
I83
a(lp768
Vmiddle_01_l
p769
aF0.0024808802538186614
aa(lp770
Vmiddle_02_l
p771
aF0.49817738539063267
aa(lp772
Vmiddle_03_l
p773
aF0.49817738539063267
aaa(lp774
I84
a(lp775
Vmiddle_01_l
p776
aF0.001903440667024203
aa(lp777
Vmiddle_02_l
p778
aF0.49868733817573246
aa(lp779
Vmiddle_03_l
p780
aF0.49868733817573246
aaa(lp781
I85
a(lp782
Vmiddle_01_l
p783
aF0.0020417386388536202
aa(lp784
Vmiddle_02_l
p785
aF0.49858117242989375
aa(lp786
Vmiddle_03_l
p787
aF0.49858117242989364
aaa(lp788
I86
a(lp789
Vhand_l
p790
aF0.041006894682120695
aa(lp791
Vindex_02_l
p792
aF0.02794051244702531
aa(lp793
Vmiddle_01_l
p794
aF0.079028662447248751
aa(lp795
Vmiddle_02_l
p796
aF0.42601196521180268
aa(lp797
Vmiddle_03_l
p798
aF0.42601196521180268
aaa(lp799
I87
a(lp800
Vhand_l
p801
aF0.042740998988695433
aa(lp802
Vindex_02_l
p803
aF0.029900435730668206
aa(lp804
Vmiddle_01_l
p805
aF0.081621610849320334
aa(lp806
Vmiddle_02_l
p807
aF0.42286847721565801
aa(lp808
Vmiddle_03_l
p809
aF0.42286847721565801
aaa(lp810
I88
a(lp811
Vhand_l
p812
aF0.040982613450494275
aa(lp813
Vindex_02_l
p814
aF0.031140094153604185
aa(lp815
Vmiddle_01_l
p816
aF0.078677711668448697
aa(lp817
Vmiddle_02_l
p818
aF0.42459979036372641
aa(lp819
Vmiddle_03_l
p820
aF0.42459979036372641
aaa(lp821
I89
a(lp822
Vhand_l
p823
aF0.039344847061690766
aa(lp824
Vindex_02_l
p825
aF0.029064926771887028
aa(lp826
Vmiddle_01_l
p827
aF0.076204707992880968
aa(lp828
Vmiddle_02_l
p829
aF0.42769275908677062
aa(lp830
Vmiddle_03_l
p831
aF0.42769275908677062
aaa.