(lp1
(lp2
I0
a(lp3
Vmiddle_01_r
p4
aF0.49959147537151893
aa(lp5
Vmiddle_02_r
p6
aF0.49959147537151916
aaa(lp7
I1
a(lp8
Vhand_r
p9
aF0.0059902484150201087
aa(lp10
Vmiddle_01_r
p11
aF0.44098238546609125
aa(lp12
Vmiddle_02_r
p13
aF0.5517421771782961
aaa(lp14
I2
a(lp15
Vmiddle_01_r
p16
aF0.0039260030411816397
aa(lp17
Vmiddle_02_r
p18
aF0.59595502138329759
aa(lp19
Vmiddle_03_r
p20
aF0.3987984649989243
aaa(lp21
I3
a(lp22
Vhand_r
p23
aF0.0069740017656637595
aa(lp24
Vindex_02_r
p25
aF0.0031520656041969393
aa(lp26
Vmiddle_01_r
p27
aF0.039575677618754683
aa(lp28
Vmiddle_02_r
p29
aF0.69847496313456492
aa(lp30
Vmiddle_03_r
p31
aF0.25182329187681968
aaa(lp32
I4
a(lp33
Vmiddle_01_r
p34
aF0.0023899893855943237
aa(lp35
Vmiddle_02_r
p36
aF0.57140515400735681
aa(lp37
Vmiddle_03_r
p38
aF0.42555890625073312
aaa(lp39
I5
a(lp40
Vhand_r
p41
aF0.0063339367760248061
aa(lp42
Vindex_01_r
p43
aF0.0016554256068485847
aa(lp44
Vmiddle_01_r
p45
aF0.033718918080271332
aa(lp46
Vmiddle_02_r
p47
aF0.67757581921984633
aa(lp48
Vmiddle_03_r
p49
aF0.28071590031700905
aaa(lp50
I6
a(lp51
Vhand_r
p52
aF0.0074072516673837057
aa(lp53
Vmiddle_01_r
p54
aF0.49422347251630533
aa(lp55
Vmiddle_02_r
p56
aF0.49740488103634278
aaa(lp57
I7
a(lp58
Vhand_r
p59
aF0.014108284095743599
aa(lp60
Vmiddle_01_r
p61
aF0.43730496865353913
aa(lp62
Vmiddle_02_r
p63
aF0.54569357665988127
aa(lp64
Vmiddle_03_r
p65
aF0.002013257296039548
aaa(lp66
I8
a(lp67
Vmiddle_02_r
p68
aF0.49940268608746963
aa(lp69
Vmiddle_03_r
p70
aF0.49940268608746952
aaa(lp71
I9
a(lp72
Vhand_r
p73
aF0.0011806726881432939
aa(lp74
Vmiddle_01_r
p75
aF0.0058373076384756473
aa(lp76
Vmiddle_02_r
p77
aF0.57175833712274282
aa(lp78
Vmiddle_03_r
p79
aF0.42055455114022966
aaa(lp80
I10
a(lp81
Vmiddle_01_r
p82
aF0.0042138675729398896
aa(lp83
Vmiddle_02_r
p84
aF0.55420230094091882
aa(lp85
Vmiddle_03_r
p86
aF0.44039209438005994
aaa(lp87
I11
a(lp88
Vmiddle_02_r
p89
aF0.49974988375748136
aa(lp90
Vmiddle_03_r
p91
aF0.49974988375748136
aaa(lp92
I12
a(lp93
Vhand_r
p94
aF0.0072643765886658681
aa(lp95
Vmiddle_01_r
p96
aF0.66794178648349334
aa(lp97
Vmiddle_02_r
p98
aF0.32441048903446185
aaa(lp99
I13
a(lp100
Vhand_r
p101
aF0.024452842222170552
aa(lp102
Vmiddle_01_r
p103
aF0.56590556352486787
aa(lp104
Vmiddle_02_r
p105
aF0.40805638795900012
aaa(lp106
I14
a(lp107
Vhand_r
p108
aF0.01176534055436607
aa(lp109
Vmiddle_01_r
p110
aF0.62337261389922949
aa(lp111
Vmiddle_02_r
p112
aF0.36404840813327966
aaa(lp113
I15
a(lp114
Vmiddle_01_r
p115
aF0.97467426446565497
aa(lp116
Vmiddle_02_r
p117
aF0.025219912867019904
aaa(lp118
I16
a(lp119
Vmiddle_02_r
p120
aF0.6350696575733541
aa(lp121
Vmiddle_03_r
p122
aF0.36455521638616051
aaa(lp123
I17
a(lp124
Vmiddle_01_r
p125
aF0.001198329555376534
aa(lp126
Vmiddle_02_r
p127
aF0.76706526614776926
aa(lp128
Vmiddle_03_r
p129
aF0.23141968576665264
aaa(lp130
I18
a(lp131
Vmiddle_02_r
p132
aF0.76397597141865392
aa(lp133
Vmiddle_03_r
p134
aF0.23501718189839135
aaa(lp135
I19
a(lp136
Vmiddle_02_r
p137
aF0.64103988820893942
aa(lp138
Vmiddle_03_r
p139
aF0.35881813020738657
aaa(lp140
I20
a(lp141
Vhand_r
p142
aF0.0062388873317280628
aa(lp143
Vindex_01_r
p144
aF0.0016984732029431382
aa(lp145
Vmiddle_01_r
p146
aF0.082551040610967588
aa(lp147
Vmiddle_02_r
p148
aF0.88782735517320233
aa(lp149
Vmiddle_03_r
p150
aF0.021684243681158816
aaa(lp151
I21
a(lp152
Vhand_r
p153
aF0.0015201138215573946
aa(lp154
Vmiddle_01_r
p155
aF0.032138329081880232
aa(lp156
Vmiddle_02_r
p157
aF0.96044364429415507
aa(lp158
Vmiddle_03_r
p159
aF0.0053750695906457863
aaa(lp160
I22
a(lp161
Vhand_r
p162
aF0.00282034507448737
aa(lp163
Vmiddle_01_r
p164
aF0.046485627809912895
aa(lp165
Vmiddle_02_r
p166
aF0.93854039209542173
aa(lp167
Vmiddle_03_r
p168
aF0.011639941849256758
aaa(lp169
I23
a(lp170
Vhand_r
p171
aF0.007972780064827753
aa(lp172
Vindex_01_r
p173
aF0.0012902745043294381
aa(lp174
Vmiddle_01_r
p175
aF0.088159396013896288
aa(lp176
Vmiddle_02_r
p177
aF0.87036753484904739
aa(lp178
Vmiddle_03_r
p179
aF0.032210014567899223
aaa(lp180
I24
a(lp181
Vmiddle_01_r
p182
aF0.0022904097786559476
aa(lp183
Vmiddle_02_r
p184
aF0.52260305906174842
aa(lp185
Vmiddle_03_r
p186
aF0.47426930923870264
aaa(lp187
I25
a(lp188
Vmiddle_01_r
p189
aF0.0016206672135423085
aa(lp190
Vmiddle_02_r
p191
aF0.49939865016272611
aa(lp192
Vmiddle_03_r
p193
aF0.49833301973355187
aaa(lp194
I26
a(lp195
Vhand_r
p196
aF0.0088558931753533101
aa(lp197
Vindex_01_r
p198
aF0.0027074450724069382
aa(lp199
Vmiddle_01_r
p200
aF0.048467476930359292
aa(lp201
Vmiddle_02_r
p202
aF0.69415341970575506
aa(lp203
Vmiddle_03_r
p204
aF0.24581576511612532
aaa(lp205
I27
a(lp206
Vhand_r
p207
aF0.0026199480702006291
aa(lp208
Vmiddle_01_r
p209
aF0.01268746319446932
aa(lp210
Vmiddle_02_r
p211
aF0.59108844768129731
aa(lp212
Vmiddle_03_r
p213
aF0.39279024093543796
aaa(lp214
I28
a(lp215
Vhand_r
p216
aF0.0011587220670979386
aa(lp217
Vmiddle_01_r
p218
aF0.0057348170392215866
aa(lp219
Vmiddle_02_r
p220
aF0.58947673915173204
aa(lp221
Vmiddle_03_r
p222
aF0.40316047415955991
aaa(lp223
I29
a(lp224
Vhand_r
p225
aF0.0014083730010851327
aa(lp226
Vmiddle_01_r
p227
aF0.0076457644325814362
aa(lp228
Vmiddle_02_r
p229
aF0.66542254657385258
aa(lp230
Vmiddle_03_r
p231
aF0.32510677216396738
aaa(lp232
I30
a(lp233
Vmiddle_02_r
p234
aF0.49947047790827742
aa(lp235
Vmiddle_03_r
p236
aF0.49947047790827742
aaa(lp237
I31
a(lp238
Vmiddle_01_r
p239
aF0.0011174771931182141
aa(lp240
Vmiddle_02_r
p241
aF0.50623133514234409
aa(lp242
Vmiddle_03_r
p243
aF0.49231873854850139
aaa(lp244
I32
a(lp245
Vmiddle_01_r
p246
aF0.001574353243951462
aa(lp247
Vmiddle_02_r
p248
aF0.55731521998405897
aa(lp249
Vmiddle_03_r
p250
aF0.44062971230586778
aaa(lp251
I33
a(lp252
Vmiddle_02_r
p253
aF0.49984535917381079
aa(lp254
Vmiddle_03_r
p255
aF0.49984535917381057
aaa(lp256
I34
a(lp257
Vhand_r
p258
aF0.027216979926641509
aa(lp259
Vindex_01_r
p260
aF0.001145077548157582
aa(lp261
Vmiddle_01_r
p262
aF0.50694201179691134
aa(lp263
Vmiddle_02_r
p264
aF0.46329482624220658
aa(lp265
Vmiddle_03_r
p266
aF0.0014011044860828389
aaa(lp267
I35
a(lp268
Vhand_r
p269
aF0.012253187772188773
aa(lp270
Vmiddle_01_r
p271
aF0.56383325083843894
aa(lp272
Vmiddle_02_r
p273
aF0.42308061445963041
aaa(lp274
I36
a(lp275
Vhand_r
p276
aF0.012675195382831359
aa(lp277
Vmiddle_01_r
p278
aF0.53323000648528884
aa(lp279
Vmiddle_02_r
p280
aF0.45280185366011716
aaa(lp281
I37
a(lp282
Vhand_r
p283
aF0.0011698925715709772
aa(lp284
Vmiddle_01_r
p285
aF0.74321399145602696
aa(lp286
Vmiddle_02_r
p287
aF0.25551373871091154
aaa(lp288
I38
a(lp289
Vmiddle_01_r
p290
aF0.0033932950234538432
aa(lp291
Vmiddle_02_r
p292
aF0.63154854866982235
aa(lp293
Vmiddle_03_r
p294
aF0.36406290577513539
aaa(lp295
I39
a(lp296
Vmiddle_02_r
p297
aF0.50859890648207662
aa(lp298
Vmiddle_03_r
p299
aF0.4904899682781757
aaa(lp300
I40
a(lp301
Vmiddle_01_r
p302
aF0.0023594151235118745
aa(lp303
Vmiddle_02_r
p304
aF0.61312787913556033
aa(lp305
Vmiddle_03_r
p306
aF0.38388703598426827
aaa(lp307
I41
a(lp308
Vmiddle_02_r
p309
aF0.50045383704508739
aa(lp310
Vmiddle_03_r
p311
aF0.49918006611529819
aaa(lp312
I42
a(lp313
Vhand_r
p314
aF0.0080142459750232112
aa(lp315
Vindex_01_r
p316
aF0.0029520173459094295
aa(lp317
Vmiddle_01_r
p318
aF0.060983545593213867
aa(lp319
Vmiddle_02_r
p320
aF0.82297202515974943
aa(lp321
Vmiddle_03_r
p322
aF0.10507816592610404
aaa(lp323
I43
a(lp324
Vhand_r
p325
aF0.0013774962885724626
aa(lp326
Vmiddle_01_r
p327
aF0.011519444105928745
aa(lp328
Vmiddle_02_r
p329
aF0.90771799144025223
aa(lp330
Vmiddle_03_r
p331
aF0.078570819207586559
aaa(lp332
I44
a(lp333
Vhand_r
p334
aF0.0013557532097659131
aa(lp335
Vmiddle_01_r
p336
aF0.010357229552780421
aa(lp337
Vmiddle_02_r
p338
aF0.88869898197710584
aa(lp339
Vmiddle_03_r
p340
aF0.099190101726649799
aaa(lp341
I45
a(lp342
Vhand_r
p343
aF0.0082106611003390558
aa(lp344
Vindex_01_r
p345
aF0.0017562693914860074
aa(lp346
Vmiddle_01_r
p347
aF0.056630871139090017
aa(lp348
Vmiddle_02_r
p349
aF0.8051726873704832
aa(lp350
Vmiddle_03_r
p351
aF0.12822951099860172
aaa(lp352
I46
a(lp353
Vhand_r
p354
aF0.0025723540501098895
aa(lp355
Vmiddle_01_r
p356
aF0.48366884506454288
aa(lp357
Vmiddle_02_r
p358
aF0.51327175956885651
aaa(lp359
I47
a(lp360
Vhand_r
p361
aF0.005588840033551444
aa(lp362
Vmiddle_01_r
p363
aF0.18232020390152098
aa(lp364
Vmiddle_02_r
p365
aF0.80768208456243051
aa(lp366
Vmiddle_03_r
p367
aF0.0034475801867698396
aaa(lp368
I48
a(lp369
Vhand_r
p370
aF0.0029141531037748694
aa(lp371
Vindex_01_r
p372
aF0.0010092735296328486
aa(lp373
Vmiddle_01_r
p374
aF0.051171294787036088
aa(lp375
Vmiddle_02_r
p376
aF0.9348785134745845
aa(lp377
Vmiddle_03_r
p378
aF0.010026765104971715
aaa(lp379
I49
a(lp380
Vhand_r
p381
aF0.0013343593308716322
aa(lp382
Vmiddle_01_r
p383
aF0.15779004712224046
aa(lp384
Vmiddle_02_r
p385
aF0.84015789967855226
aaa(lp386
I50
a(lp387
Vmiddle_02_r
p388
aF0.75714336592677356
aa(lp389
Vmiddle_03_r
p390
aF0.24204270699471528
aaa(lp391
I51
a(lp392
Vmiddle_02_r
p393
aF0.84103754126976493
aa(lp394
Vmiddle_03_r
p395
aF0.15786046670378739
aaa(lp396
I52
a(lp397
Vmiddle_02_r
p398
aF0.7679297517697028
aa(lp399
Vmiddle_03_r
p400
aF0.23170754505104246
aaa(lp401
I53
a(lp402
Vmiddle_02_r
p403
aF0.69342199723651488
aa(lp404
Vmiddle_03_r
p405
aF0.30645930254268799
aaa(lp406
I54
a(lp407
Vhand_r
p408
aF0.0049741342422099351
aa(lp409
Vmiddle_01_r
p410
aF0.065602970969427951
aa(lp411
Vmiddle_02_r
p412
aF0.90763329360532841
aa(lp413
Vmiddle_03_r
p414
aF0.020998351757343311
aaa(lp415
I55
a(lp416
Vhand_r
p417
aF0.0097675606432743867
aa(lp418
Vindex_01_r
p419
aF0.0010285893182388542
aa(lp420
Vmiddle_01_r
p421
aF0.20963318934445249
aa(lp422
Vmiddle_02_r
p423
aF0.77254137209579166
aa(lp424
Vmiddle_03_r
p425
aF0.007029288598242602
aaa(lp426
I56
a(lp427
Vhand_r
p428
aF0.013375077185199707
aa(lp429
Vmiddle_01_r
p430
aF0.47023556576774939
aa(lp431
Vmiddle_02_r
p432
aF0.51418503721738196
aa(lp433
Vmiddle_03_r
p434
aF0.001455916290042047
aaa(lp435
I57
a(lp436
Vhand_r
p437
aF0.0050669065860835085
aa(lp438
Vmiddle_01_r
p439
aF0.24226252060129039
aa(lp440
Vmiddle_02_r
p441
aF0.75002663782921031
aa(lp442
Vmiddle_03_r
p443
aF0.0021336574884892618
aaa(lp444
I58
a(lp445
Vhand_r
p446
aF0.019346817566360759
aa(lp447
Vmiddle_01_r
p448
aF0.61139868890457993
aa(lp449
Vmiddle_02_r
p450
aF0.36821683591325949
aaa(lp451
I59
a(lp452
Vhand_r
p453
aF0.024382322554501259
aa(lp454
Vmiddle_01_r
p455
aF0.60181187541334058
aa(lp456
Vmiddle_02_r
p457
aF0.37232882436211079
aaa(lp458
I60
a(lp459
Vhand_r
p460
aF0.0033881590192344035
aa(lp461
Vmiddle_01_r
p462
aF0.7887554143085499
aa(lp463
Vmiddle_02_r
p464
aF0.20764345919805227
aaa(lp465
I61
a(lp466
Vmiddle_01_r
p467
aF0.93050624311228891
aa(lp468
Vmiddle_02_r
p469
aF0.069011790351834842
aaa(lp470
I62
a(lp471
Vhand_r
p472
aF0.007888637171622144
aa(lp473
Vmiddle_01_r
p474
aF0.41496299892449051
aa(lp475
Vmiddle_02_r
p476
aF0.57546515328190684
aa(lp477
Vmiddle_03_r
p478
aF0.001102611793551204
aaa(lp479
I63
a(lp480
Vhand_r
p481
aF0.0067792134905211663
aa(lp482
Vindex_01_r
p483
aF0.0013247138217775656
aa(lp484
Vmiddle_01_r
p485
aF0.080676609834572505
aa(lp486
Vmiddle_02_r
p487
aF0.88539472282966425
aa(lp488
Vmiddle_03_r
p489
aF0.025824740023464545
aaa(lp490
I64
a(lp491
Vmiddle_01_r
p492
aF0.49959801709695262
aa(lp493
Vmiddle_02_r
p494
aF0.49959801709695262
aaa(lp495
I65
a(lp496
Vmiddle_01_r
p497
aF0.019158581216430194
aa(lp498
Vmiddle_02_r
p499
aF0.97630243772307101
aa(lp500
Vmiddle_03_r
p501
aF0.0034442854343990541
aaa(lp502
I66
a(lp503
Vhand_r
p504
aF0.0019166521791156243
aa(lp505
Vindex_02_r
p506
aF0.0013559838400336824
aa(lp507
Vmiddle_01_r
p508
aF0.011234394870153609
aa(lp509
Vmiddle_02_r
p510
aF0.70007316353996585
aa(lp511
Vmiddle_03_r
p512
aF0.28541980557073121
aaa(lp513
I67
a(lp514
Vhand_r
p515
aF0.0031701250262491784
aa(lp516
Vindex_02_r
p517
aF0.0016697437682132422
aa(lp518
Vmiddle_01_r
p519
aF0.016063739711067414
aa(lp520
Vmiddle_02_r
p521
aF0.610866343736293
aa(lp522
Vmiddle_03_r
p523
aF0.36823004775817714
aaa(lp524
I68
a(lp525
Vhand_r
p526
aF0.0029677940055333153
aa(lp527
Vmiddle_01_r
p528
aF0.17670092355108638
aa(lp529
Vmiddle_02_r
p530
aF0.8183779469077288
aa(lp531
Vmiddle_03_r
p532
aF0.0013571232347338036
aaa(lp533
I69
a(lp534
Vmiddle_02_r
p535
aF0.99936102695576068
aaa(lp536
I70
a(lp537
Vhand_r
p538
aF0.0085751231758680446
aa(lp539
Vmiddle_01_r
p540
aF0.23522933994035281
aa(lp541
Vmiddle_02_r
p542
aF0.75050705043567101
aa(lp543
Vmiddle_03_r
p544
aF0.0048567025145152013
aaa(lp545
I71
a(lp546
Vhand_r
p547
aF0.0029994183624316158
aa(lp548
Vmiddle_01_r
p549
aF0.84737672661958297
aa(lp550
Vmiddle_02_r
p551
aF0.14949468313347261
aaa(lp552
I72
a(lp553
Vhand_r
p554
aF0.0062081449593448532
aa(lp555
Vmiddle_01_r
p556
aF0.16583363375436982
aa(lp557
Vmiddle_02_r
p558
aF0.82266430635297505
aa(lp559
Vmiddle_03_r
p560
aF0.0045036587965263629
aaa(lp561
I73
a(lp562
Vmiddle_01_r
p563
aF0.13126081843650553
aa(lp564
Vmiddle_02_r
p565
aF0.86733145550139445
aaa(lp566
I74
a(lp567
Vmiddle_01_r
p568
aF0.0047214200628384216
aa(lp569
Vmiddle_02_r
p570
aF0.55836052284340365
aa(lp571
Vmiddle_03_r
p572
aF0.43524761931342432
aaa(lp573
I75
a(lp574
Vhand_r
p575
aF0.0037345045975307229
aa(lp576
Vindex_01_r
p577
aF0.0013463379800102301
aa(lp578
Vmiddle_01_r
p579
aF0.018722785234631202
aa(lp580
Vmiddle_02_r
p581
aF0.62389007571704524
aa(lp582
Vmiddle_03_r
p583
aF0.35230629647078254
aaa(lp584
I76
a(lp585
Vmiddle_01_r
p586
aF0.0026441654800409393
aa(lp587
Vmiddle_02_r
p588
aF0.53299941832581066
aa(lp589
Vmiddle_03_r
p590
aF0.46360840230576589
aaa(lp591
I77
a(lp592
Vmiddle_02_r
p593
aF0.49962957786703133
aa(lp594
Vmiddle_03_r
p595
aF0.49962957786703133
aaa(lp596
I78
a(lp597
Vhand_r
p598
aF0.022419826207148084
aa(lp599
Vmiddle_01_r
p600
aF0.52265278206998744
aa(lp601
Vmiddle_02_r
p602
aF0.4531395346764478
aaa(lp603
I79
a(lp604
Vhand_r
p605
aF0.018306437046263377
aa(lp606
Vmiddle_01_r
p607
aF0.51662533742714101
aa(lp608
Vmiddle_02_r
p609
aF0.46330870210068104
aaa(lp610
I80
a(lp611
Vhand_r
p612
aF0.0044542251736747907
aa(lp613
Vmiddle_01_r
p614
aF0.60050818928675487
aa(lp615
Vmiddle_02_r
p616
aF0.39458481351741603
aaa(lp617
I81
a(lp618
Vhand_r
p619
aF0.0015555999766049982
aa(lp620
Vmiddle_01_r
p621
aF0.72562858255782536
aa(lp622
Vmiddle_02_r
p623
aF0.27271554207368653
aaa(lp624
I82
a(lp625
Vmiddle_01_r
p626
aF0.001613331872300852
aa(lp627
Vmiddle_02_r
p628
aF0.56879806704681279
aa(lp629
Vmiddle_03_r
p630
aF0.42904882905724756
aaa(lp631
I83
a(lp632
Vmiddle_01_r
p633
aF0.0029580146683239683
aa(lp634
Vmiddle_02_r
p635
aF0.66045599648889208
aa(lp636
Vmiddle_03_r
p637
aF0.33580191066730214
aaa(lp638
I84
a(lp639
Vmiddle_02_r
p640
aF0.54563282100647748
aa(lp641
Vmiddle_03_r
p642
aF0.45339576144099258
aaa(lp643
I85
a(lp644
Vmiddle_02_r
p645
aF0.49989091637297184
aa(lp646
Vmiddle_03_r
p647
aF0.49989091637297184
aaa(lp648
I86
a(lp649
Vhand_r
p650
aF0.0028029284191058829
aa(lp651
Vindex_02_r
p652
aF0.0014909675864106511
aa(lp653
Vmiddle_01_r
p654
aF0.023930225636972908
aa(lp655
Vmiddle_02_r
p656
aF0.8952309831849995
aa(lp657
Vmiddle_03_r
p658
aF0.076544895172511104
aaa(lp659
I87
a(lp660
Vmiddle_01_r
p661
aF0.0058249682100336526
aa(lp662
Vmiddle_02_r
p663
aF0.92667139862327585
aa(lp664
Vmiddle_03_r
p665
aF0.066490659642708005
aaa(lp666
I88
a(lp667
Vhand_r
p668
aF0.0029220949490675776
aa(lp669
Vmiddle_01_r
p670
aF0.021860126105610597
aa(lp671
Vmiddle_02_r
p672
aF0.86899803868036107
aa(lp673
Vmiddle_03_r
p674
aF0.1055471105923413
aaa(lp675
I89
a(lp676
Vhand_r
p677
aF0.0095546711950760619
aa(lp678
Vindex_01_r
p679
aF0.0024257670655782135
aa(lp680
Vmiddle_01_r
p681
aF0.068294483465014516
aa(lp682
Vmiddle_02_r
p683
aF0.80703467439408849
aa(lp684
Vmiddle_03_r
p685
aF0.11269040388024275
aaa.