(lp1
(lp2
I0
a(lp3
Vhand_l
p4
aF0.0090910246641790638
aa(lp5
Vthumb_01_l
p6
aF0.67491582286296004
aa(lp7
Vthumb_02_l
p8
aF0.31431319262461432
aaa(lp9
I1
a(lp10
Vhand_l
p11
aF0.0025533207993409853
aa(lp12
Vindex_01_l
p13
aF0.0015224597037902733
aa(lp14
Vthumb_01_l
p15
aF0.37446279352759854
aa(lp16
Vthumb_02_l
p17
aF0.61962693110084988
aa(lp18
Vthumb_03_l
p19
aF0.001834494868420373
aaa(lp20
I2
a(lp21
Vthumb_01_l
p22
aF0.0038728283206180326
aa(lp23
Vthumb_02_l
p24
aF0.69234006627341271
aa(lp25
Vthumb_03_l
p26
aF0.30288428904599185
aaa(lp27
I3
a(lp28
Vhand_l
p29
aF0.0033471676204287364
aa(lp30
Vindex_01_l
p31
aF0.0035669199239545322
aa(lp32
Vthumb_01_l
p33
aF0.0083169432896785696
aa(lp34
Vthumb_02_l
p35
aF0.57392345478457107
aa(lp36
Vthumb_03_l
p37
aF0.41084551438136707
aaa(lp38
I4
a(lp39
Vthumb_01_l
p40
aF0.0081449376616347761
aa(lp41
Vthumb_02_l
p42
aF0.67378665656619663
aa(lp43
Vthumb_03_l
p44
aF0.3163748942419693
aaa(lp45
I5
a(lp46
Vhand_l
p47
aF0.0046686035801388271
aa(lp48
Vindex_01_l
p49
aF0.0053366768891173252
aa(lp50
Vthumb_01_l
p51
aF0.013619212025121759
aa(lp52
Vthumb_02_l
p53
aF0.57562547344482173
aa(lp54
Vthumb_03_l
p55
aF0.40075003406080034
aaa(lp56
I6
a(lp57
Vhand_l
p58
aF0.0070185435169271603
aa(lp59
Vthumb_01_l
p60
aF0.60178158025213169
aa(lp61
Vthumb_02_l
p62
aF0.38963806064083639
aaa(lp63
I7
a(lp64
Vhand_l
p65
aF0.0016322036249944874
aa(lp66
Vindex_01_l
p67
aF0.0010055591656067074
aa(lp68
Vthumb_01_l
p69
aF0.39078042305913729
aa(lp70
Vthumb_02_l
p71
aF0.60527927549718852
aa(lp72
Vthumb_03_l
p73
aF0.0013025386530730362
aaa(lp74
I8
a(lp75
Vindex_01_l
p76
aF0.011685976408391491
aa(lp77
Vindex_02_l
p78
aF0.011443469592767742
aa(lp79
Vthumb_01_l
p80
aF0.02018345951178711
aa(lp81
Vthumb_02_l
p82
aF0.47834354724352685
aa(lp83
Vthumb_03_l
p84
aF0.47834354724352685
aaa(lp85
I9
a(lp86
Vindex_01_l
p87
aF0.012257558838689009
aa(lp88
Vindex_02_l
p89
aF0.012095209375342317
aa(lp90
Vthumb_01_l
p91
aF0.018471843579304297
aa(lp92
Vthumb_02_l
p93
aF0.47858769410333218
aa(lp94
Vthumb_03_l
p95
aF0.47858769410333218
aaa(lp96
I10
a(lp97
Vindex_01_l
p98
aF0.012618407928456128
aa(lp99
Vindex_02_l
p100
aF0.012491305150244022
aa(lp101
Vthumb_01_l
p102
aF0.018903742867087361
aa(lp103
Vthumb_02_l
p104
aF0.47799327202710629
aa(lp105
Vthumb_03_l
p106
aF0.47799327202710629
aaa(lp107
I11
a(lp108
Vindex_01_l
p109
aF0.011997851629300315
aa(lp110
Vindex_02_l
p111
aF0.011795008725391024
aa(lp112
Vthumb_01_l
p113
aF0.020632289309873791
aa(lp114
Vthumb_02_l
p115
aF0.47778742516771738
aa(lp116
Vthumb_03_l
p117
aF0.47778742516771738
aaa(lp118
I12
a(lp119
Vindex_01_l
p120
aF0.0023718672003335438
aa(lp121
Vindex_02_l
p122
aF0.0020653793659013405
aa(lp123
Vthumb_01_l
p124
aF0.0033256417084181586
aa(lp125
Vthumb_02_l
p126
aF0.4961185558626735
aa(lp127
Vthumb_03_l
p128
aF0.4961185558626735
aaa(lp129
I13
a(lp130
Vthumb_01_l
p131
aF0.002681060260604841
aa(lp132
Vthumb_02_l
p133
aF0.49785171963594926
aa(lp134
Vthumb_03_l
p135
aF0.49785171963594949
aaa(lp136
I14
a(lp137
Vhand_l
p138
aF0.0010601017734158816
aa(lp139
Vindex_01_l
p140
aF0.0011822823952542456
aa(lp141
Vthumb_01_l
p142
aF0.003850747582669217
aa(lp143
Vthumb_02_l
p144
aF0.49695343412433035
aa(lp145
Vthumb_03_l
p146
aF0.49695343412433035
aaa(lp147
I15
a(lp148
Vindex_01_l
p149
aF0.0032577669108391797
aa(lp150
Vindex_02_l
p151
aF0.0029644006606888052
aa(lp152
Vthumb_01_l
p153
aF0.0045253406323286088
aa(lp154
Vthumb_02_l
p155
aF0.49462624589807175
aa(lp156
Vthumb_03_l
p157
aF0.49462624589807175
aaa(lp158
I16
a(lp159
Vindex_01_l
p160
aF0.0073599493876625186
aa(lp161
Vindex_02_l
p162
aF0.0071205020072714854
aa(lp163
Vthumb_01_l
p164
aF0.010720323984661212
aa(lp165
Vthumb_02_l
p166
aF0.4873996123102024
aa(lp167
Vthumb_03_l
p168
aF0.4873996123102024
aaa(lp169
I17
a(lp170
Vindex_01_l
p171
aF0.0059364863545416187
aa(lp172
Vindex_02_l
p173
aF0.0055636627406220216
aa(lp174
Vthumb_01_l
p175
aF0.012436783845301376
aa(lp176
Vthumb_02_l
p177
aF0.48803153352976747
aa(lp178
Vthumb_03_l
p179
aF0.48803153352976747
aaa(lp180
I18
a(lp181
Vindex_01_l
p182
aF0.0063836103732825547
aa(lp183
Vindex_02_l
p184
aF0.0060686739912466595
aa(lp185
Vthumb_01_l
p186
aF0.01332895896089987
aa(lp187
Vthumb_02_l
p188
aF0.48710937833728546
aa(lp189
Vthumb_03_l
p190
aF0.48710937833728546
aaa(lp191
I19
a(lp192
Vindex_01_l
p193
aF0.0080127416777853247
aa(lp194
Vindex_02_l
p195
aF0.007836515862921823
aa(lp196
Vthumb_01_l
p197
aF0.011537983366408607
aa(lp198
Vthumb_02_l
p199
aF0.48630637954644212
aa(lp200
Vthumb_03_l
p201
aF0.48630637954644212
aaa(lp202
I20
a(lp203
Vhand_l
p204
aF0.0057823125897232359
aa(lp205
Vindex_01_l
p206
aF0.0011458654173256767
aa(lp207
Vthumb_01_l
p208
aF0.4881835914107146
aa(lp209
Vthumb_02_l
p210
aF0.50160733868734397
aa(lp211
Vthumb_03_l
p212
aF0.0032808918948925019
aaa(lp213
I21
a(lp214
Vhand_l
p215
aF0.0034764691213080936
aa(lp216
Vthumb_01_l
p217
aF0.49575893822527806
aa(lp218
Vthumb_02_l
p219
aF0.49773282388028139
aa(lp220
Vthumb_03_l
p221
aF0.0022664235053149579
aaa(lp222
I22
a(lp223
Vhand_l
p224
aF0.0080400477811025505
aa(lp225
Vindex_01_l
p226
aF0.0070649385409420392
aa(lp227
Vthumb_01_l
p228
aF0.18690710041763015
aa(lp229
Vthumb_02_l
p230
aF0.77950062044487545
aa(lp231
Vthumb_03_l
p232
aF0.018487292815449842
aaa(lp233
I23
a(lp234
Vhand_l
p235
aF0.0097732513835996487
aa(lp236
Vindex_01_l
p237
aF0.0084925957815538116
aa(lp238
Vthumb_01_l
p239
aF0.16320680712501781
aa(lp240
Vthumb_02_l
p241
aF0.79791295852884547
aa(lp242
Vthumb_03_l
p243
aF0.020614387180983233
aaa(lp244
I24
a(lp245
Vindex_01_l
p246
aF0.0035656880718169209
aa(lp247
Vindex_02_l
p248
aF0.0032243120362261679
aa(lp249
Vthumb_01_l
p250
aF0.0041711352184634568
aa(lp251
Vthumb_02_l
p252
aF0.49451943233674678
aa(lp253
Vthumb_03_l
p254
aF0.49451943233674667
aaa(lp255
I25
a(lp256
Vhand_l
p257
aF0.001695853049427816
aa(lp258
Vindex_01_l
p259
aF0.0017703542622231885
aa(lp260
Vthumb_01_l
p261
aF0.0098485303553906157
aa(lp262
Vthumb_02_l
p263
aF0.63293987170606181
aa(lp264
Vthumb_03_l
p265
aF0.35374539062689653
aaa(lp266
I26
a(lp267
Vthumb_01_l
p268
aF0.0023507639788115328
aa(lp269
Vthumb_02_l
p270
aF0.49833489289912153
aa(lp271
Vthumb_03_l
p272
aF0.49833489289912153
aaa(lp273
I27
a(lp274
Vindex_01_l
p275
aF0.0016453693925770742
aa(lp276
Vindex_02_l
p277
aF0.0014430746030188555
aa(lp278
Vthumb_01_l
p279
aF0.00366918790223336
aa(lp280
Vthumb_02_l
p281
aF0.49662118405108541
aa(lp282
Vthumb_03_l
p283
aF0.49662118405108541
aaa(lp284
I28
a(lp285
Vthumb_01_l
p286
aF0.0040914222330326469
aa(lp287
Vthumb_02_l
p288
aF0.72664706242669674
aa(lp289
Vthumb_03_l
p290
aF0.26851088152500191
aaa(lp291
I29
a(lp292
Vthumb_01_l
p293
aF0.0032862440097807324
aa(lp294
Vthumb_02_l
p295
aF0.49747825445967309
aa(lp296
Vthumb_03_l
p297
aF0.49747825445967309
aaa(lp298
I30
a(lp299
Vindex_01_l
p300
aF0.0045115077895336612
aa(lp301
Vindex_02_l
p302
aF0.0042329386291830012
aa(lp303
Vthumb_01_l
p304
aF0.0063374990481635382
aa(lp305
Vthumb_02_l
p306
aF0.49245902726655988
aa(lp307
Vthumb_03_l
p308
aF0.49245902726655988
aaa(lp309
I31
a(lp310
Vindex_01_l
p311
aF0.0063306895532563067
aa(lp312
Vindex_02_l
p313
aF0.0060182403993600695
aa(lp314
Vthumb_01_l
p315
aF0.011190194670517439
aa(lp316
Vthumb_02_l
p317
aF0.48823043768843299
aa(lp318
Vthumb_03_l
p319
aF0.48823043768843322
aaa(lp320
I32
a(lp321
Vindex_01_l
p322
aF0.0027361681945714859
aa(lp323
Vindex_02_l
p324
aF0.0024127951488295296
aa(lp325
Vthumb_01_l
p326
aF0.0068464806937574806
aa(lp327
Vthumb_02_l
p328
aF0.49400227798142077
aa(lp329
Vthumb_03_l
p330
aF0.49400227798142077
aaa(lp331
I33
a(lp332
Vindex_01_l
p333
aF0.0059900665988541577
aa(lp334
Vindex_02_l
p335
aF0.0056238926962808187
aa(lp336
Vthumb_01_l
p337
aF0.013224102075341712
aa(lp338
Vthumb_02_l
p339
aF0.48758096931476169
aa(lp340
Vthumb_03_l
p341
aF0.48758096931476158
aaa(lp342
I34
a(lp343
Vindex_01_l
p344
aF0.0031594661960633206
aa(lp345
Vindex_02_l
p346
aF0.0028629601044485044
aa(lp347
Vthumb_01_l
p348
aF0.00792955334066958
aa(lp349
Vthumb_02_l
p350
aF0.49302401017940928
aa(lp351
Vthumb_03_l
p352
aF0.49302401017940928
aaa(lp353
I35
a(lp354
Vindex_01_l
p355
aF0.0070363671477369893
aa(lp356
Vindex_02_l
p357
aF0.006803460415871339
aa(lp358
Vthumb_01_l
p359
aF0.012321339534110878
aa(lp360
Vthumb_02_l
p361
aF0.48691941645114045
aa(lp362
Vthumb_03_l
p363
aF0.48691941645114045
aaa(lp364
I36
a(lp365
Vindex_01_l
p366
aF0.0052925407225468358
aa(lp367
Vindex_02_l
p368
aF0.0050729151932883323
aa(lp369
Vthumb_01_l
p370
aF0.0073349935415873389
aa(lp371
Vthumb_02_l
p372
aF0.49114977527128872
aa(lp373
Vthumb_03_l
p374
aF0.49114977527128872
aaa(lp375
I37
a(lp376
Vindex_01_l
p377
aF0.0080560758596897961
aa(lp378
Vindex_02_l
p379
aF0.0078723623236077352
aa(lp380
Vthumb_01_l
p381
aF0.010882232380047499
aa(lp382
Vthumb_02_l
p383
aF0.48659466471832752
aa(lp384
Vthumb_03_l
p385
aF0.48659466471832752
aaa(lp386
I38
a(lp387
Vindex_01_l
p388
aF0.01054696716101893
aa(lp389
Vindex_02_l
p390
aF0.01035769294751861
aa(lp391
Vthumb_01_l
p392
aF0.015569222317564921
aa(lp393
Vthumb_02_l
p394
aF0.48176305878694875
aa(lp395
Vthumb_03_l
p396
aF0.48176305878694875
aaa(lp397
I39
a(lp398
Vindex_01_l
p399
aF0.0095835393310391807
aa(lp400
Vindex_02_l
p401
aF0.0092692467598861732
aa(lp402
Vthumb_01_l
p403
aF0.01775893259811287
aa(lp404
Vthumb_02_l
p405
aF0.48169414065548088
aa(lp406
Vthumb_03_l
p407
aF0.48169414065548088
aaa(lp408
I40
a(lp409
Vindex_01_l
p410
aF0.01000628722785747
aa(lp411
Vindex_02_l
p412
aF0.0097508274301716553
aa(lp413
Vthumb_01_l
p414
aF0.018446064503581459
aa(lp415
Vthumb_02_l
p416
aF0.48089841041919473
aa(lp417
Vthumb_03_l
p418
aF0.48089841041919473
aaa(lp419
I41
a(lp420
Vindex_01_l
p421
aF0.011084796401944595
aa(lp422
Vindex_02_l
p423
aF0.010948421735446384
aa(lp424
Vthumb_01_l
p425
aF0.016214701843608272
aa(lp426
Vthumb_02_l
p427
aF0.48087604000950035
aa(lp428
Vthumb_03_l
p429
aF0.48087604000950035
aaa(lp430
I42
a(lp431
Vhand_l
p432
aF0.001892146233882504
aa(lp433
Vindex_01_l
p434
aF0.0013705745408423464
aa(lp435
Vthumb_01_l
p436
aF0.071788814182484076
aa(lp437
Vthumb_02_l
p438
aF0.89869511246714995
aa(lp439
Vthumb_03_l
p440
aF0.02625335257564115
aaa(lp441
I43
a(lp442
Vhand_l
p443
aF0.0019328115065805269
aa(lp444
Vindex_01_l
p445
aF0.001418809848947822
aa(lp446
Vthumb_01_l
p447
aF0.091464213074196943
aa(lp448
Vthumb_02_l
p449
aF0.87956621362941412
aa(lp450
Vthumb_03_l
p451
aF0.025617951940860681
aaa(lp452
I44
a(lp453
Vhand_l
p454
aF0.0089893839558126479
aa(lp455
Vindex_01_l
p456
aF0.0090360506062707076
aa(lp457
Vthumb_01_l
p458
aF0.060157920037929795
aa(lp459
Vthumb_02_l
p460
aF0.81786722581881943
aa(lp461
Vthumb_03_l
p462
aF0.10394941958116746
aaa(lp463
I45
a(lp464
Vhand_l
p465
aF0.0085711819684347167
aa(lp466
Vindex_01_l
p467
aF0.0085680850677755764
aa(lp468
Vthumb_01_l
p469
aF0.045419866549426355
aa(lp470
Vthumb_02_l
p471
aF0.83331603748056871
aa(lp472
Vthumb_03_l
p473
aF0.1041248289337946
aaa(lp474
I46
a(lp475
Vhand_l
p476
aF0.0024240830870361596
aa(lp477
Vthumb_01_l
p478
aF0.5730249016901332
aa(lp479
Vthumb_02_l
p480
aF0.42348033555902614
aaa(lp481
I47
a(lp482
Vhand_l
p483
aF0.0091932126047155061
aa(lp484
Vindex_01_l
p485
aF0.0066299636415896356
aa(lp486
Vthumb_01_l
p487
aF0.30044784136147412
aa(lp488
Vthumb_02_l
p489
aF0.67504628023465185
aa(lp490
Vthumb_03_l
p491
aF0.0086827021575689011
aaa(lp492
I48
a(lp493
Vhand_l
p494
aF0.0036927667849922926
aa(lp495
Vindex_01_l
p496
aF0.0020879530192022973
aa(lp497
Vthumb_01_l
p498
aF0.30657936908228423
aa(lp499
Vthumb_02_l
p500
aF0.68180150843711274
aa(lp501
Vthumb_03_l
p502
aF0.0058384026764085103
aaa(lp503
I49
a(lp504
Vhand_l
p505
aF0.019376271513196201
aa(lp506
Vindex_01_l
p507
aF0.0015206462543486874
aa(lp508
Vthumb_01_l
p509
aF0.59857361113559471
aa(lp510
Vthumb_02_l
p511
aF0.37812027549995408
aa(lp512
Vthumb_03_l
p513
aF0.0024091955969063532
aaa(lp514
I50
a(lp515
Vindex_01_l
p516
aF0.012629280771308831
aa(lp517
Vindex_02_l
p518
aF0.012437836740366139
aa(lp519
Vthumb_01_l
p520
aF0.020236964707791873
aa(lp521
Vthumb_02_l
p522
aF0.47734795889026643
aa(lp523
Vthumb_03_l
p524
aF0.47734795889026665
aaa(lp525
I51
a(lp526
Vindex_01_l
p527
aF0.013177519731785978
aa(lp528
Vindex_02_l
p529
aF0.013053386715721215
aa(lp530
Vthumb_01_l
p531
aF0.019385771205020063
aa(lp532
Vthumb_02_l
p533
aF0.47719166117373635
aa(lp534
Vthumb_03_l
p535
aF0.47719166117373635
aaa(lp536
I52
a(lp537
Vindex_01_l
p538
aF0.013053768658589237
aa(lp539
Vindex_02_l
p540
aF0.012908621584395607
aa(lp541
Vthumb_01_l
p542
aF0.020782136978282711
aa(lp543
Vthumb_02_l
p544
aF0.47662773638936623
aa(lp545
Vthumb_03_l
p546
aF0.47662773638936623
aaa(lp547
I53
a(lp548
Vindex_01_l
p549
aF0.012558971024630055
aa(lp550
Vindex_02_l
p551
aF0.012344260051703261
aa(lp552
Vthumb_01_l
p553
aF0.021668544258907459
aa(lp554
Vthumb_02_l
p555
aF0.47671411233237976
aa(lp556
Vthumb_03_l
p557
aF0.47671411233237954
aaa(lp558
I54
a(lp559
Vhand_l
p560
aF0.0022927902426884859
aa(lp561
Vindex_01_l
p562
aF0.0013592802707670915
aa(lp563
Vthumb_01_l
p564
aF0.33901752257878803
aa(lp565
Vthumb_02_l
p566
aF0.65328622424854177
aa(lp567
Vthumb_03_l
p568
aF0.0040441826592147317
aaa(lp569
I55
a(lp570
Vhand_l
p571
aF0.0065191833571920143
aa(lp572
Vindex_01_l
p573
aF0.0048368809323097945
aa(lp574
Vthumb_01_l
p575
aF0.32484979626982358
aa(lp576
Vthumb_02_l
p577
aF0.65676995541347294
aa(lp578
Vthumb_03_l
p579
aF0.0070241840272017714
aaa(lp580
I56
a(lp581
Vhand_l
p582
aF0.0011088980876625266
aa(lp583
Vthumb_01_l
p584
aF0.50670246061342872
aa(lp585
Vthumb_02_l
p586
aF0.49160446925858214
aaa(lp587
I57
a(lp588
Vhand_l
p589
aF0.013678537763280358
aa(lp590
Vindex_01_l
p591
aF0.0013093348320458171
aa(lp592
Vthumb_01_l
p593
aF0.53876506590634377
aa(lp594
Vthumb_02_l
p595
aF0.44407681377718672
aa(lp596
Vthumb_03_l
p597
aF0.0021702477211434246
aaa(lp598
I58
a(lp599
Vhand_l
p600
aF0.0028563540189096384
aa(lp601
Vindex_01_l
p602
aF0.0018761058002162189
aa(lp603
Vthumb_01_l
p604
aF0.31217920471359345
aa(lp605
Vthumb_02_l
p606
aF0.68095544894626414
aa(lp607
Vthumb_03_l
p608
aF0.0021328865210165438
aaa(lp609
I59
a(lp610
Vhand_l
p611
aF0.017041044452251169
aa(lp612
Vthumb_01_l
p613
aF0.69049016773428917
aa(lp614
Vthumb_02_l
p615
aF0.2902645873528788
aa(lp616
Vthumb_03_l
p617
aF0.0012763579103933869
aaa(lp618
I60
a(lp619
Vhand_l
p620
aF0.012124752454137326
aa(lp621
Vindex_01_l
p622
aF0.011299972446502639
aa(lp623
Vthumb_01_l
p624
aF0.13295189014007142
aa(lp625
Vthumb_02_l
p626
aF0.81720852842356451
aa(lp627
Vthumb_03_l
p628
aF0.026414856535724146
aaa(lp629
I61
a(lp630
Vhand_l
p631
aF0.0048879319528179633
aa(lp632
Vthumb_01_l
p633
aF0.49609765171739334
aa(lp634
Vthumb_02_l
p635
aF0.49609765171739323
aa(lp636
Vthumb_03_l
p637
aF0.0021712476628800489
aaa(lp638
I62
a(lp639
Vthumb_01_l
p640
aF0.0039853712152946351
aa(lp641
Vthumb_02_l
p642
aF0.6447377517452485
aa(lp643
Vthumb_03_l
p644
aF0.34963253307456527
aaa(lp645
I63
a(lp646
Vhand_l
p647
aF0.0011894994272147706
aa(lp648
Vindex_01_l
p649
aF0.0014361845685323487
aa(lp650
Vthumb_01_l
p651
aF0.0023131409179840091
aa(lp652
Vthumb_02_l
p653
aF0.49753058754313451
aa(lp654
Vthumb_03_l
p655
aF0.49753058754313439
aaa(lp656
I64
a(lp657
Vindex_01_l
p658
aF0.0010089686111483711
aa(lp659
Vthumb_01_l
p660
aF0.0022296228672521556
aa(lp661
Vthumb_02_l
p662
aF0.49794391529065291
aa(lp663
Vthumb_03_l
p664
aF0.49794391529065313
aaa(lp665
I65
a(lp666
Vthumb_02_l
p667
aF0.49928800213118929
aa(lp668
Vthumb_03_l
p669
aF0.49928800213118929
aaa(lp670
I66
a(lp671
Vhand_l
p672
aF0.0050585607735303822
aa(lp673
Vindex_01_l
p674
aF0.0058539661327474358
aa(lp675
Vthumb_01_l
p676
aF0.010602041843286017
aa(lp677
Vthumb_02_l
p678
aF0.56720594089252052
aa(lp679
Vthumb_03_l
p680
aF0.41127949035791561
aaa(lp681
I67
a(lp682
Vindex_01_l
p683
aF0.0025206450676679886
aa(lp684
Vindex_02_l
p685
aF0.0019949537702665891
aa(lp686
Vthumb_01_l
p687
aF0.0041301408825793941
aa(lp688
Vthumb_02_l
p689
aF0.49567713013974302
aa(lp690
Vthumb_03_l
p691
aF0.49567713013974302
aaa(lp692
I68
a(lp693
Vhand_l
p694
aF0.0053640301938459121
aa(lp695
Vindex_01_l
p696
aF0.0014782245804800152
aa(lp697
Vthumb_01_l
p698
aF0.49772373383763291
aa(lp699
Vthumb_02_l
p700
aF0.49321737834839596
aa(lp701
Vthumb_03_l
p702
aF0.002216633039645274
aaa(lp703
I69
a(lp704
Vindex_01_l
p705
aF0.0137490187069477
aa(lp706
Vindex_02_l
p707
aF0.013601129531620217
aa(lp708
Vthumb_01_l
p709
aF0.021709630533985599
aa(lp710
Vthumb_02_l
p711
aF0.47547011061372324
aa(lp712
Vthumb_03_l
p713
aF0.47547011061372324
aaa(lp714
I70
a(lp715
Vhand_l
p716
aF0.0024124563793847084
aa(lp717
Vthumb_01_l
p718
aF0.49779696434044973
aa(lp719
Vthumb_02_l
p720
aF0.49779696434044951
aa(lp721
Vthumb_03_l
p722
aF0.0012370842137776985
aaa(lp723
I71
a(lp724
Vthumb_01_l
p725
aF0.99318579837976317
aa(lp726
Vthumb_02_l
p727
aF0.0068133680424463106
aaa(lp728
I72
a(lp729
Vhand_l
p730
aF0.011183380936207177
aa(lp731
Vindex_01_l
p732
aF0.0091260899666324238
aa(lp733
Vthumb_01_l
p734
aF0.23185348867385827
aa(lp735
Vthumb_02_l
p736
aF0.73615740691675569
aa(lp737
Vthumb_03_l
p738
aF0.011679633506546402
aaa(lp739
I73
a(lp740
Vhand_l
p741
aF0.026483826027401514
aa(lp742
Vindex_01_l
p743
aF0.0015947632208556275
aa(lp744
Vthumb_01_l
p745
aF0.59935981568814845
aa(lp746
Vthumb_02_l
p747
aF0.36996419982765161
aa(lp748
Vthumb_03_l
p749
aF0.0025973952359428349
aaa(lp750
I74
a(lp751
Vthumb_02_l
p752
aF0.49928196221446447
aa(lp753
Vthumb_03_l
p754
aF0.49928196221446447
aaa(lp755
I75
a(lp756
Vindex_01_l
p757
aF0.002614199130415613
aa(lp758
Vindex_02_l
p759
aF0.002002581233887388
aa(lp760
Vthumb_01_l
p761
aF0.0033659744848193143
aa(lp762
Vthumb_02_l
p763
aF0.49600862257543887
aa(lp764
Vthumb_03_l
p765
aF0.49600862257543887
aaa(lp766
I76
a(lp767
Vthumb_01_l
p768
aF0.0026670275672835871
aa(lp769
Vthumb_02_l
p770
aF0.49783444938454557
aa(lp771
Vthumb_03_l
p772
aF0.49783444938454546
aaa(lp773
I77
a(lp774
Vthumb_01_l
p775
aF0.0013163184861589654
aa(lp776
Vthumb_02_l
p777
aF0.49909282644466779
aa(lp778
Vthumb_03_l
p779
aF0.49909282644466779
aaa(lp780
I78
a(lp781
Vindex_01_l
p782
aF0.0031018798880100918
aa(lp783
Vindex_02_l
p784
aF0.0028109929692290568
aa(lp785
Vthumb_01_l
p786
aF0.0059558774957803023
aa(lp787
Vthumb_02_l
p788
aF0.49406562482349037
aa(lp789
Vthumb_03_l
p790
aF0.49406562482349015
aaa(lp791
I79
a(lp792
Vindex_01_l
p793
aF0.0027993456817968936
aa(lp794
Vindex_02_l
p795
aF0.0024769196414310061
aa(lp796
Vthumb_01_l
p797
aF0.0076160555444245619
aa(lp798
Vthumb_02_l
p799
aF0.49355383956617377
aa(lp800
Vthumb_03_l
p801
aF0.49355383956617377
aaa(lp802
I80
a(lp803
Vindex_01_l
p804
aF0.0038235143113918152
aa(lp805
Vindex_02_l
p806
aF0.0035809564452807282
aa(lp807
Vthumb_01_l
p808
aF0.0073006729049103014
aa(lp809
Vthumb_02_l
p810
aF0.49264742816920859
aa(lp811
Vthumb_03_l
p812
aF0.49264742816920859
aaa(lp813
I81
a(lp814
Vindex_01_l
p815
aF0.0055291363214633616
aa(lp816
Vindex_02_l
p817
aF0.0052925222401090976
aa(lp818
Vthumb_01_l
p819
aF0.0068669361728518185
aa(lp820
Vthumb_02_l
p821
aF0.49115570263278785
aa(lp822
Vthumb_03_l
p823
aF0.49115570263278785
aaa(lp824
I82
a(lp825
Vindex_01_l
p826
aF0.0098853257449272331
aa(lp827
Vindex_02_l
p828
aF0.0096260359968461835
aa(lp829
Vthumb_01_l
p830
aF0.016447378228438413
aa(lp831
Vthumb_02_l
p832
aF0.48202063001489415
aa(lp833
Vthumb_03_l
p834
aF0.48202063001489415
aaa(lp835
I83
a(lp836
Vindex_01_l
p837
aF0.0096502272056286521
aa(lp838
Vindex_02_l
p839
aF0.0093447276777897451
aa(lp840
Vthumb_01_l
p841
aF0.018470680219359326
aa(lp842
Vthumb_02_l
p843
aF0.48126718244861122
aa(lp844
Vthumb_03_l
p845
aF0.48126718244861111
aaa(lp846
I84
a(lp847
Vindex_01_l
p848
aF0.010516693645158559
aa(lp849
Vindex_02_l
p850
aF0.010332244348722947
aa(lp851
Vthumb_01_l
p852
aF0.017334414410824676
aa(lp853
Vthumb_02_l
p854
aF0.48090832379764692
aa(lp855
Vthumb_03_l
p856
aF0.48090832379764692
aaa(lp857
I85
a(lp858
Vindex_01_l
p859
aF0.011016189856798872
aa(lp860
Vindex_02_l
p861
aF0.010873360118865633
aa(lp862
Vthumb_01_l
p863
aF0.015523738650156386
aa(lp864
Vthumb_02_l
p865
aF0.48129335568708959
aa(lp866
Vthumb_03_l
p867
aF0.48129335568708959
aaa(lp868
I86
a(lp869
Vhand_l
p870
aF0.0015038924790724073
aa(lp871
Vthumb_01_l
p872
aF0.078983547979087382
aa(lp873
Vthumb_02_l
p874
aF0.90115689492497097
aa(lp875
Vthumb_03_l
p876
aF0.017458710844852003
aaa(lp877
I87
a(lp878
Vhand_l
p879
aF0.0028328195280860656
aa(lp880
Vindex_01_l
p881
aF0.0026919322545471344
aa(lp882
Vthumb_01_l
p883
aF0.063654700820172494
aa(lp884
Vthumb_02_l
p885
aF0.88691770742306353
aa(lp886
Vthumb_03_l
p887
aF0.043902839974130817
aaa(lp888
I88
a(lp889
Vhand_l
p890
aF0.011547137362251851
aa(lp891
Vindex_01_l
p892
aF0.011651174569150408
aa(lp893
Vthumb_01_l
p894
aF0.045582646914521491
aa(lp895
Vthumb_02_l
p896
aF0.81110743985369549
aa(lp897
Vthumb_03_l
p898
aF0.12011160130038082
aaa(lp899
I89
a(lp900
Vhand_l
p901
aF0.0024950348257716738
aa(lp902
Vindex_01_l
p903
aF0.0023633199355600149
aa(lp904
Vthumb_01_l
p905
aF0.042198580438556052
aa(lp906
Vthumb_02_l
p907
aF0.91073392443048207
aa(lp908
Vthumb_03_l
p909
aF0.042209140369630214
aaa.