(lp1
(lp2
I0
a(lp3
Vhand_r
p4
aF0.028025146170313927
aa(lp5
Vindex_01_r
p6
aF0.0016425534134370994
aa(lp7
Vthumb_01_r
p8
aF0.80121249248068616
aa(lp9
Vthumb_02_r
p10
aF0.16733379421351408
aa(lp11
Vthumb_03_r
p12
aF0.0017860137220487306
aaa(lp13
I1
a(lp14
Vhand_r
p15
aF0.0016443732584257255
aa(lp16
Vthumb_01_r
p17
aF0.59103080590896806
aa(lp18
Vthumb_02_r
p19
aF0.40629377626047497
aaa(lp20
I2
a(lp21
Vhand_r
p22
aF0.0018937525164636978
aa(lp23
Vindex_01_r
p24
aF0.0017552517662548922
aa(lp25
Vthumb_01_r
p26
aF0.033918662331350206
aa(lp27
Vthumb_02_r
p28
aF0.81585990038621892
aa(lp29
Vthumb_03_r
p30
aF0.14657243299971237
aaa(lp31
I3
a(lp32
Vhand_r
p33
aF0.005588005866283937
aa(lp34
Vindex_01_r
p35
aF0.0055864390068103998
aa(lp36
Vthumb_01_r
p37
aF0.033124872102912865
aa(lp38
Vthumb_02_r
p39
aF0.78512017127318257
aa(lp40
Vthumb_03_r
p41
aF0.17058051175081024
aaa(lp42
I4
a(lp43
Vthumb_01_r
p44
aF0.016214121742046998
aa(lp45
Vthumb_02_r
p46
aF0.88984492558747663
aa(lp47
Vthumb_03_r
p48
aF0.092390392150082087
aaa(lp49
I5
a(lp50
Vhand_r
p51
aF0.0025510189268767892
aa(lp52
Vindex_01_r
p53
aF0.0025657777083768632
aa(lp54
Vthumb_01_r
p55
aF0.016951815124307594
aa(lp56
Vthumb_02_r
p57
aF0.86053840100773049
aa(lp58
Vthumb_03_r
p59
aF0.11739298723270834
aaa(lp60
I6
a(lp61
Vhand_r
p62
aF0.020966097259483497
aa(lp63
Vindex_01_r
p64
aF0.001233538789415485
aa(lp65
Vthumb_01_r
p66
aF0.82069969862916292
aa(lp67
Vthumb_02_r
p68
aF0.15571705660474819
aa(lp69
Vthumb_03_r
p70
aF0.0013836087171899857
aaa(lp71
I7
a(lp72
Vthumb_01_r
p73
aF0.63930136177360286
aa(lp74
Vthumb_02_r
p75
aF0.36003820068273817
aaa(lp76
I8
a(lp77
Vindex_01_r
p78
aF0.0044502029978390452
aa(lp79
Vindex_02_r
p80
aF0.004162085237465361
aa(lp81
Vthumb_01_r
p82
aF0.011809499720381799
aa(lp83
Vthumb_02_r
p84
aF0.48978910602215692
aa(lp85
Vthumb_03_r
p86
aF0.48978910602215692
aaa(lp87
I9
a(lp88
Vindex_01_r
p89
aF0.0041891114029496282
aa(lp90
Vindex_02_r
p91
aF0.0039675076200336263
aa(lp92
Vthumb_01_r
p93
aF0.0098693501579981517
aa(lp94
Vthumb_02_r
p95
aF0.49098701540950929
aa(lp96
Vthumb_03_r
p97
aF0.49098701540950929
aaa(lp98
I10
a(lp99
Vindex_01_r
p100
aF0.0040052664244237205
aa(lp101
Vindex_02_r
p102
aF0.0038084031721124421
aa(lp103
Vthumb_01_r
p104
aF0.0094121983890394674
aa(lp105
Vthumb_02_r
p106
aF0.49138706600721205
aa(lp107
Vthumb_03_r
p108
aF0.49138706600721227
aaa(lp109
I11
a(lp110
Vindex_01_r
p111
aF0.0042734178769649397
aa(lp112
Vindex_02_r
p113
aF0.0040136259134367054
aa(lp114
Vthumb_01_r
p115
aF0.011323998684535153
aa(lp116
Vthumb_02_r
p117
aF0.49019447876253158
aa(lp118
Vthumb_03_r
p119
aF0.49019447876253158
aaa(lp120
I12
a(lp121
Vthumb_01_r
p122
aF0.0015536524268332081
aa(lp123
Vthumb_02_r
p124
aF0.49867012854070647
aa(lp125
Vthumb_03_r
p126
aF0.49867012854070647
aaa(lp127
I13
a(lp128
Vthumb_01_r
p129
aF0.0026378192983347345
aa(lp130
Vthumb_02_r
p131
aF0.49821489950355813
aa(lp132
Vthumb_03_r
p133
aF0.49821489950355813
aaa(lp134
I14
a(lp135
Vthumb_01_r
p136
aF0.001173094906884967
aa(lp137
Vthumb_02_r
p138
aF0.49921229899307029
aa(lp139
Vthumb_03_r
p140
aF0.49921229899307029
aaa(lp141
I15
a(lp142
Vthumb_02_r
p143
aF0.49956220650523769
aa(lp144
Vthumb_03_r
p145
aF0.49956220650523769
aaa(lp146
I16
a(lp147
Vindex_01_r
p148
aF0.0018326782024861432
aa(lp149
Vindex_02_r
p150
aF0.0016700930428619565
aa(lp151
Vthumb_01_r
p152
aF0.0044197886627764041
aa(lp153
Vthumb_02_r
p154
aF0.49603872004593774
aa(lp155
Vthumb_03_r
p156
aF0.49603872004593774
aaa(lp157
I17
a(lp158
Vhand_r
p159
aF0.0018881932927159173
aa(lp160
Vindex_01_r
p161
aF0.0020367719996294597
aa(lp162
Vthumb_01_r
p163
aF0.0067986376452221367
aa(lp164
Vthumb_02_r
p165
aF0.49463819853121627
aa(lp166
Vthumb_03_r
p167
aF0.49463819853121627
aaa(lp168
I18
a(lp169
Vhand_r
p170
aF0.0016065548457416096
aa(lp171
Vindex_01_r
p172
aF0.0017518978246547222
aa(lp173
Vthumb_01_r
p174
aF0.0058580889288366023
aa(lp175
Vthumb_02_r
p176
aF0.49539172920038355
aa(lp177
Vthumb_03_r
p178
aF0.49539172920038355
aaa(lp179
I19
a(lp180
Vindex_01_r
p181
aF0.001518137813713959
aa(lp182
Vindex_02_r
p183
aF0.0013988301945481877
aa(lp184
Vthumb_01_r
p185
aF0.0036455605605359089
aa(lp186
Vthumb_02_r
p187
aF0.49671873571560099
aa(lp188
Vthumb_03_r
p189
aF0.49671873571560099
aaa(lp190
I20
a(lp191
Vhand_r
p192
aF0.013764316372732684
aa(lp193
Vindex_01_r
p194
aF0.0021440328707864613
aa(lp195
Vthumb_01_r
p196
aF0.55676909714440204
aa(lp197
Vthumb_02_r
p198
aF0.42329351054080855
aa(lp199
Vthumb_03_r
p200
aF0.0040290430712702453
aaa(lp201
I21
a(lp202
Vhand_r
p203
aF0.0089504747784611514
aa(lp204
Vindex_01_r
p205
aF0.0013986548590345564
aa(lp206
Vthumb_01_r
p207
aF0.55897429360580053
aa(lp208
Vthumb_02_r
p209
aF0.4278938212804379
aa(lp210
Vthumb_03_r
p211
aF0.002782755476265992
aaa(lp212
I22
a(lp213
Vhand_r
p214
aF0.0026242793670846602
aa(lp215
Vindex_01_r
p216
aF0.0015151730632066073
aa(lp217
Vthumb_01_r
p218
aF0.34516311211042217
aa(lp219
Vthumb_02_r
p220
aF0.6484765925581446
aa(lp221
Vthumb_03_r
p222
aF0.0022208429011417799
aaa(lp223
I23
a(lp224
Vhand_r
p225
aF0.0059578653409573662
aa(lp226
Vindex_01_r
p227
aF0.0035871074335442794
aa(lp228
Vthumb_01_r
p229
aF0.40108776279785463
aa(lp230
Vthumb_02_r
p231
aF0.58460105200112633
aa(lp232
Vthumb_03_r
p233
aF0.0047662124265173671
aaa(lp234
I24
a(lp235
Vthumb_02_r
p236
aF0.49912090665079117
aa(lp237
Vthumb_03_r
p238
aF0.49912090665079117
aaa(lp239
I25
a(lp240
Vthumb_01_r
p241
aF0.009706954882782854
aa(lp242
Vthumb_02_r
p243
aF0.91857079495386529
aa(lp244
Vthumb_03_r
p245
aF0.070279748942252585
aaa(lp246
I26
a(lp247
Vthumb_01_r
p248
aF0.0023783051712442842
aa(lp249
Vthumb_02_r
p250
aF0.58547339228317552
aa(lp251
Vthumb_03_r
p252
aF0.41161555584589421
aaa(lp253
I27
a(lp254
Vthumb_02_r
p255
aF0.49978553287895083
aa(lp256
Vthumb_03_r
p257
aF0.49978553287895083
aaa(lp258
I28
a(lp259
Vthumb_01_r
p260
aF0.021913515278007993
aa(lp261
Vthumb_02_r
p262
aF0.86843031963799877
aa(lp263
Vthumb_03_r
p264
aF0.10776876678298622
aaa(lp265
I29
a(lp266
Vthumb_01_r
p267
aF0.0021913750031379619
aa(lp268
Vthumb_02_r
p269
aF0.49855709272925075
aa(lp270
Vthumb_03_r
p271
aF0.49855709272925064
aaa(lp272
I30
a(lp273
Vthumb_01_r
p274
aF0.0021252434271102471
aa(lp275
Vthumb_02_r
p276
aF0.49813183546723788
aa(lp277
Vthumb_03_r
p278
aF0.49813183546723788
aaa(lp279
I31
a(lp280
Vhand_r
p281
aF0.0017135911702873469
aa(lp282
Vindex_01_r
p283
aF0.0019100511200248191
aa(lp284
Vthumb_01_r
p285
aF0.0054829522541982147
aa(lp286
Vthumb_02_r
p287
aF0.49544670272774483
aa(lp288
Vthumb_03_r
p289
aF0.49544670272774483
aaa(lp290
I32
a(lp291
Vthumb_01_r
p292
aF0.0037961434821830787
aa(lp293
Vthumb_02_r
p294
aF0.49720696683947291
aa(lp295
Vthumb_03_r
p296
aF0.49720696683947291
aaa(lp297
I33
a(lp298
Vhand_r
p299
aF0.0018045520046076516
aa(lp300
Vindex_01_r
p301
aF0.001937354133480374
aa(lp302
Vthumb_01_r
p303
aF0.0067864922457578853
aa(lp304
Vthumb_02_r
p305
aF0.49473580080807711
aa(lp306
Vthumb_03_r
p307
aF0.494735800808077
aaa(lp308
I34
a(lp309
Vthumb_01_r
p310
aF0.002667140142574592
aa(lp311
Vthumb_02_r
p312
aF0.49804684900407487
aa(lp313
Vthumb_03_r
p314
aF0.49804684900407487
aaa(lp315
I35
a(lp316
Vindex_01_r
p317
aF0.0015193382309602339
aa(lp318
Vindex_02_r
p319
aF0.0013740343521485565
aa(lp320
Vthumb_01_r
p321
aF0.0043557646147367136
aa(lp322
Vthumb_02_r
p323
aF0.49637543140107732
aa(lp324
Vthumb_03_r
p325
aF0.49637543140107721
aaa(lp326
I36
a(lp327
Vthumb_01_r
p328
aF0.001302656609781174
aa(lp329
Vthumb_02_r
p330
aF0.49884860383718016
aa(lp331
Vthumb_03_r
p332
aF0.49884860383718016
aaa(lp333
I37
a(lp334
Vindex_01_r
p335
aF0.0016455470032315685
aa(lp336
Vindex_02_r
p337
aF0.001518212820251324
aa(lp338
Vthumb_01_r
p339
aF0.0037175617172330606
aa(lp340
Vthumb_02_r
p341
aF0.49655933922964191
aa(lp342
Vthumb_03_r
p343
aF0.49655933922964213
aaa(lp344
I38
a(lp345
Vindex_01_r
p346
aF0.0032839085845403977
aa(lp347
Vindex_02_r
p348
aF0.0030792818922617919
aa(lp349
Vthumb_01_r
p350
aF0.0077211136379331984
aa(lp351
Vthumb_02_r
p352
aF0.49295784794263231
aa(lp353
Vthumb_03_r
p354
aF0.49295784794263231
aaa(lp355
I39
a(lp356
Vindex_01_r
p357
aF0.0035875378678347889
aa(lp358
Vindex_02_r
p359
aF0.0032872647449216697
aa(lp360
Vthumb_01_r
p361
aF0.010304288332930445
aa(lp362
Vthumb_02_r
p363
aF0.49141045452715654
aa(lp364
Vthumb_03_r
p365
aF0.49141045452715654
aaa(lp366
I40
a(lp367
Vindex_01_r
p368
aF0.0033335496815085851
aa(lp369
Vindex_02_r
p370
aF0.003076921635752006
aa(lp371
Vthumb_01_r
p372
aF0.009564800538004169
aa(lp373
Vthumb_02_r
p374
aF0.4920123640723677
aa(lp375
Vthumb_03_r
p376
aF0.49201236407236759
aaa(lp377
I41
a(lp378
Vindex_01_r
p379
aF0.0030132685625459017
aa(lp380
Vindex_02_r
p381
aF0.0028443739194355848
aa(lp382
Vthumb_01_r
p383
aF0.0070575204172044917
aa(lp384
Vthumb_02_r
p385
aF0.49354241855040715
aa(lp386
Vthumb_03_r
p387
aF0.49354241855040692
aaa(lp388
I42
a(lp389
Vhand_r
p390
aF0.0036064900492941872
aa(lp391
Vindex_01_r
p392
aF0.0022086243923819305
aa(lp393
Vthumb_01_r
p394
aF0.30663150932363448
aa(lp395
Vthumb_02_r
p396
aF0.67128125527356519
aa(lp397
Vthumb_03_r
p398
aF0.016272120961124233
aaa(lp399
I43
a(lp400
Vhand_r
p401
aF0.0019653545648798112
aa(lp402
Vindex_01_r
p403
aF0.0012055900573724467
aa(lp404
Vthumb_01_r
p405
aF0.24904147574472904
aa(lp406
Vthumb_02_r
p407
aF0.73771863747586119
aa(lp408
Vthumb_03_r
p409
aF0.010068942157157604
aaa(lp410
I44
a(lp411
Vhand_r
p412
aF0.0036654606561911224
aa(lp413
Vindex_01_r
p414
aF0.0031577916606069182
aa(lp415
Vthumb_01_r
p416
aF0.084593749615334182
aa(lp417
Vthumb_02_r
p418
aF0.89242937866299354
aa(lp419
Vthumb_03_r
p420
aF0.016153619404874225
aaa(lp421
I45
a(lp422
Vhand_r
p423
aF0.0079403660013859442
aa(lp424
Vindex_01_r
p425
aF0.0069731574706613664
aa(lp426
Vthumb_01_r
p427
aF0.14208751172803882
aa(lp428
Vthumb_02_r
p429
aF0.81318161412608236
aa(lp430
Vthumb_03_r
p431
aF0.029817350673831487
aaa(lp432
I46
a(lp433
Vhand_r
p434
aF0.0061126277116696996
aa(lp435
Vthumb_01_r
p436
aF0.78707437664108548
aa(lp437
Vthumb_02_r
p438
aF0.20508330994628082
aaa(lp439
I47
a(lp440
Vhand_r
p441
aF0.005205840319878462
aa(lp442
Vindex_01_r
p443
aF0.0023198578264198486
aa(lp444
Vthumb_01_r
p445
aF0.49542169696865374
aa(lp446
Vthumb_02_r
p447
aF0.4950436787599799
aa(lp448
Vthumb_03_r
p449
aF0.0020089261250680907
aaa(lp450
I48
a(lp451
Vhand_r
p452
aF0.0039195991775188444
aa(lp453
Vindex_01_r
p454
aF0.0016931563085210417
aa(lp455
Vthumb_01_r
p456
aF0.4970300778350622
aa(lp457
Vthumb_02_r
p458
aF0.49453153544037659
aa(lp459
Vthumb_03_r
p460
aF0.0028256312385214724
aaa(lp461
I49
a(lp462
Vhand_r
p463
aF0.046607034749614314
aa(lp464
Vindex_01_r
p465
aF0.0028846116238819353
aa(lp466
Vthumb_01_r
p467
aF0.71688056205242456
aa(lp468
Vthumb_02_r
p469
aF0.23012523807830249
aa(lp470
Vthumb_03_r
p471
aF0.0035025534957766101
aaa(lp472
I50
a(lp473
Vindex_01_r
p474
aF0.0047205351074310646
aa(lp475
Vindex_02_r
p476
aF0.0044606637805266981
aa(lp477
Vthumb_01_r
p478
aF0.011660335032392147
aa(lp479
Vthumb_02_r
p480
aF0.48957923303982503
aa(lp481
Vthumb_03_r
p482
aF0.48957923303982503
aaa(lp483
I51
a(lp484
Vindex_01_r
p485
aF0.0044151924166482897
aa(lp486
Vindex_02_r
p487
aF0.0042106487417190508
aa(lp488
Vthumb_01_r
p489
aF0.010140644799207711
aa(lp490
Vthumb_02_r
p491
aF0.49061675702121255
aa(lp492
Vthumb_03_r
p493
aF0.49061675702121244
aaa(lp494
I52
a(lp495
Vindex_01_r
p496
aF0.0044946521404141699
aa(lp497
Vindex_02_r
p498
aF0.004267817976819529
aa(lp499
Vthumb_01_r
p500
aF0.011073460067585682
aa(lp501
Vthumb_02_r
p502
aF0.49008203490759028
aa(lp503
Vthumb_03_r
p504
aF0.49008203490759028
aaa(lp505
I53
a(lp506
Vindex_01_r
p507
aF0.0047987544714634262
aa(lp508
Vindex_02_r
p509
aF0.0045143474274639576
aa(lp510
Vthumb_01_r
p511
aF0.012652319371792849
aa(lp512
Vthumb_02_r
p513
aF0.48901728936463995
aa(lp514
Vthumb_03_r
p515
aF0.48901728936463995
aaa(lp516
I54
a(lp517
Vhand_r
p518
aF0.0013364360499330478
aa(lp519
Vthumb_01_r
p520
aF0.49856458832125078
aa(lp521
Vthumb_02_r
p522
aF0.498564588321251
aaa(lp523
I55
a(lp524
Vhand_r
p525
aF0.0020250501517373354
aa(lp526
Vthumb_01_r
p527
aF0.49630438980034053
aa(lp528
Vthumb_02_r
p529
aF0.5000222691275813
aaa(lp530
I56
a(lp531
Vhand_r
p532
aF0.002373003741257406
aa(lp533
Vthumb_01_r
p534
aF0.84834249127835504
aa(lp535
Vthumb_02_r
p536
aF0.14859312203113911
aaa(lp537
I57
a(lp538
Vhand_r
p539
aF0.035828348516585222
aa(lp540
Vindex_01_r
p541
aF0.0022279314077015885
aa(lp542
Vthumb_01_r
p543
aF0.73298220108731638
aa(lp544
Vthumb_02_r
p545
aF0.22614166971052618
aa(lp546
Vthumb_03_r
p547
aF0.0028198492778705323
aaa(lp548
I58
a(lp549
Vthumb_01_r
p550
aF0.55176153512494575
aa(lp551
Vthumb_02_r
p552
aF0.44725622578256846
aaa(lp553
I59
a(lp554
Vhand_r
p555
aF0.045860096246642654
aa(lp556
Vindex_01_r
p557
aF0.0017445590139049737
aa(lp558
Vthumb_01_r
p559
aF0.815632182528787
aa(lp560
Vthumb_02_r
p561
aF0.13486097196340735
aa(lp562
Vthumb_03_r
p563
aF0.0019021902472580758
aaa(lp564
I60
a(lp565
Vhand_r
p566
aF0.0047528315644324555
aa(lp567
Vindex_01_r
p568
aF0.003111023809961195
aa(lp569
Vthumb_01_r
p570
aF0.28986783692039075
aa(lp571
Vthumb_02_r
p572
aF0.69843117450217584
aa(lp573
Vthumb_03_r
p574
aF0.0038371332030398596
aaa(lp575
I61
a(lp576
Vhand_r
p577
aF0.016557192736164305
aa(lp578
Vindex_01_r
p579
aF0.0018777044869498338
aa(lp580
Vthumb_01_r
p581
aF0.58856559002009934
aa(lp582
Vthumb_02_r
p583
aF0.38929080632990781
aa(lp584
Vthumb_03_r
p585
aF0.0037087064268787398
aaa(lp586
I62
a(lp587
Vhand_r
p588
aF0.0027571405198832675
aa(lp589
Vindex_01_r
p590
aF0.0026873376282433425
aa(lp591
Vthumb_01_r
p592
aF0.031269484528494651
aa(lp593
Vthumb_02_r
p594
aF0.81346602730367856
aa(lp595
Vthumb_03_r
p596
aF0.14982001001970016
aaa(lp597
I63
a(lp598
Vhand_r
p599
aF0.0016043967268933252
aa(lp600
Vindex_01_r
p601
aF0.0016884649839138404
aa(lp602
Vthumb_01_r
p603
aF0.0057763499482971553
aa(lp604
Vthumb_02_r
p605
aF0.54888068509316046
aa(lp606
Vthumb_03_r
p607
aF0.44205010324773519
aaa(lp608
I64
a(lp609
Vthumb_01_r
p610
aF0.0016113200759150233
aa(lp611
Vthumb_02_r
p612
aF0.49880512265462346
aa(lp613
Vthumb_03_r
p614
aF0.49880512265462346
aaa(lp615
I65
a(lp616
Vthumb_01_r
p617
aF0.0059936230336126222
aa(lp618
Vthumb_02_r
p619
aF0.55610377303816183
aa(lp620
Vthumb_03_r
p621
aF0.43647861031543411
aaa(lp622
I66
a(lp623
Vhand_r
p624
aF0.0045853098078796877
aa(lp625
Vindex_01_r
p626
aF0.0046393369574379822
aa(lp627
Vthumb_01_r
p628
aF0.022315600812035583
aa(lp629
Vthumb_02_r
p630
aF0.82746943099070347
aa(lp631
Vthumb_03_r
p632
aF0.14099032143194321
aaa(lp633
I67
a(lp634
Vthumb_01_r
p635
aF0.002277949171099487
aa(lp636
Vthumb_02_r
p637
aF0.57580754095105036
aa(lp638
Vthumb_03_r
p639
aF0.4206720216856798
aaa(lp640
I68
a(lp641
Vhand_r
p642
aF0.008601212664617686
aa(lp643
Vindex_01_r
p644
aF0.0017983774518765955
aa(lp645
Vthumb_01_r
p646
aF0.63687646771494533
aa(lp647
Vthumb_02_r
p648
aF0.35078864976504365
aa(lp649
Vthumb_03_r
p650
aF0.0019352924035167733
aaa(lp651
I69
a(lp652
Vindex_01_r
p653
aF0.005089123387733591
aa(lp654
Vindex_02_r
p655
aF0.0048460062421852588
aa(lp656
Vthumb_01_r
p657
aF0.012336182888775448
aa(lp658
Vthumb_02_r
p659
aF0.48886434374065296
aa(lp660
Vthumb_03_r
p661
aF0.48886434374065274
aaa(lp662
I70
a(lp663
Vhand_r
p664
aF0.0035603028016579579
aa(lp665
Vthumb_01_r
p666
aF0.66754134587007896
aa(lp667
Vthumb_02_r
p668
aF0.32728400277946551
aaa(lp669
I71
a(lp670
Vthumb_01_r
p671
aF0.97771095678744924
aa(lp672
Vthumb_02_r
p673
aF0.021885120194602245
aaa(lp674
I72
a(lp675
Vhand_r
p676
aF0.0035296193272184935
aa(lp677
Vindex_01_r
p678
aF0.0017594100223056552
aa(lp679
Vthumb_01_r
p680
aF0.45318919228081334
aa(lp681
Vthumb_02_r
p682
aF0.54011781459754882
aa(lp683
Vthumb_03_r
p684
aF0.0014039637721136677
aaa(lp685
I73
a(lp686
Vhand_r
p687
aF0.065042570044360801
aa(lp688
Vindex_01_r
p689
aF0.0027865790637609383
aa(lp690
Vthumb_01_r
p691
aF0.73169316067626367
aa(lp692
Vthumb_02_r
p693
aF0.19694522022375857
aa(lp694
Vthumb_03_r
p695
aF0.0035324699918559844
aaa(lp696
I74
a(lp697
Vthumb_01_r
p698
aF0.0050529554045520182
aa(lp699
Vthumb_02_r
p700
aF0.55955299446994144
aa(lp701
Vthumb_03_r
p702
aF0.43364637309143095
aaa(lp703
I75
a(lp704
Vhand_r
p705
aF0.0012024988851115069
aa(lp706
Vindex_01_r
p707
aF0.0013247329457886925
aa(lp708
Vthumb_01_r
p709
aF0.0037202129806208936
aa(lp710
Vthumb_02_r
p711
aF0.55921414988338924
aa(lp712
Vthumb_03_r
p713
aF0.43453840530508964
aaa(lp714
I76
a(lp715
Vthumb_01_r
p716
aF0.001011446096683652
aa(lp717
Vthumb_02_r
p718
aF0.62190590416689751
aa(lp719
Vthumb_03_r
p720
aF0.37675750900780985
aaa(lp721
I77
a(lp722
Vthumb_01_r
p723
aF0.0039214825879727456
aa(lp724
Vthumb_02_r
p725
aF0.57020426214220676
aa(lp726
Vthumb_03_r
p727
aF0.42506626053491986
aaa(lp728
I78
a(lp729
Vthumb_01_r
p730
aF0.0026514976241474126
aa(lp731
Vthumb_02_r
p732
aF0.49789702813546749
aa(lp733
Vthumb_03_r
p734
aF0.49789702813546749
aaa(lp735
I79
a(lp736
Vthumb_01_r
p737
aF0.0036450539826391407
aa(lp738
Vthumb_02_r
p739
aF0.49737960182260321
aa(lp740
Vthumb_03_r
p741
aF0.49737960182260321
aaa(lp742
I80
a(lp743
Vthumb_01_r
p744
aF0.0014457534138271686
aa(lp745
Vthumb_02_r
p746
aF0.49885989880842307
aa(lp747
Vthumb_03_r
p748
aF0.49885989880842307
aaa(lp749
I81
a(lp750
Vthumb_01_r
p751
aF0.001574464265496597
aa(lp752
Vthumb_02_r
p753
aF0.49853985499875064
aa(lp754
Vthumb_03_r
p755
aF0.49853985499875064
aaa(lp756
I82
a(lp757
Vindex_01_r
p758
aF0.0034467356538956154
aa(lp759
Vindex_02_r
p760
aF0.0031914922842462266
aa(lp761
Vthumb_01_r
p762
aF0.0090054613907049191
aa(lp763
Vthumb_02_r
p764
aF0.49217815533557663
aa(lp765
Vthumb_03_r
p766
aF0.49217815533557663
aaa(lp767
I83
a(lp768
Vindex_01_r
p769
aF0.0035052780998650634
aa(lp770
Vindex_02_r
p771
aF0.0032111220697026419
aa(lp772
Vthumb_01_r
p773
aF0.010373649125471944
aa(lp774
Vthumb_02_r
p775
aF0.49145497535248023
aa(lp776
Vthumb_03_r
p777
aF0.49145497535248023
aaa(lp778
I84
a(lp779
Vindex_01_r
p780
aF0.0030990731749231028
aa(lp781
Vindex_02_r
p782
aF0.002896482491075012
aa(lp783
Vthumb_01_r
p784
aF0.0080717341755586723
aa(lp785
Vthumb_02_r
p786
aF0.4929663550792216
aa(lp787
Vthumb_03_r
p788
aF0.4929663550792216
aaa(lp789
I85
a(lp790
Vindex_01_r
p791
aF0.0030881853466521877
aa(lp792
Vindex_02_r
p793
aF0.002916125791202079
aa(lp794
Vthumb_01_r
p795
aF0.0069824338288494844
aa(lp796
Vthumb_02_r
p797
aF0.49350662751664814
aa(lp798
Vthumb_03_r
p799
aF0.49350662751664814
aaa(lp800
I86
a(lp801
Vhand_r
p802
aF0.0027148428775348853
aa(lp803
Vindex_01_r
p804
aF0.0013499213073517322
aa(lp805
Vthumb_01_r
p806
aF0.3086479115387501
aa(lp807
Vthumb_02_r
p808
aF0.67615581105879485
aa(lp809
Vthumb_03_r
p810
aF0.011131513217568433
aaa(lp811
I87
a(lp812
Vhand_r
p813
aF0.0013838437287078027
aa(lp814
Vindex_01_r
p815
aF0.0010129652278925627
aa(lp816
Vthumb_01_r
p817
aF0.10577630549955228
aa(lp818
Vthumb_02_r
p819
aF0.88429075493022347
aa(lp820
Vthumb_03_r
p821
aF0.0075361306136238794
aaa(lp822
I88
a(lp823
Vhand_r
p824
aF0.0063614451213154068
aa(lp825
Vindex_01_r
p826
aF0.0057852115481031256
aa(lp827
Vthumb_01_r
p828
aF0.089837221869375455
aa(lp829
Vthumb_02_r
p830
aF0.87492851425829854
aa(lp831
Vthumb_03_r
p832
aF0.023087607202907479
aaa(lp833
I89
a(lp834
Vhand_r
p835
aF0.0042096957916978759
aa(lp836
Vindex_01_r
p837
aF0.0031857754675523576
aa(lp838
Vthumb_01_r
p839
aF0.2049020339724606
aa(lp840
Vthumb_02_r
p841
aF0.76836667642578438
aa(lp842
Vthumb_03_r
p843
aF0.019335818342504744
aaa.