(lp1
(lp2
I0
a(lp3
Vclavicle_r
p4
aF0.029610071541625035
aa(lp5
Vupperarm_r
p6
aF0.97035715875112616
aaa(lp7
I1
a(lp8
Vclavicle_r
p9
aF0.45539208577375989
aa(lp10
Vupperarm_r
p11
aF0.54459391107647748
aaa(lp12
I2
a(lp13
Vspine_03
p14
aF0.012495048827003063
aa(lp15
VWingR
p16
aF0.0018290027969449217
aa(lp17
Vclavicle_r
p18
aF0.92301290101560973
aa(lp19
Vupperarm_r
p20
aF0.061703414145083277
aaa(lp21
I3
a(lp22
Vspine_03
p23
aF0.0011249401831369744
aa(lp24
Vclavicle_r
p25
aF0.99144135513289955
aa(lp26
Vupperarm_r
p27
aF0.0072178129788301459
aaa(lp28
I4
a(lp29
Vspine_02
p30
aF0.0053628449473555025
aa(lp31
Vspine_03
p32
aF0.045480780095457585
aa(lp33
VWingR
p34
aF0.011645590001272471
aa(lp35
Vclavicle_r
p36
aF0.74973764741164606
aa(lp37
Vupperarm_r
p38
aF0.18777313754426836
aaa(lp39
I5
a(lp40
Vspine_02
p41
aF0.0020620524441020815
aa(lp42
Vspine_03
p43
aF0.021992508772094473
aa(lp44
VWingR
p45
aF0.0057066477995471815
aa(lp46
Vclavicle_r
p47
aF0.84274169148716449
aa(lp48
Vupperarm_r
p49
aF0.12749709949709176
aaa(lp50
I6
a(lp51
Vspine_03
p52
aF0.0015759763024823634
aa(lp53
Vclavicle_r
p54
aF0.40354027179763441
aa(lp55
Vupperarm_r
p56
aF0.59334728550043336
aaa(lp57
I7
a(lp58
Vclavicle_r
p59
aF0.4950976772641883
aa(lp60
Vupperarm_r
p61
aF0.50336240208474681
aaa(lp62
I8
a(lp63
Vclavicle_r
p64
aF0.0039645262694321835
aa(lp65
Vupperarm_r
p66
aF0.98747424034796027
aa(lp67
Vlowerarm_r
p68
aF0.0039620478942615379
aa(lp69
Vupperarm_twist_01_r
p70
aF0.0041018723210724545
aaa(lp71
I9
a(lp72
Vupperarm_r
p73
aF0.99815145485170065
aaa(lp74
I10
a(lp75
Vupperarm_r
p76
aF0.99999729303766338
aaa(lp77
I11
a(lp78
Vclavicle_r
p79
aF0.0015901871617340828
aa(lp80
Vupperarm_r
p81
aF0.99476755735406963
aa(lp82
Vlowerarm_r
p83
aF0.0015926493966881433
aa(lp84
Vupperarm_twist_01_r
p85
aF0.001850690364923137
aaa(lp86
I12
a(lp87
Vupperarm_r
p88
aF0.5414212025748022
aa(lp89
Vlowerarm_r
p90
aF0.45828044845706084
aaa(lp91
I13
a(lp92
Vupperarm_r
p93
aF0.64628599472623816
aa(lp94
Vlowerarm_r
p95
aF0.35350020979640279
aaa(lp96
I14
a(lp97
Vupperarm_r
p98
aF0.90064636893421435
aa(lp99
Vlowerarm_r
p100
aF0.099344537846663875
aaa(lp101
I15
a(lp102
Vupperarm_r
p103
aF0.46989886017050131
aa(lp104
Vlowerarm_r
p105
aF0.53006867082929976
aaa(lp106
I16
a(lp107
Vupperarm_r
p108
aF0.99080008168890232
aa(lp109
Vlowerarm_r
p110
aF0.009179596851153873
aaa(lp111
I17
a(lp112
Vupperarm_r
p113
aF0.88964596906695537
aa(lp114
Vlowerarm_r
p115
aF0.10989415125607598
aaa(lp116
I18
a(lp117
Vupperarm_r
p118
aF0.80616809768162634
aa(lp119
Vlowerarm_r
p120
aF0.1927712747419644
aaa(lp121
I19
a(lp122
Vupperarm_r
p123
aF0.89824334629410185
aa(lp124
Vlowerarm_r
p125
aF0.10148001489843975
aaa(lp126
I20
a(lp127
Vspine_03
p128
aF0.0011511988025570124
aa(lp129
Vclavicle_r
p130
aF0.035059035628643445
aa(lp131
Vupperarm_r
p132
aF0.95698264073011785
aa(lp133
Vupperarm_twist_01_r
p134
aF0.0060136520993102965
aaa(lp135
I21
a(lp136
Vupperarm_r
p137
aF0.99999657062015734
aaa(lp138
I22
a(lp139
Vupperarm_r
p140
aF0.99993527682984007
aaa(lp141
I23
a(lp142
Vclavicle_r
p143
aF0.012571221252055004
aa(lp144
Vupperarm_r
p145
aF0.98455646746772274
aa(lp146
Vupperarm_twist_01_r
p147
aF0.0023069011156551487
aaa(lp148
I24
a(lp149
Vupperarm_r
p150
aF0.99934539287824331
aaa(lp151
I25
a(lp152
Vclavicle_r
p153
aF0.0031384294965707449
aa(lp154
Vupperarm_r
p155
aF0.98958369785569222
aa(lp156
Vlowerarm_r
p157
aF0.0030503037928156463
aa(lp158
Vupperarm_twist_01_r
p159
aF0.0038379544424685936
aaa(lp160
I26
a(lp161
Vupperarm_r
p162
aF0.99102599504262379
aa(lp163
Vlowerarm_r
p164
aF0.0085000953330532925
aaa(lp165
I27
a(lp166
Vupperarm_r
p167
aF0.84886006613379139
aa(lp168
Vlowerarm_r
p169
aF0.15034350320059231
aaa(lp170
I28
a(lp171
Vupperarm_r
p172
aF0.96789996274013101
aa(lp173
Vlowerarm_r
p174
aF0.029620834030870406
aa(lp175
Vupperarm_twist_01_r
p176
aF0.0012431413831366113
aaa(lp177
I29
a(lp178
Vupperarm_r
p179
aF0.999943354377406
aaa(lp180
I30
a(lp181
Vupperarm_r
p182
aF0.96566965110438285
aa(lp183
Vlowerarm_r
p184
aF0.034237764115831203
aaa(lp185
I31
a(lp186
Vupperarm_r
p187
aF0.98748407050753906
aa(lp188
Vlowerarm_r
p189
aF0.011651979795535573
aaa(lp190
I32
a(lp191
Vupperarm_r
p192
aF0.9852659487840365
aa(lp193
Vlowerarm_r
p194
aF0.014698857922601179
aaa(lp195
I33
a(lp196
Vupperarm_r
p197
aF0.81796940004073182
aa(lp198
Vlowerarm_r
p199
aF0.18141342077533101
aaa(lp200
I34
a(lp201
Vupperarm_r
p202
aF0.86657046490040224
aa(lp203
Vlowerarm_r
p204
aF0.13338617351788315
aaa(lp205
I35
a(lp206
Vupperarm_r
p207
aF0.66606901314710965
aa(lp208
Vlowerarm_r
p209
aF0.33346796128460604
aaa(lp210
I36
a(lp211
Vupperarm_r
p212
aF0.54879696569145875
aa(lp213
Vlowerarm_r
p214
aF0.45052860027445574
aaa(lp215
I37
a(lp216
Vupperarm_r
p217
aF0.47304508890440372
aa(lp218
Vlowerarm_r
p219
aF0.52684473009949273
aaa(lp220
I38
a(lp221
Vclavicle_r
p222
aF0.16126483052249385
aa(lp223
Vupperarm_r
p224
aF0.83872843074101611
aaa(lp225
I39
a(lp226
Vclavicle_r
p227
aF0.99782797603197004
aa(lp228
Vupperarm_r
p229
aF0.0020669996254030227
aaa(lp230
I40
a(lp231
Vspine_03
p232
aF0.0030551563720831176
aa(lp233
Vclavicle_r
p234
aF0.98510219696259882
aa(lp235
Vupperarm_r
p236
aF0.011332154444177527
aaa(lp237
I41
a(lp238
Vspine_03
p239
aF0.0071938514929853212
aa(lp240
VWingR
p241
aF0.0012727060691724676
aa(lp242
Vclavicle_r
p243
aF0.88172266849203418
aa(lp244
Vupperarm_r
p245
aF0.10905216583985472
aaa(lp246
I42
a(lp247
Vspine_03
p248
aF0.0095952368212356247
aa(lp249
VWingR
p250
aF0.0016394719289734583
aa(lp251
Vclavicle_r
p252
aF0.94740809002490822
aa(lp253
Vupperarm_r
p254
aF0.040758516030042512
aaa(lp255
I43
a(lp256
Vspine_02
p257
aF0.0049396477338061115
aa(lp258
Vspine_03
p259
aF0.04829556605466126
aa(lp260
VWingR
p261
aF0.013128654951764516
aa(lp262
Vclavicle_r
p263
aF0.77413308413415083
aa(lp264
Vupperarm_r
p265
aF0.1595030471256173
aaa(lp266
I44
a(lp267
Vspine_02
p268
aF0.0037405224413646189
aa(lp269
Vspine_03
p270
aF0.042157014618280142
aa(lp271
VWingR
p272
aF0.0074440164684067903
aa(lp273
Vclavicle_r
p274
aF0.82533311109979524
aa(lp275
Vupperarm_r
p276
aF0.12132533537215318
aaa(lp277
I45
a(lp278
Vspine_02
p279
aF0.0017232924562795477
aa(lp280
Vspine_03
p281
aF0.013424749113053148
aa(lp282
VWingR
p283
aF0.0045110073513712195
aa(lp284
Vclavicle_r
p285
aF0.75990416087034562
aa(lp286
Vupperarm_r
p287
aF0.22043679020895041
aaa(lp288
I46
a(lp289
Vspine_03
p290
aF0.0015263874478031495
aa(lp291
Vclavicle_r
p292
aF0.49825303170519553
aa(lp293
Vupperarm_r
p294
aF0.49884923458540181
aaa(lp295
I47
a(lp296
Vspine_02
p297
aF0.0052532484971002207
aa(lp298
Vspine_03
p299
aF0.030257918698188897
aa(lp300
VWingR
p301
aF0.010065332194307271
aa(lp302
Vclavicle_r
p303
aF0.6548833664553646
aa(lp304
Vupperarm_r
p305
aF0.29954013415503894
aaa(lp306
I48
a(lp307
Vupperarm_r
p308
aF0.59122564403687528
aa(lp309
Vlowerarm_r
p310
aF0.40846622647125241
aaa(lp311
I49
a(lp312
Vupperarm_r
p313
aF0.71250630977865159
aa(lp314
Vlowerarm_r
p315
aF0.28743238890711115
aaa(lp316
I50
a(lp317
Vupperarm_r
p318
aF0.90372744097151803
aa(lp319
Vlowerarm_r
p320
aF0.09626819637732921
aaa(lp321
I51
a(lp322
Vupperarm_r
p323
aF0.32992665779323721
aa(lp324
Vlowerarm_r
p325
aF0.66998996354298179
aaa(lp326
I52
a(lp327
Vclavicle_r
p328
aF0.48260311858013621
aa(lp329
Vupperarm_r
p330
aF0.51713560906543654
aaa(lp331
I53
a(lp332
Vclavicle_r
p333
aF0.17719019353107038
aa(lp334
Vupperarm_r
p335
aF0.82211318509730102
aaa(lp336
I54
a(lp337
Vclavicle_r
p338
aF0.0080155526889059206
aa(lp339
Vupperarm_r
p340
aF0.9908998981221433
aaa(lp341
I55
a(lp342
Vclavicle_r
p343
aF0.0021285393755648115
aa(lp344
Vupperarm_r
p345
aF0.99362264442742521
aa(lp346
Vlowerarm_r
p347
aF0.002346513128947209
aa(lp348
Vupperarm_twist_01_r
p349
aF0.0016337354709433116
aaa(lp350
I56
a(lp351
Vclavicle_r
p352
aF0.99062035943184212
aa(lp353
Vupperarm_r
p354
aF0.0088722532866789671
aaa(lp355
I57
a(lp356
Vspine_02
p357
aF0.0014888366737229599
aa(lp358
Vspine_03
p359
aF0.024292345052574743
aa(lp360
VWingR
p361
aF0.0037154818376211704
aa(lp362
Vclavicle_r
p363
aF0.91691895945985813
aa(lp364
Vupperarm_r
p365
aF0.053584376976223022
aaa(lp366
I58
a(lp367
Vspine_02
p368
aF0.003764408268584379
aa(lp369
Vspine_03
p370
aF0.023242533425522446
aa(lp371
VWingR
p372
aF0.0088312227891418245
aa(lp373
Vclavicle_r
p374
aF0.67682353720219646
aa(lp375
Vupperarm_r
p376
aF0.28733829831455493
aaa(lp377
I59
a(lp378
Vupperarm_r
p379
aF0.80647673713632895
aa(lp380
Vlowerarm_r
p381
aF0.19351539419402289
aaa(lp382
I60
a(lp383
Vspine_03
p384
aF0.0032892571309867417
aa(lp385
Vclavicle_r
p386
aF0.92293724009383449
aa(lp387
Vupperarm_r
p388
aF0.072735807127583749
aaa(lp389
I61
a(lp390
Vspine_02
p391
aF0.0028900616637707465
aa(lp392
Vspine_03
p393
aF0.020139334221254687
aa(lp394
VWingR
p395
aF0.0048639209111171955
aa(lp396
Vclavicle_r
p397
aF0.73911338005551697
aa(lp398
Vupperarm_r
p399
aF0.23299330314834052
aaa(lp400
I62
a(lp401
Vclavicle_r
p402
aF0.021521963004596745
aa(lp403
Vupperarm_r
p404
aF0.97484246627963056
aa(lp405
Vupperarm_twist_01_r
p406
aF0.0024390358041042988
aaa(lp407
I63
a(lp408
Vupperarm_r
p409
aF0.99940059868247011
aaa(lp410
I64
a(lp411
Vclavicle_r
p412
aF0.0012898849067434271
aa(lp413
Vupperarm_r
p414
aF0.99850511130404296
aaa(lp415
I65
a(lp416
Vclavicle_r
p417
aF0.026503529020845698
aa(lp418
Vupperarm_r
p419
aF0.96668699373070477
aa(lp420
Vupperarm_twist_01_r
p421
aF0.0054958361358252985
aaa(lp422
I66
a(lp423
Vupperarm_r
p424
aF0.97911974263945667
aa(lp425
Vlowerarm_r
p426
aF0.0195264079078529
aaa(lp427
I67
a(lp428
Vupperarm_r
p429
aF0.99929467113542225
aaa(lp430
I68
a(lp431
Vupperarm_r
p432
aF0.99836324463367299
aa(lp433
Vlowerarm_r
p434
aF0.0015447504805733007
aaa(lp435
I69
a(lp436
Vupperarm_r
p437
aF0.97545506669438231
aa(lp438
Vlowerarm_r
p439
aF0.02269696248548396
aaa(lp440
I70
a(lp441
Vupperarm_r
p442
aF0.77007907281640608
aa(lp443
Vlowerarm_r
p444
aF0.22978101831827211
aaa(lp445
I71
a(lp446
Vupperarm_r
p447
aF0.63480919896241561
aa(lp448
Vlowerarm_r
p449
aF0.36454253220336813
aaa(lp450
I72
a(lp451
Vupperarm_r
p452
aF0.38209998915908233
aa(lp453
Vlowerarm_r
p454
aF0.61766762769046069
aaa(lp455
I73
a(lp456
Vupperarm_r
p457
aF0.88156832357824977
aa(lp458
Vlowerarm_r
p459
aF0.11840132395479946
aaa.