(lp1
(lp2
I0
a(lp3
Vroot
p4
aF0.0020050219807328973
aa(lp5
VTail1
p6
aF0.0051734078274416053
aa(lp7
VTail2
p8
aF0.49549808081455932
aa(lp9
VTail3
p10
aF0.49549808081455921
aa(lp11
Vcalf_l
p12
aF0.0018254085627070721
aaa(lp13
I1
a(lp14
VTail1
p15
aF0.0023803229542601742
aa(lp16
VTail2
p17
aF0.4981321005014181
aa(lp18
VTail3
p19
aF0.4981321005014181
aaa(lp20
I2
a(lp21
VTail1
p22
aF0.0014241196117411817
aa(lp23
VTail2
p24
aF0.49900763889199834
aa(lp25
VTail3
p26
aF0.49900763889199834
aaa(lp27
I3
a(lp28
VTail1
p29
aF0.0022319814163278516
aa(lp30
VTail2
p31
aF0.49857035487871915
aa(lp32
VTail3
p33
aF0.49857035487871915
aaa(lp34
I4
a(lp35
VTail1
p36
aF0.0067634108011499364
aa(lp37
VTail2
p38
aF0.49581079371242975
aa(lp39
VTail3
p40
aF0.49581079371242964
aaa(lp41
I5
a(lp42
Vroot
p43
aF0.0022659700965111298
aa(lp44
VTail1
p45
aF0.015528087746866641
aa(lp46
VTail2
p47
aF0.49226686225703281
aa(lp48
VTail3
p49
aF0.48802215487104073
aa(lp50
Vcalf_l
p51
aF0.0019169250285486956
aaa(lp52
I6
a(lp53
Vroot
p54
aF0.0040061469272564907
aa(lp55
VTail1
p56
aF0.020385912653389102
aa(lp57
VTail2
p58
aF0.48585327438521669
aa(lp59
VTail3
p60
aF0.48580180346798302
aa(lp61
Vcalf_l
p62
aF0.0039528625661547911
aaa(lp63
I7
a(lp64
Vroot
p65
aF0.0048030328107919289
aa(lp66
VTail1
p67
aF0.016793364978873362
aa(lp68
VTail2
p69
aF0.48660295720604474
aa(lp70
VTail3
p71
aF0.48660295720604474
aa(lp72
Vcalf_l
p73
aF0.0051976877982453235
aaa(lp74
I8
a(lp75
Vroot
p76
aF0.0038349460622902824
aa(lp77
VTail1
p78
aF0.010261456926909258
aa(lp79
VTail2
p80
aF0.49095268263716452
aa(lp81
VTail3
p82
aF0.49095268263716452
aa(lp83
Vcalf_l
p84
aF0.00399823173647142
aaa(lp85
I9
a(lp86
Vroot
p87
aF0.0042792661208599665
aa(lp88
VTail1
p89
aF0.012462235761891339
aa(lp90
VTail2
p91
aF0.48921696417352645
aa(lp92
VTail3
p93
aF0.48921696417352634
aa(lp94
Vcalf_l
p95
aF0.0048245697701959399
aaa(lp96
I10
a(lp97
Vroot
p98
aF0.0028867905343084557
aa(lp99
VTail1
p100
aF0.009495480507651562
aa(lp101
VTail2
p102
aF0.49234386754382359
aa(lp103
VTail3
p104
aF0.49234386754382359
aa(lp105
Vcalf_l
p106
aF0.0029299938703928768
aaa(lp107
I11
a(lp108
Vroot
p109
aF0.0021922412368257809
aa(lp110
VTail1
p111
aF0.0088519080525763568
aa(lp112
VTail2
p113
aF0.49345057871794262
aa(lp114
VTail3
p115
aF0.49345057871794262
aa(lp116
Vcalf_l
p117
aF0.0020546932747126691
aaa(lp118
I12
a(lp119
Vroot
p120
aF0.0022423326160424311
aa(lp121
VTail1
p122
aF0.011040547067787718
aa(lp123
VTail2
p124
aF0.49233748504386515
aa(lp125
VTail3
p126
aF0.49233748504386504
aa(lp127
Vcalf_l
p128
aF0.002042150228439702
aaa(lp129
I13
a(lp130
Vroot
p131
aF0.0030193895982232734
aa(lp132
VTail1
p133
aF0.016506464391715738
aa(lp134
VTail2
p135
aF0.48881623438321148
aa(lp136
VTail3
p137
aF0.48881623438321148
aa(lp138
Vcalf_l
p139
aF0.0028416772436380051
aaa(lp140
I14
a(lp141
Vroot
p142
aF0.0044164605365702237
aa(lp143
VTail1
p144
aF0.023114009971373188
aa(lp145
VTail2
p146
aF0.48396385451424506
aa(lp147
VTail3
p148
aF0.48396385451424506
aa(lp149
Vcalf_l
p150
aF0.00454182046356653
aaa(lp151
I15
a(lp152
VTail1
p153
aF0.02580666714337598
aa(lp154
VTail2
p155
aF0.48071238010136413
aa(lp156
VTail3
p157
aF0.48071238010136402
aa(lp158
Vthigh_l
p159
aF0.0060089494339993846
aa(lp160
Vcalf_l
p161
aF0.0067596232198964597
aaa(lp162
I16
a(lp163
VTail1
p164
aF0.022855215304644613
aa(lp165
VTail2
p166
aF0.48116921612906483
aa(lp167
VTail3
p168
aF0.48116921612906483
aa(lp169
Vthigh_l
p170
aF0.0067422255014026513
aa(lp171
Vcalf_l
p172
aF0.008064126935823094
aaa(lp173
I17
a(lp174
Vroot
p175
aF0.0058270167583976597
aa(lp176
VTail1
p177
aF0.017357237180747428
aa(lp178
VTail2
p179
aF0.48483978768759839
aa(lp180
VTail3
p181
aF0.48483978768759839
aa(lp182
Vcalf_l
p183
aF0.0071361706856580822
aaa(lp184
I18
a(lp185
VTail1
p186
aF0.033605906419977814
aa(lp187
VTail2
p188
aF0.469468912341866
aa(lp189
VTail3
p190
aF0.46946891234186588
aa(lp191
Vthigh_l
p192
aF0.011980215707964609
aa(lp193
Vcalf_l
p194
aF0.015476053188325819
aaa(lp195
I19
a(lp196
VTail1
p197
aF0.031578185106513661
aa(lp198
VTail2
p199
aF0.47273277143411874
aa(lp200
VTail3
p201
aF0.47273277143411896
aa(lp202
Vthigh_l
p203
aF0.010119261906679219
aa(lp204
Vcalf_l
p205
aF0.012837010118569312
aaa(lp206
I20
a(lp207
VTail1
p208
aF0.031899799014379789
aa(lp209
VTail2
p210
aF0.47402106759582302
aa(lp211
VTail3
p212
aF0.47402106759582302
aa(lp213
Vthigh_l
p214
aF0.0090337140386948407
aa(lp215
Vcalf_l
p216
aF0.011024351755279358
aaa(lp217
I21
a(lp218
VTail1
p219
aF0.034704130032352801
aa(lp220
VTail2
p221
aF0.47289110603258822
aa(lp222
VTail3
p223
aF0.47289110603258822
aa(lp224
Vthigh_l
p225
aF0.0089766795210658654
aa(lp226
Vcalf_l
p227
aF0.010536978381404966
aaa(lp228
I22
a(lp229
VTail1
p230
aF0.039161576834544798
aa(lp231
VTail2
p232
aF0.46972004519766669
aa(lp233
VTail3
p234
aF0.46972004519766647
aa(lp235
Vthigh_l
p236
aF0.0099705324228732076
aa(lp237
Vcalf_l
p238
aF0.011427800347249028
aaa(lp239
I23
a(lp240
VTail1
p241
aF0.043049585615235426
aa(lp242
VTail2
p243
aF0.46581579521336164
aa(lp244
VTail3
p245
aF0.46581579521336153
aa(lp246
Vthigh_l
p247
aF0.011805764530203128
aa(lp248
Vcalf_l
p249
aF0.013513059427838304
aaa(lp250
I24
a(lp251
VTail1
p252
aF0.043935612262564032
aa(lp253
VTail2
p254
aF0.46308433028679652
aa(lp255
VTail3
p256
aF0.46308433028679652
aa(lp257
Vthigh_l
p258
aF0.013767795593183611
aa(lp259
Vcalf_l
p260
aF0.016127931570659292
aaa(lp261
I25
a(lp262
VTail1
p263
aF0.041442876192157127
aa(lp264
VTail2
p265
aF0.46297274872084704
aa(lp266
VTail3
p267
aF0.46297274872084704
aa(lp268
Vthigh_l
p269
aF0.014681600549960703
aa(lp270
Vcalf_l
p271
aF0.017930025816188029
aaa(lp272
I26
a(lp273
VTail1
p274
aF0.037324628328490761
aa(lp275
VTail2
p276
aF0.46556708139402703
aa(lp277
VTail3
p278
aF0.46556708139402725
aa(lp279
Vthigh_l
p280
aF0.0138825712114134
aa(lp281
Vcalf_l
p282
aF0.017658637672041375
aaa(lp283
I27
a(lp284
VTail1
p285
aF0.062614761041460229
aa(lp286
VTail2
p287
aF0.43896011090315878
aa(lp288
VTail3
p289
aF0.43896011090315878
aa(lp290
Vthigh_l
p291
aF0.02629926840185013
aa(lp292
Vcalf_l
p293
aF0.03316574875037203
aaa(lp294
I28
a(lp295
VTail1
p296
aF0.062001756131481872
aa(lp297
VTail2
p298
aF0.44092737334371962
aa(lp299
VTail3
p300
aF0.44092737334371984
aa(lp301
Vthigh_l
p302
aF0.024931130556619763
aa(lp303
Vcalf_l
p304
aF0.03121236662445873
aaa(lp305
I29
a(lp306
VTail1
p307
aF0.062659922598045231
aa(lp308
VTail2
p309
aF0.44198489051461992
aa(lp310
VTail3
p311
aF0.44198489051461992
aa(lp312
Vthigh_l
p313
aF0.0239347305403412
aa(lp314
Vcalf_l
p315
aF0.02943556583237382
aaa(lp316
I30
a(lp317
VTail1
p318
aF0.064364056327487651
aa(lp319
VTail2
p320
aF0.44167561671985911
aa(lp321
VTail3
p322
aF0.44167561671985911
aa(lp323
Vthigh_l
p324
aF0.023699788125150056
aa(lp325
Vcalf_l
p326
aF0.028584922107644038
aaa(lp327
I31
a(lp328
VTail1
p329
aF0.066396270709703858
aa(lp330
VTail2
p331
aF0.44015321738775331
aa(lp332
VTail3
p333
aF0.44015321738775331
aa(lp334
Vthigh_l
p335
aF0.024325708265146906
aa(lp336
Vcalf_l
p337
aF0.028971586249642682
aaa(lp338
I32
a(lp339
VTail1
p340
aF0.067747638496900103
aa(lp341
VTail2
p342
aF0.43810030263528077
aa(lp343
VTail3
p344
aF0.43810030263528077
aa(lp345
Vthigh_l
p346
aF0.025592801459398469
aa(lp347
Vcalf_l
p348
aF0.030458954773139882
aaa(lp349
I33
a(lp350
VTail1
p351
aF0.06768058630704131
aa(lp352
VTail2
p353
aF0.43645598979063482
aa(lp354
VTail3
p355
aF0.43645598979063482
aa(lp356
Vthigh_l
p357
aF0.026950251470673627
aa(lp358
Vcalf_l
p359
aF0.032457182641015395
aaa(lp360
I34
a(lp361
VTail1
p362
aF0.0662567395582674
aa(lp363
VTail2
p364
aF0.43600879974814361
aa(lp365
VTail3
p366
aF0.43600879974814383
aa(lp367
Vthigh_l
p368
aF0.027698041286443469
aa(lp369
Vcalf_l
p370
aF0.03402761965900148
aaa(lp371
I35
a(lp372
VTail1
p373
aF0.064254808948201347
aa(lp374
VTail2
p375
aF0.43700168653429228
aa(lp376
VTail3
p377
aF0.43700168653429228
aa(lp378
Vthigh_l
p379
aF0.027421587433978219
aa(lp380
Vcalf_l
p381
aF0.034320230549235942
aaa(lp382
I36
a(lp383
VTail1
p384
aF0.083545141278175611
aa(lp385
VTail2
p386
aF0.41611748678044785
aa(lp387
VTail3
p388
aF0.41611748678044785
aa(lp389
Vthigh_l
p390
aF0.037917941563820293
aa(lp391
Vcalf_l
p392
aF0.046301943597108368
aaa.