(lp1
(lp2
I0
a(lp3
Vroot
p4
aF0.0013258077013687068
aa(lp5
VTail1
p6
aF0.0036534408917106892
aa(lp7
VTail2
p8
aF0.49694604259856473
aa(lp9
VTail3
p10
aF0.49694604259856473
aa(lp11
Vcalf_r
p12
aF0.0011286662097910844
aaa(lp13
I1
a(lp14
Vroot
p15
aF0.0029111155589961212
aa(lp16
VTail1
p17
aF0.0068699691349436379
aa(lp18
VTail2
p19
aF0.49374746141312181
aa(lp20
VTail3
p21
aF0.49374746141312181
aa(lp22
Vcalf_r
p23
aF0.0027239924798166215
aaa(lp24
I2
a(lp25
Vroot
p26
aF0.0046308573123011575
aa(lp27
VTail1
p28
aF0.012205284863271139
aa(lp29
VTail2
p30
aF0.48924069440543977
aa(lp31
VTail3
p32
aF0.48924069440543999
aa(lp33
Vcalf_r
p34
aF0.0046824690135478849
aaa(lp35
I3
a(lp36
Vroot
p37
aF0.0048137288342536807
aa(lp38
VTail1
p39
aF0.018050294423079292
aa(lp40
VTail2
p41
aF0.486147552272442
aa(lp42
VTail3
p43
aF0.486147552272442
aa(lp44
Vcalf_r
p45
aF0.0048408721977831063
aaa(lp46
I4
a(lp47
Vroot
p48
aF0.0034493452773515258
aa(lp49
VTail1
p50
aF0.019327347792966978
aa(lp51
VTail2
p52
aF0.49210945187958544
aa(lp53
VTail3
p54
aF0.48194796341701723
aa(lp55
Vcalf_r
p56
aF0.003165891633078829
aaa(lp57
I5
a(lp58
Vroot
p59
aF0.0019484580416393323
aa(lp60
VTail1
p61
aF0.013600270187224281
aa(lp62
VTail2
p63
aF0.49365056027856519
aa(lp64
VTail3
p65
aF0.48919353608110444
aa(lp66
Vcalf_r
p67
aF0.0016071754114667092
aaa(lp68
I6
a(lp69
VTail1
p70
aF0.0065313741707193982
aa(lp71
VTail2
p72
aF0.49586518914870942
aa(lp73
VTail3
p74
aF0.49586518914870931
aaa(lp75
I7
a(lp76
VTail1
p77
aF0.003063064355957182
aa(lp78
VTail2
p79
aF0.49795131989043168
aa(lp80
VTail3
p81
aF0.49795131989043157
aaa(lp82
I8
a(lp83
VTail1
p84
aF0.0024385995470584676
aa(lp85
VTail2
p86
aF0.4981983827096565
aa(lp87
VTail3
p88
aF0.4981983827096565
aaa(lp89
I9
a(lp90
Vroot
p91
aF0.0038639913295289451
aa(lp92
VTail1
p93
aF0.011367996621500882
aa(lp94
VTail2
p95
aF0.49026092403749705
aa(lp96
VTail3
p97
aF0.49026092403749694
aa(lp98
Vcalf_r
p99
aF0.00424616397397631
aaa(lp100
I10
a(lp101
Vroot
p102
aF0.0054465491425230361
aa(lp103
VTail1
p104
aF0.014649280909965151
aa(lp105
VTail2
p106
aF0.48668677626456869
aa(lp107
VTail3
p108
aF0.48668677626456869
aa(lp109
Vcalf_r
p110
aF0.0065306174183744781
aaa(lp111
I11
a(lp112
Vroot
p113
aF0.0068093659180392483
aa(lp114
VTail1
p115
aF0.019661223304645589
aa(lp116
VTail2
p117
aF0.48246463331694822
aa(lp118
VTail3
p119
aF0.48246463331694822
aa(lp120
Vcalf_r
p121
aF0.0086001441434187392
aaa(lp122
I12
a(lp123
VTail1
p124
aF0.024683932516397115
aa(lp125
VTail2
p126
aF0.47970940870662931
aa(lp127
VTail3
p128
aF0.47970940870662954
aa(lp129
Vthigh_r
p130
aF0.0073027679018756375
aa(lp131
Vcalf_r
p132
aF0.0085944821684682746
aaa(lp133
I13
a(lp134
VTail1
p135
aF0.026401210439860844
aa(lp136
VTail2
p137
aF0.48045907866410231
aa(lp138
VTail3
p139
aF0.48045907866410253
aa(lp140
Vthigh_r
p141
aF0.0060003503968318337
aa(lp142
Vcalf_r
p143
aF0.0066802818351023151
aaa(lp144
I14
a(lp145
Vroot
p146
aF0.0044015513482237156
aa(lp147
VTail1
p148
aF0.022748817676138115
aa(lp149
VTail2
p150
aF0.48414841557867105
aa(lp151
VTail3
p152
aF0.48414841557867105
aa(lp153
Vcalf_r
p154
aF0.004552799818296053
aaa(lp155
I15
a(lp156
Vroot
p157
aF0.0032469697367126468
aa(lp158
VTail1
p159
aF0.016563196285912563
aa(lp160
VTail2
p161
aF0.48850928883730527
aa(lp162
VTail3
p163
aF0.48850928883730527
aa(lp164
Vcalf_r
p165
aF0.0031712563027642554
aaa(lp166
I16
a(lp167
Vroot
p168
aF0.002718253986670258
aa(lp169
VTail1
p170
aF0.011996643060284955
aa(lp171
VTail2
p172
aF0.49132087546107372
aa(lp173
VTail3
p174
aF0.49132087546107372
aa(lp175
Vcalf_r
p176
aF0.0026433520308974169
aaa(lp177
I17
a(lp178
Vroot
p179
aF0.0029005937978253972
aa(lp180
VTail1
p181
aF0.010364388550016333
aa(lp182
VTail2
p183
aF0.49189388719040578
aa(lp184
VTail3
p185
aF0.49189388719040567
aa(lp186
Vcalf_r
p187
aF0.0029472432713467467
aaa(lp188
I18
a(lp189
VTail1
p190
aF0.033016255414957299
aa(lp191
VTail2
p192
aF0.46976484962221554
aa(lp193
VTail3
p194
aF0.46976484962221554
aa(lp195
Vthigh_r
p196
aF0.011949960379464157
aa(lp197
Vcalf_r
p198
aF0.015504084961147411
aaa(lp199
I19
a(lp200
VTail1
p201
aF0.035974406836977016
aa(lp202
VTail2
p203
aF0.46545931421094283
aa(lp204
VTail3
p205
aF0.46545931421094283
aa(lp206
Vthigh_r
p207
aF0.014339346849728828
aa(lp208
Vcalf_r
p209
aF0.018767617891408558
aaa(lp210
I20
a(lp211
VTail1
p212
aF0.040259402426256689
aa(lp213
VTail2
p214
aF0.46130131000573343
aa(lp215
VTail3
p216
aF0.46130131000573343
aa(lp217
Vthigh_r
p218
aF0.016331649517564453
aa(lp219
Vcalf_r
p220
aF0.020806328044711921
aaa(lp221
I21
a(lp222
VTail1
p223
aF0.044215903065682093
aa(lp224
VTail2
p225
aF0.45952267180597084
aa(lp226
VTail3
p227
aF0.45952267180597084
aa(lp228
Vthigh_r
p229
aF0.016579017410244708
aa(lp230
Vcalf_r
p231
aF0.020159735912131493
aaa(lp232
I22
a(lp233
VTail1
p234
aF0.045647107633019053
aa(lp235
VTail2
p236
aF0.4610457851320815
aa(lp237
VTail3
p238
aF0.4610457851320815
aa(lp239
Vthigh_r
p240
aF0.014874969333234405
aa(lp241
Vcalf_r
p242
aF0.017386352769583564
aaa(lp243
I23
a(lp244
VTail1
p245
aF0.043333859615858908
aa(lp246
VTail2
p247
aF0.46496690541017199
aa(lp248
VTail3
p249
aF0.46496690541017199
aa(lp250
Vthigh_r
p251
aF0.012434802361709294
aa(lp252
Vcalf_r
p253
aF0.014297527202087849
aaa(lp254
I24
a(lp255
VTail1
p256
aF0.038635666821302227
aa(lp257
VTail2
p258
aF0.46928887487506082
aa(lp259
VTail3
p260
aF0.46928887487506071
aa(lp261
Vthigh_r
p262
aF0.010545758500542056
aa(lp263
Vcalf_r
p264
aF0.012240824928034136
aaa(lp265
I25
a(lp266
VTail1
p267
aF0.03434721928304111
aa(lp268
VTail2
p269
aF0.47206950630156569
aa(lp270
VTail3
p271
aF0.47206950630156569
aa(lp272
Vthigh_r
p273
aF0.0097887074746060374
aa(lp274
Vcalf_r
p275
aF0.011725060639221616
aaa(lp276
I26
a(lp277
VTail1
p278
aF0.032335707367405375
aa(lp279
VTail2
p280
aF0.47225858559707462
aa(lp281
VTail3
p282
aF0.47225858559707462
aa(lp283
Vthigh_r
p284
aF0.010284005106981941
aa(lp285
Vcalf_r
p286
aF0.012863116331463434
aaa(lp287
I27
a(lp288
VTail1
p289
aF0.0618155266594346
aa(lp290
VTail2
p291
aF0.43932290547944181
aa(lp292
VTail3
p293
aF0.43932290547944169
aa(lp294
Vthigh_r
p295
aF0.026279294013143221
aa(lp296
Vcalf_r
p297
aF0.033259368368538676
aaa(lp298
I28
a(lp299
VTail1
p300
aF0.063393227671555877
aa(lp301
VTail2
p302
aF0.43642311450091786
aa(lp303
VTail3
p304
aF0.43642311450091786
aa(lp305
Vthigh_r
p306
aF0.028098137227245724
aa(lp307
Vcalf_r
p308
aF0.035662406099362741
aaa(lp309
I29
a(lp310
VTail1
p311
aF0.065661522206611103
aa(lp312
VTail2
p313
aF0.43410647428472127
aa(lp314
VTail3
p315
aF0.43410647428472127
aa(lp316
Vthigh_r
p317
aF0.029339117370745318
aa(lp318
Vcalf_r
p319
aF0.03678641185320105
aaa(lp320
I30
a(lp321
VTail1
p322
aF0.067656947801582892
aa(lp323
VTail2
p324
aF0.43351790564913179
aa(lp325
VTail3
p326
aF0.43351790564913156
aa(lp327
Vthigh_r
p328
aF0.029311333845457713
aa(lp329
Vcalf_r
p330
aF0.035995907054696158
aaa(lp331
I31
a(lp332
VTail1
p333
aF0.06837873428983661
aa(lp334
VTail2
p335
aF0.43492894784584912
aa(lp336
VTail3
p337
aF0.43492894784584912
aa(lp338
Vthigh_r
p339
aF0.028008085671366076
aa(lp340
Vcalf_r
p341
aF0.033755284347099103
aaa(lp342
I32
a(lp343
VTail1
p344
aF0.067359165029476364
aa(lp345
VTail2
p346
aF0.43762366016558124
aa(lp347
VTail3
p348
aF0.43762366016558124
aa(lp349
Vthigh_r
p350
aF0.0261472573822033
aa(lp351
Vcalf_r
p352
aF0.031246257257157888
aaa(lp353
I33
a(lp354
VTail1
p355
aF0.065107943948992067
aa(lp356
VTail2
p357
aF0.4403242897770282
aa(lp358
VTail3
p359
aF0.4403242897770282
aa(lp360
Vthigh_r
p361
aF0.024647386887797364
aa(lp362
Vcalf_r
p363
aF0.029596089609154233
aaa(lp364
I34
a(lp365
VTail1
p366
aF0.062817698816093698
aa(lp367
VTail2
p368
aF0.44181184844928739
aa(lp369
VTail3
p370
aF0.44181184844928717
aa(lp371
Vthigh_r
p372
aF0.024123930373636675
aa(lp373
Vcalf_r
p374
aF0.029434673911695037
aaa(lp375
I35
a(lp376
VTail1
p377
aF0.061567187095295413
aa(lp378
VTail2
p379
aF0.44142926104876279
aa(lp380
VTail3
p381
aF0.44142926104876257
aa(lp382
Vthigh_r
p383
aF0.024747866431025056
aa(lp384
Vcalf_r
p385
aF0.03082642437615429
aaa(lp386
I36
a(lp387
VTail1
p388
aF0.082387676055800149
aa(lp389
VTail2
p390
aF0.41739926481932987
aa(lp391
VTail3
p392
aF0.41739926481932987
aa(lp393
Vthigh_r
p394
aF0.037255425567632443
aa(lp395
Vcalf_r
p396
aF0.045558368737907654
aaa.