(lp1
(lp2
I0
a(lp3
Vroot
p4
aF0.0073495148637269898
aa(lp5
VTail1
p6
aF0.032484988415602267
aa(lp7
VTail2
p8
aF0.47664415916781055
aa(lp9
VTail3
p10
aF0.47664415916781055
aa(lp11
Vcalf_l
p12
aF0.0068771783850496955
aaa(lp13
I1
a(lp14
Vroot
p15
aF0.0068092142005829297
aa(lp16
VTail1
p17
aF0.031907932474358441
aa(lp18
VTail2
p19
aF0.47757302281661984
aa(lp20
VTail3
p21
aF0.47757302281661984
aa(lp22
Vcalf_l
p23
aF0.0061368076918189634
aaa(lp24
I2
a(lp25
Vroot
p26
aF0.0064345451256694738
aa(lp27
VTail1
p28
aF0.03187527517355343
aa(lp29
VTail2
p30
aF0.47806867713453649
aa(lp31
VTail3
p32
aF0.47806867713453638
aa(lp33
Vcalf_l
p34
aF0.0055528254317042608
aaa(lp35
I3
a(lp36
Vroot
p37
aF0.0060528953274512033
aa(lp38
VTail1
p39
aF0.031161739659336291
aa(lp40
VTail2
p41
aF0.4788990730005166
aa(lp42
VTail3
p43
aF0.4788990730005166
aa(lp44
Vcalf_l
p45
aF0.0049872190121793844
aaa(lp46
I4
a(lp47
Vroot
p48
aF0.0059494721987838122
aa(lp49
VTail1
p50
aF0.031107215076763707
aa(lp51
VTail2
p52
aF0.47910875460148977
aa(lp53
VTail3
p54
aF0.47910875460148977
aa(lp55
Vcalf_l
p56
aF0.0047258035214729904
aaa(lp57
I5
a(lp58
Vroot
p59
aF0.0072353579779840744
aa(lp60
VTail1
p61
aF0.033820722812400415
aa(lp62
VTail2
p63
aF0.47586368721239553
aa(lp64
VTail3
p65
aF0.47586368721239553
aa(lp66
Vcalf_l
p67
aF0.0072165447848244945
aaa(lp68
I6
a(lp69
Vroot
p70
aF0.0065004524991478354
aa(lp71
VTail1
p72
aF0.034148031672733711
aa(lp73
VTail2
p74
aF0.47665864873980429
aa(lp75
VTail3
p76
aF0.47665864873980429
aa(lp77
Vcalf_l
p78
aF0.0060342183485098365
aaa(lp79
I7
a(lp80
Vroot
p81
aF0.0059286211204125534
aa(lp82
VTail1
p83
aF0.034551352082062253
aa(lp84
VTail2
p85
aF0.47720399404686836
aa(lp86
VTail3
p87
aF0.47720399404686836
aa(lp88
Vcalf_l
p89
aF0.0051120387037884851
aaa(lp90
I8
a(lp91
Vroot
p92
aF0.004995444111786344
aa(lp93
Vpelvis
p94
aF0.0040049700209672193
aa(lp95
VTail1
p96
aF0.031288274064050901
aa(lp97
VTail2
p98
aF0.47985565590159784
aa(lp99
VTail3
p100
aF0.47985565590159773
aaa(lp101
I9
a(lp102
Vroot
p103
aF0.0045800331167636594
aa(lp104
Vpelvis
p105
aF0.0037553086325101165
aa(lp106
VTail1
p107
aF0.029974016075894446
aa(lp108
VTail2
p109
aF0.4808453210874159
aa(lp110
VTail3
p111
aF0.4808453210874159
aaa(lp112
I10
a(lp113
Vroot
p114
aF0.0071781050564335173
aa(lp115
VTail1
p116
aF0.038306495985252501
aa(lp117
VTail2
p118
aF0.47355647594948014
aa(lp119
VTail3
p120
aF0.47355647594948036
aa(lp121
Vcalf_l
p122
aF0.007402447059353395
aaa(lp123
I11
a(lp124
Vroot
p125
aF0.0061792022727460141
aa(lp126
VTail1
p127
aF0.039460285605148887
aa(lp128
VTail2
p129
aF0.47432820256451258
aa(lp130
VTail3
p131
aF0.47432820256451247
aa(lp132
Vcalf_l
p133
aF0.0057041069930801411
aaa(lp134
I12
a(lp135
Vroot
p136
aF0.0050875913085753639
aa(lp137
Vpelvis
p138
aF0.0042005928059346068
aa(lp139
VTail1
p140
aF0.0385603860975679
aa(lp141
VTail2
p142
aF0.47607571489396106
aa(lp143
VTail3
p144
aF0.47607571489396106
aaa(lp145
I13
a(lp146
Vroot
p147
aF0.0037042136129601644
aa(lp148
Vpelvis
p149
aF0.0031539825248360614
aa(lp150
VTail1
p151
aF0.032212869970384188
aa(lp152
VTail2
p153
aF0.48046446694590977
aa(lp154
VTail3
p155
aF0.48046446694590977
aaa(lp156
I14
a(lp157
Vroot
p158
aF0.0031155018542232595
aa(lp159
Vpelvis
p160
aF0.002720168833045052
aa(lp161
VTail1
p162
aF0.029289984560454438
aa(lp163
VTail2
p164
aF0.48243717237613865
aa(lp165
VTail3
p166
aF0.48243717237613865
aaa(lp167
I15
a(lp168
VTail1
p169
aF0.084579181458930411
aa(lp170
VTail2
p171
aF0.45079860414156897
aa(lp172
VTail3
p173
aF0.43961840538910241
aa(lp174
Vthigh_l
p175
aF0.012792962973622646
aa(lp176
Vcalf_l
p177
aF0.012210846036775452
aaa(lp178
I16
a(lp179
Vroot
p180
aF0.0099739953713022054
aa(lp181
VTail1
p182
aF0.093565762426242233
aa(lp183
VTail2
p184
aF0.46892241372874555
aa(lp185
VTail3
p186
aF0.41800433159281358
aa(lp187
Vthigh_l
p188
aF0.0095334968808964572
aaa(lp189
I17
a(lp190
Vroot
p191
aF0.0071474967751284993
aa(lp192
Vpelvis
p193
aF0.0070255282711093403
aa(lp194
VTail1
p195
aF0.091205618888915568
aa(lp196
VTail2
p197
aF0.50660302264249268
aa(lp198
VTail3
p199
aF0.38801833342235387
aaa(lp200
I18
a(lp201
Vroot
p202
aF0.004677730225727237
aa(lp203
Vpelvis
p204
aF0.0048036681664230998
aa(lp205
VTail1
p206
aF0.078102695527993857
aa(lp207
VTail2
p208
aF0.55874037477585659
aa(lp209
VTail3
p210
aF0.35367553130399931
aaa(lp211
I19
a(lp212
Vroot
p213
aF0.0045146017167960297
aa(lp214
Vpelvis
p215
aF0.0049737968848276764
aa(lp216
VTail1
p217
aF0.087280744581843872
aa(lp218
VTail2
p219
aF0.58168645319083323
aa(lp220
VTail3
p221
aF0.32154440362569908
aaa(lp222
I20
a(lp223
Vpelvis
p224
aF0.027489924906020376
aa(lp225
VTail1
p226
aF0.25039100474431875
aa(lp227
VTail2
p228
aF0.43761160231189489
aa(lp229
VTail3
p230
aF0.25029126740191843
aa(lp231
Vthigh_l
p232
aF0.034216200635847661
aaa(lp233
I21
a(lp234
Vpelvis
p235
aF0.025272933312160212
aa(lp236
VTail1
p237
aF0.28422759466855013
aa(lp238
VTail2
p239
aF0.46906295820045479
aa(lp240
VTail3
p241
aF0.19987179061820667
aa(lp242
Vthigh_l
p243
aF0.021564723200628216
aaa(lp244
I22
a(lp245
Vroot
p246
aF0.013943756677091823
aa(lp247
Vpelvis
p248
aF0.019994675343904502
aa(lp249
VTail1
p250
aF0.31417816135101889
aa(lp251
VTail2
p252
aF0.51006636021252605
aa(lp253
VTail3
p254
aF0.14181704641545878
aaa(lp255
I23
a(lp256
Vroot
p257
aF0.0080350451272852147
aa(lp258
Vpelvis
p259
aF0.012456303229309691
aa(lp260
VTail1
p261
aF0.32390419470054721
aa(lp262
VTail2
p263
aF0.5673794610261742
aa(lp264
VTail3
p265
aF0.088224995916683743
aaa(lp266
I24
a(lp267
Vroot
p268
aF0.007438522525282442
aa(lp269
Vpelvis
p270
aF0.012707545215602901
aa(lp271
VTail1
p272
aF0.35333846712213079
aa(lp273
VTail2
p274
aF0.5560411181953393
aa(lp275
VTail3
p276
aF0.070474346941644575
aaa(lp277
I25
a(lp278
Vpelvis
p279
aF0.072085236926879223
aa(lp280
VTail1
p281
aF0.36489268810795905
aa(lp282
VTail2
p283
aF0.36513845409909307
aa(lp284
VTail3
p285
aF0.082756026096290861
aa(lp286
Vthigh_l
p287
aF0.1151275947697777
aaa(lp288
I26
a(lp289
Vpelvis
p290
aF0.068289305081347645
aa(lp291
VTail1
p292
aF0.411636518202942
aa(lp293
VTail2
p294
aF0.40608342124606622
aa(lp295
VTail3
p296
aF0.058239333658885298
aa(lp297
Vthigh_l
p298
aF0.05575142181075881
aaa(lp299
I27
a(lp300
Vroot
p301
aF0.025800591062158391
aa(lp302
Vpelvis
p303
aF0.060701249900523356
aa(lp304
VTail1
p305
aF0.46016465002082479
aa(lp306
VTail2
p307
aF0.41980402805445444
aa(lp308
VTail3
p309
aF0.033529480962039039
aaa(lp310
I28
a(lp311
Vroot
p312
aF0.017115468360772882
aa(lp313
Vpelvis
p314
aF0.055716917651800299
aa(lp315
VTail1
p316
aF0.51398190247386422
aa(lp317
VTail2
p318
aF0.39394585290494832
aa(lp319
VTail3
p320
aF0.019239858608614414
aaa(lp321
I29
a(lp322
Vroot
p323
aF0.018337975288813212
aa(lp324
Vpelvis
p325
aF0.06906422033697257
aa(lp326
VTail1
p327
aF0.52547353416131071
aa(lp328
VTail2
p329
aF0.36819427773427088
aa(lp330
VTail3
p331
aF0.018929992478632522
aaa(lp332
I30
a(lp333
Vroot
p334
aF0.095655351619359577
aa(lp335
Vpelvis
p336
aF0.12240936530797593
aa(lp337
VTail1
p338
aF0.21536451741758039
aa(lp339
VTail2
p340
aF0.1483695425718361
aa(lp341
Vthigh_l
p342
aF0.41820122308324809
aaa(lp343
I31
a(lp344
Vroot
p345
aF0.088770072667221242
aa(lp346
Vpelvis
p347
aF0.19907812677673012
aa(lp348
VTail1
p349
aF0.35576785913646347
aa(lp350
VTail2
p351
aF0.18184496174381845
aa(lp352
Vthigh_l
p353
aF0.17453897967576668
aaa(lp354
I32
a(lp355
Vroot
p356
aF0.061988976647533729
aa(lp357
Vpelvis
p358
aF0.25930017541402262
aa(lp359
VTail1
p360
aF0.47107930152678051
aa(lp361
VTail2
p362
aF0.15264227632697555
aa(lp363
Vthigh_l
p364
aF0.054989270084687646
aaa(lp365
I33
a(lp366
Vroot
p367
aF0.045278768479663258
aa(lp368
Vpelvis
p369
aF0.29479728908422581
aa(lp370
VTail1
p371
aF0.52356380789549728
aa(lp372
VTail2
p373
aF0.11515130750865904
aa(lp374
Vthigh_l
p375
aF0.021208827031954605
aaa(lp376
I34
a(lp377
Vroot
p378
aF0.045909686693538052
aa(lp379
Vpelvis
p380
aF0.31845166870888453
aa(lp381
VTail1
p382
aF0.5114903070879403
aa(lp383
VTail2
p384
aF0.10950912848308997
aa(lp385
Vthigh_l
p386
aF0.014639209026546947
aaa(lp387
I35
a(lp388
Vroot
p389
aF0.042382146343167476
aa(lp390
Vpelvis
p391
aF0.21754845367576114
aa(lp392
VTail1
p393
aF0.049700235395941726
aa(lp394
VTail2
p395
aF0.015211008102567699
aa(lp396
Vthigh_l
p397
aF0.67515815648256194
aaa(lp398
I36
a(lp399
Vroot
p400
aF0.10290363225087121
aa(lp401
Vpelvis
p402
aF0.28023068052970884
aa(lp403
VTail1
p404
aF0.20625326002670355
aa(lp405
VTail2
p406
aF0.041539612779774394
aa(lp407
Vthigh_l
p408
aF0.36907281441294199
aaa(lp409
I37
a(lp410
Vroot
p411
aF0.10744162754883599
aa(lp412
Vpelvis
p413
aF0.36806918815864453
aa(lp414
VTail1
p415
aF0.36740331037255364
aa(lp416
VTail2
p417
aF0.046303513653825096
aa(lp418
Vthigh_l
p419
aF0.11078236026614072
aaa(lp420
I38
a(lp421
Vroot
p422
aF0.088799901191483954
aa(lp423
Vpelvis
p424
aF0.42001109012445814
aa(lp425
VTail1
p426
aF0.41475214486618911
aa(lp427
VTail2
p428
aF0.037583250442013084
aa(lp429
Vthigh_l
p430
aF0.038853613375855849
aaa(lp431
I39
a(lp432
Vroot
p433
aF0.090729989890881144
aa(lp434
Vpelvis
p435
aF0.42716884285454471
aa(lp436
VTail1
p437
aF0.41835312306595046
aa(lp438
VTail2
p439
aF0.039120450291892227
aa(lp440
Vthigh_l
p441
aF0.024627593896731581
aaa(lp442
I40
a(lp443
Vroot
p444
aF0.047670322514454452
aa(lp445
Vpelvis
p446
aF0.45312008179534302
aa(lp447
VTail1
p448
aF0.035525460239365134
aa(lp449
Vlowerarm_l
p450
aF0.010564053655494354
aa(lp451
Vthigh_l
p452
aF0.45312008179534302
aaa(lp453
I41
a(lp454
Vroot
p455
aF0.1130140983141505
aa(lp456
Vpelvis
p457
aF0.40738040616030119
aa(lp458
VTail1
p459
aF0.096841927313023726
aa(lp460
VTail2
p461
aF0.014518747754681418
aa(lp462
Vthigh_l
p463
aF0.36824482045784307
aaa(lp464
I42
a(lp465
Vroot
p466
aF0.1993499903218714
aa(lp467
Vpelvis
p468
aF0.36776088334216611
aa(lp469
VTail1
p470
aF0.18808617537580735
aa(lp471
VTail2
p472
aF0.020028815750043363
aa(lp473
Vthigh_l
p474
aF0.22477413521011166
aaa(lp475
I43
a(lp476
Vroot
p477
aF0.23095116875538074
aa(lp478
Vpelvis
p479
aF0.43536083535030162
aa(lp480
VTail1
p481
aF0.23261295411278365
aa(lp482
Vthigh_l
p483
aF0.076393848303903347
aa(lp484
Vthigh_r
p485
aF0.024681193477630734
aaa(lp486
I44
a(lp487
Vroot
p488
aF0.23593707542973424
aa(lp489
Vpelvis
p490
aF0.44510653172504
aa(lp491
VTail1
p492
aF0.23996000407721946
aa(lp493
Vthigh_l
p494
aF0.04338327798423889
aa(lp495
Vthigh_r
p496
aF0.035613110783767492
aaa(lp497
I45
a(lp498
Vroot
p499
aF0.054016878945718994
aa(lp500
Vpelvis
p501
aF0.41478334696677988
aa(lp502
Vlowerarm_l
p503
aF0.058130983110740268
aa(lp504
Vlowerarm_twist_01_l
p505
aF0.057801306185969105
aa(lp506
Vthigh_l
p507
aF0.41526748479079184
aaa(lp508
I46
a(lp509
Vroot
p510
aF0.13601953011515694
aa(lp511
Vpelvis
p512
aF0.41607339382157676
aa(lp513
VTail1
p514
aF0.04012894365699312
aa(lp515
Vspine_01
p516
aF0.040039219335477882
aa(lp517
Vthigh_l
p518
aF0.36773891307079526
aaa(lp519
I47
a(lp520
Vroot
p521
aF0.29253508747364076
aa(lp522
Vpelvis
p523
aF0.39375337979350344
aa(lp524
VTail1
p525
aF0.064705548022402332
aa(lp526
Vspine_01
p527
aF0.063923044562019249
aa(lp528
Vthigh_l
p529
aF0.18508294014843416
aaa(lp530
I48
a(lp531
Vroot
p532
aF0.39019594479131237
aa(lp533
Vpelvis
p534
aF0.41769731320504649
aa(lp535
VTail1
p536
aF0.06371637636797102
aa(lp537
Vspine_01
p538
aF0.062129535302129217
aa(lp539
Vthigh_l
p540
aF0.066260830333540938
aaa(lp541
I49
a(lp542
Vroot
p543
aF0.40287642828011988
aa(lp544
Vpelvis
p545
aF0.43165054209082065
aa(lp546
VTail1
p547
aF0.065661614598454127
aa(lp548
Vspine_01
p549
aF0.062061910750333987
aa(lp550
Vthigh_l
p551
aF0.037749504280271365
aaa(lp552
I50
a(lp553
Vpelvis
p554
aF0.22407473407662265
aa(lp555
Vspine_01
p556
aF0.15536869869493811
aa(lp557
Vlowerarm_l
p558
aF0.22910816388429162
aa(lp559
Vlowerarm_twist_01_l
p560
aF0.14846262289456535
aa(lp561
Vthigh_l
p562
aF0.2429857804495823
aaa(lp563
I51
a(lp564
Vroot
p565
aF0.17148647406089257
aa(lp566
Vpelvis
p567
aF0.32470157122332938
aa(lp568
Vspine_01
p569
aF0.23908537270842292
aa(lp570
Vlowerarm_l
p571
aF0.083863608990435171
aa(lp572
Vthigh_l
p573
aF0.18086297301691984
aaa(lp574
I52
a(lp575
Vroot
p576
aF0.17549929660408944
aa(lp577
Vpelvis
p578
aF0.43056419630039738
aa(lp579
Vspine_01
p580
aF0.28130221963360702
aa(lp581
Vspine_02
p582
aF0.033677791656355267
aa(lp583
Vthigh_l
p584
aF0.078956495805550836
aaa(lp585
I53
a(lp586
Vroot
p587
aF0.15531067075174224
aa(lp588
Vpelvis
p589
aF0.51230174473818835
aa(lp590
Vspine_01
p591
aF0.2802831998406482
aa(lp592
Vspine_02
p593
aF0.022109879548794068
aa(lp594
Vthigh_l
p595
aF0.029994505120627166
aaa(lp596
I54
a(lp597
Vroot
p598
aF0.15732465626435926
aa(lp599
Vpelvis
p600
aF0.53014193664960463
aa(lp601
Vspine_01
p602
aF0.27290296082002752
aa(lp603
Vspine_02
p604
aF0.020135027433389283
aa(lp605
Vthigh_l
p606
aF0.019495418832619443
aaa(lp607
I55
a(lp608
Vpelvis
p609
aF0.21294751486396296
aa(lp610
Vspine_01
p611
aF0.21477907506761779
aa(lp612
Vupperarm_l
p613
aF0.19893731073669046
aa(lp614
Vlowerarm_l
p615
aF0.17439878859503827
aa(lp616
Vupperarm_twist_01_l
p617
aF0.19893731073669046
aaa(lp618
I56
a(lp619
Vpelvis
p620
aF0.33539745480583649
aa(lp621
Vspine_01
p622
aF0.33788664083075048
aa(lp623
Vspine_02
p624
aF0.10766453826035953
aa(lp625
Vupperarm_l
p626
aF0.10952568305152681
aa(lp627
Vupperarm_twist_01_l
p628
aF0.10952568305152681
aaa(lp629
I57
a(lp630
Vroot
p631
aF0.049017440934901131
aa(lp632
Vpelvis
p633
aF0.41226693150715005
aa(lp634
Vspine_01
p635
aF0.41472767719561154
aa(lp636
Vspine_02
p637
aF0.086934138152200274
aa(lp638
Vupperarm_l
p639
aF0.03705381221013708
aaa(lp640
I58
a(lp641
Vroot
p642
aF0.034353070507571047
aa(lp643
Vpelvis
p644
aF0.44552178940176951
aa(lp645
Vspine_01
p646
aF0.44658354962052105
aa(lp647
Vspine_02
p648
aF0.060225875661062196
aa(lp649
Vupperarm_l
p650
aF0.013315714809076255
aaa(lp651
I59
a(lp652
Vroot
p653
aF0.0335991559148495
aa(lp654
Vpelvis
p655
aF0.45188259786358592
aa(lp656
Vspine_01
p657
aF0.45190460565162871
aa(lp658
Vspine_02
p659
aF0.053909807470661229
aa(lp660
Vupperarm_l
p661
aF0.0087038330992746608
aaa(lp662
I60
a(lp663
Vpelvis
p664
aF0.1539874465485577
aa(lp665
Vspine_01
p666
aF0.19336124866305479
aa(lp667
Vspine_02
p668
aF0.12379685312909974
aa(lp669
Vupperarm_l
p670
aF0.2644272258296439
aa(lp671
Vupperarm_twist_01_l
p672
aF0.2644272258296439
aaa(lp673
I61
a(lp674
Vpelvis
p675
aF0.15321995318064641
aa(lp676
Vspine_01
p677
aF0.25970185975559495
aa(lp678
Vspine_02
p679
aF0.18539435579057503
aa(lp680
Vupperarm_l
p681
aF0.20084191563659179
aa(lp682
Vupperarm_twist_01_l
p683
aF0.20084191563659179
aaa(lp684
I62
a(lp685
Vpelvis
p686
aF0.20377918889257707
aa(lp687
Vspine_01
p688
aF0.41792669360639984
aa(lp689
Vspine_02
p690
aF0.2455202188256769
aa(lp691
Vupperarm_l
p692
aF0.066386949337673126
aa(lp693
Vupperarm_twist_01_l
p694
aF0.066386949337673126
aaa(lp695
I63
a(lp696
Vpelvis
p697
aF0.20940295001467815
aa(lp698
Vspine_01
p699
aF0.51269178666565229
aa(lp700
Vspine_02
p701
aF0.23350004228249299
aa(lp702
Vspine_03
p703
aF0.022410487754822867
aa(lp704
Vupperarm_l
p705
aF0.021994733282353671
aaa(lp706
I64
a(lp707
Vpelvis
p708
aF0.21756882820372975
aa(lp709
Vspine_01
p710
aF0.53472506225528682
aa(lp711
Vspine_02
p712
aF0.21609231815815036
aa(lp713
Vspine_03
p714
aF0.019096296588476086
aa(lp715
Vupperarm_l
p716
aF0.012517494794356892
aaa(lp717
I65
a(lp718
Vspine_01
p719
aF0.0407410314157092
aa(lp720
Vspine_02
p721
aF0.0409219693417536
aa(lp722
Vclavicle_l
p723
aF0.14137459103711514
aa(lp724
Vupperarm_l
p725
aF0.53152781963812012
aa(lp726
Vupperarm_twist_01_l
p727
aF0.24543458856730191
aaa(lp728
I66
a(lp729
Vspine_01
p730
aF0.15686484050923946
aa(lp731
Vspine_02
p732
aF0.15691381867669427
aa(lp733
Vclavicle_l
p734
aF0.15804975785372669
aa(lp735
Vupperarm_l
p736
aF0.30938114641019432
aa(lp737
Vupperarm_twist_01_l
p738
aF0.21879043655014532
aaa(lp739
I67
a(lp740
Vspine_01
p741
aF0.37029216629374684
aa(lp742
Vspine_02
p743
aF0.37029216629374662
aa(lp744
Vspine_03
p745
aF0.074234797792222917
aa(lp746
Vupperarm_l
p747
aF0.10286096404607052
aa(lp748
Vupperarm_twist_01_l
p749
aF0.082319905574213217
aaa(lp750
I68
a(lp751
Vpelvis
p752
aF0.032483681604967937
aa(lp753
Vspine_01
p754
aF0.45151750384002387
aa(lp755
Vspine_02
p756
aF0.4505559709348968
aa(lp757
Vspine_03
p758
aF0.042171793261583421
aa(lp759
VWingL
p760
aF0.023271050358528021
aaa(lp761
I69
a(lp762
Vpelvis
p763
aF0.025952000445866704
aa(lp764
Vspine_01
p765
aF0.4682053986438538
aa(lp766
Vspine_02
p767
aF0.46345491262236538
aa(lp768
Vspine_03
p769
aF0.02965116800716136
aa(lp770
VWingL
p771
aF0.012736520280752809
aaa(lp772
I70
a(lp773
Vspine_03
p774
aF0.010537554023042529
aa(lp775
VWingL
p776
aF0.010211533177226895
aa(lp777
Vclavicle_l
p778
aF0.23412655772728883
aa(lp779
Vupperarm_l
p780
aF0.71250412472667013
aa(lp781
Vupperarm_twist_01_l
p782
aF0.032620230345771661
aaa(lp783
I71
a(lp784
Vspine_02
p785
aF0.079992020920746656
aa(lp786
Vspine_03
p787
aF0.076604316271402448
aa(lp788
Vclavicle_l
p789
aF0.34008033965914547
aa(lp790
Vupperarm_l
p791
aF0.4261179159369482
aa(lp792
Vupperarm_twist_01_l
p793
aF0.077205407211757074
aaa(lp794
I72
a(lp795
Vspine_01
p796
aF0.17620074674877584
aa(lp797
Vspine_02
p798
aF0.31647151503462623
aa(lp799
Vspine_03
p800
aF0.19707438581567624
aa(lp801
VWingL
p802
aF0.16708227013658736
aa(lp803
Vupperarm_l
p804
aF0.14317108226433425
aaa(lp805
I73
a(lp806
Vspine_01
p807
aF0.20995634851153958
aa(lp808
Vspine_02
p809
aF0.51350665472649615
aa(lp810
Vspine_03
p811
aF0.1595361852604846
aa(lp812
VWingL
p813
aF0.083954624567255373
aa(lp814
VWingR
p815
aF0.033046186934224279
aaa(lp816
I74
a(lp817
Vspine_01
p818
aF0.21869964557468277
aa(lp819
Vspine_02
p820
aF0.60419845026751007
aa(lp821
Vspine_03
p822
aF0.11482020311762288
aa(lp823
VWingL
p824
aF0.033392558558339662
aa(lp825
VWingR
p826
aF0.028889142481844533
aaa(lp827
I75
a(lp828
Vspine_02
p829
aF0.0016546623202455806
aa(lp830
Vspine_03
p831
aF0.0065928727539908138
aa(lp832
VWingL
p833
aF0.0045785784263084797
aa(lp834
Vclavicle_l
p835
aF0.50720297911856116
aa(lp836
Vupperarm_l
p837
aF0.47997090738089404
aaa(lp838
I76
a(lp839
Vspine_02
p840
aF0.040833958358320224
aa(lp841
Vspine_03
p842
aF0.15868804732563099
aa(lp843
VWingL
p844
aF0.15868804732563099
aa(lp845
Vclavicle_l
p846
aF0.33448322437345435
aa(lp847
Vupperarm_l
p848
aF0.3073067226169634
aaa(lp849
I77
a(lp850
Vspine_02
p851
aF0.069388901914145373
aa(lp852
Vspine_03
p853
aF0.44210581962542
aa(lp854
VWingL
p855
aF0.43281164559300322
aa(lp856
Vclavicle_l
p857
aF0.030447680267349193
aa(lp858
Vupperarm_l
p859
aF0.025245952600082094
aaa(lp860
I78
a(lp861
Vspine_02
p862
aF0.10346094517960513
aa(lp863
Vspine_03
p864
aF0.58686672589456801
aa(lp865
VWingL
p866
aF0.28959289688401724
aa(lp867
VWingR
p868
aF0.015981021965025499
aa(lp869
Vclavicle_l
p870
aF0.0040984100767841314
aaa(lp871
I79
a(lp872
Vspine_01
p873
aF0.005962746693723436
aa(lp874
Vspine_02
p875
aF0.36472520290773836
aa(lp876
Vspine_03
p877
aF0.48957234529264038
aa(lp878
VWingL
p879
aF0.082148944700466048
aa(lp880
VWingR
p881
aF0.0575907604054317
aaa(lp882
I80
a(lp883
Vspine_02
p884
aF0.0039082731466084817
aa(lp885
Vspine_03
p886
aF0.24903339437809677
aa(lp887
VWingL
p888
aF0.02371450655759557
aa(lp889
Vclavicle_l
p890
aF0.70041162404936474
aa(lp891
Vupperarm_l
p892
aF0.022932201868334511
aaa(lp893
I81
a(lp894
Vspine_02
p895
aF0.019335233848868396
aa(lp896
Vspine_03
p897
aF0.45128985078919354
aa(lp898
VWingL
p899
aF0.32011266724206505
aa(lp900
Vclavicle_l
p901
aF0.18373117125356389
aa(lp902
Vupperarm_l
p903
aF0.025531076866309156
aaa(lp904
I82
a(lp905
Vspine_02
p906
aF0.0019336563695443836
aa(lp907
Vspine_03
p908
aF0.49772377510384253
aa(lp909
VWingL
p910
aF0.49772377510384253
aa(lp911
Vclavicle_l
p912
aF0.0017462956334022416
aaa(lp913
I83
a(lp914
Vspine_02
p915
aF0.0031863154428210835
aa(lp916
Vspine_03
p917
aF0.56542852292531776
aa(lp918
VWingL
p919
aF0.42844863871326844
aa(lp920
VWingR
p921
aF0.0024379603690044354
aaa(lp922
I84
a(lp923
Vspine_02
p924
aF0.077948211607663409
aa(lp925
Vspine_03
p926
aF0.51447996975067123
aa(lp927
VWingL
p928
aF0.21219668741507736
aa(lp929
VWingR
p930
aF0.19193028728470349
aa(lp931
Vclavicle_l
p932
aF0.0034448439418845321
aaa(lp933
I85
a(lp934
Vspine_03
p935
aF0.77319782069091336
aa(lp936
VWingL
p937
aF0.0040033437173776229
aa(lp938
Vclavicle_l
p939
aF0.22105219005341689
aaa(lp940
I86
a(lp941
Vspine_02
p942
aF0.0057149004074195826
aa(lp943
Vspine_03
p944
aF0.80763216546124428
aa(lp945
VWingL
p946
aF0.037707843586424775
aa(lp947
VWingR
p948
aF0.0049680819221937823
aa(lp949
Vclavicle_l
p950
aF0.14397700862271764
aaa(lp951
I87
a(lp952
Vspine_02
p953
aF0.023678486472472553
aa(lp954
Vspine_03
p955
aF0.64767451138566068
aa(lp956
VWingL
p957
aF0.20692295944292893
aa(lp958
VWingR
p959
aF0.026326564040480289
aa(lp960
Vclavicle_l
p961
aF0.095397478658457588
aaa(lp962
I88
a(lp963
Vspine_02
p964
aF0.056745048489815694
aa(lp965
Vspine_03
p966
aF0.45242190080750627
aa(lp967
VWingL
p968
aF0.32307876500909083
aa(lp969
VWingR
p970
aF0.10943759238503505
aa(lp971
Vclavicle_l
p972
aF0.058316693308552214
aaa(lp973
I89
a(lp974
Vspine_02
p975
aF0.080316181841034978
aa(lp976
Vspine_03
p977
aF0.3409850313074938
aa(lp978
VWingL
p979
aF0.20636507785827246
aa(lp980
VWingR
p981
aF0.33783892122240322
aa(lp982
Vclavicle_l
p983
aF0.034494787770795628
aaa(lp984
I90
a(lp985
Vspine_03
p986
aF0.57763626131512968
aa(lp987
VWingL
p988
aF0.023191517323789577
aa(lp989
Vclavicle_l
p990
aF0.3613529073758539
aa(lp991
Vclavicle_r
p992
aF0.019825274808412653
aa(lp993
Vneck_01
p994
aF0.017994039176814147
aaa(lp995
I91
a(lp996
Vspine_03
p997
aF0.61308788160258088
aa(lp998
VWingL
p999
aF0.039264753747518928
aa(lp1000
VWingR
p1001
aF0.023207108585774742
aa(lp1002
Vclavicle_l
p1003
aF0.29538910137378899
aa(lp1004
Vclavicle_r
p1005
aF0.029051154690336513
aaa(lp1006
I92
a(lp1007
Vspine_03
p1008
aF0.59535369245481606
aa(lp1009
VWingL
p1010
aF0.068342147945703674
aa(lp1011
VWingR
p1012
aF0.048783354519130608
aa(lp1013
Vclavicle_l
p1014
aF0.2365084823753297
aa(lp1015
Vclavicle_r
p1016
aF0.051012322705019895
aaa(lp1017
I93
a(lp1018
Vspine_03
p1019
aF0.52407510216912878
aa(lp1020
VWingL
p1021
aF0.095163859694786967
aa(lp1022
VWingR
p1023
aF0.099090853330964929
aa(lp1024
Vclavicle_l
p1025
aF0.18525031294517488
aa(lp1026
Vclavicle_r
p1027
aF0.096419871859944328
aaa(lp1028
I94
a(lp1029
Vspine_03
p1030
aF0.45367455822946995
aa(lp1031
VWingL
p1032
aF0.096619118190962056
aa(lp1033
VWingR
p1034
aF0.15187699932187465
aa(lp1035
Vclavicle_l
p1036
aF0.13996307773022448
aa(lp1037
Vclavicle_r
p1038
aF0.15786624652746881
aaa(lp1039
I95
a(lp1040
Vroot
p1041
aF0.0067387967735599678
aa(lp1042
VTail1
p1043
aF0.029375235574849591
aa(lp1044
VTail2
p1045
aF0.47906052147164679
aa(lp1046
VTail3
p1047
aF0.47906052147164679
aa(lp1048
Vcalf_l
p1049
aF0.0057649247082968529
aaa(lp1050
I96
a(lp1051
Vspine_03
p1052
aF0.46095579812047649
aa(lp1053
VWingR
p1054
aF0.050354878559105157
aa(lp1055
Vclavicle_l
p1056
aF0.21524234543907148
aa(lp1057
Vclavicle_r
p1058
aF0.19552585510024545
aa(lp1059
Vneck_01
p1060
aF0.077921122781101415
aaa(lp1061
I97
a(lp1062
Vroot
p1063
aF0.0087281330900871625
aa(lp1064
VTail1
p1065
aF0.038476012240933534
aa(lp1066
VTail2
p1067
aF0.47225177477356672
aa(lp1068
VTail3
p1069
aF0.47225177477356661
aa(lp1070
Vcalf_l
p1071
aF0.0082923051218459932
aaa(lp1072
I98
a(lp1073
Vroot
p1074
aF0.0086053350854545969
aa(lp1075
VTail1
p1076
aF0.040190486727619622
aa(lp1077
VTail2
p1078
aF0.47165252272338293
aa(lp1079
VTail3
p1080
aF0.47165252272338315
aa(lp1081
Vcalf_l
p1082
aF0.0078991327401595392
aaa(lp1083
I99
a(lp1084
Vroot
p1085
aF0.0083274683007531162
aa(lp1086
VTail1
p1087
aF0.043446966811624528
aa(lp1088
VTail2
p1089
aF0.47015851709273532
aa(lp1090
VTail3
p1091
aF0.47015851709273521
aa(lp1092
Vcalf_l
p1093
aF0.0079085307021518839
aaa(lp1094
I100
a(lp1095
Vroot
p1096
aF0.0086968926616676212
aa(lp1097
VTail1
p1098
aF0.040457564980245338
aa(lp1099
VTail2
p1100
aF0.4709954346361695
aa(lp1101
VTail3
p1102
aF0.4709954346361695
aa(lp1103
Vcalf_l
p1104
aF0.0088546730857480115
aaa(lp1105
I101
a(lp1106
Vroot
p1107
aF0.0081403381866378723
aa(lp1108
VTail1
p1109
aF0.04033184159896281
aa(lp1110
VTail2
p1111
aF0.4722053282800398
aa(lp1112
VTail3
p1113
aF0.4722053282800398
aa(lp1114
Vcalf_l
p1115
aF0.0071171636543197938
aaa(lp1116
I102
a(lp1117
Vroot
p1118
aF0.0076371691660883723
aa(lp1119
VTail1
p1120
aF0.044421105160891462
aa(lp1121
VTail2
p1122
aF0.47062549576644747
aa(lp1123
VTail3
p1124
aF0.47062549576644747
aa(lp1125
Vcalf_l
p1126
aF0.0066907341401252172
aaa(lp1127
I103
a(lp1128
Vroot
p1129
aF0.0076562180363978034
aa(lp1130
VTail1
p1131
aF0.039412974831538022
aa(lp1132
VTail2
p1133
aF0.47328515901681928
aa(lp1134
VTail3
p1135
aF0.47328515901681928
aa(lp1136
Vcalf_l
p1137
aF0.0063604890984256413
aaa(lp1138
I104
a(lp1139
Vroot
p1140
aF0.0064792888224438506
aa(lp1141
Vpelvis
p1142
aF0.0056014343954581044
aa(lp1143
VTail1
p1144
aF0.040714937418113231
aa(lp1145
VTail2
p1146
aF0.47360216968199237
aa(lp1147
VTail3
p1148
aF0.47360216968199237
aaa(lp1149
I105
a(lp1150
Vroot
p1151
aF0.0071003773882186436
aa(lp1152
Vpelvis
p1153
aF0.0056770194218089369
aa(lp1154
VTail1
p1155
aF0.036999394754189459
aa(lp1156
VTail2
p1157
aF0.47511160421789156
aa(lp1158
VTail3
p1159
aF0.47511160421789145
aaa(lp1160
I106
a(lp1161
Vroot
p1162
aF0.0056475832844315168
aa(lp1163
Vpelvis
p1164
aF0.0049185275661170116
aa(lp1165
VTail1
p1166
aF0.037182244016182996
aa(lp1167
VTail2
p1168
aF0.4761258225666341
aa(lp1169
VTail3
p1170
aF0.47612582256663433
aaa(lp1171
I107
a(lp1172
Vroot
p1173
aF0.0082268386616987446
aa(lp1174
VTail1
p1175
aF0.050699178248813384
aa(lp1176
VTail2
p1177
aF0.4665852217358345
aa(lp1178
VTail3
p1179
aF0.46658522173583439
aa(lp1180
Vcalf_l
p1181
aF0.007903539617818988
aaa(lp1182
I108
a(lp1183
Vroot
p1184
aF0.0089519880365473755
aa(lp1185
VTail1
p1186
aF0.046678225296510549
aa(lp1187
VTail2
p1188
aF0.46740872159229491
aa(lp1189
VTail3
p1190
aF0.4674087215922948
aa(lp1191
Vcalf_l
p1192
aF0.0095523434823525048
aaa(lp1193
I109
a(lp1194
Vroot
p1195
aF0.0067483566822206919
aa(lp1196
Vpelvis
p1197
aF0.0059633025516530403
aa(lp1198
VTail1
p1199
aF0.050106540192674145
aa(lp1200
VTail2
p1201
aF0.46859090028672612
aa(lp1202
VTail3
p1203
aF0.46859090028672612
aaa(lp1204
I110
a(lp1205
Vroot
p1206
aF0.0050346701456759303
aa(lp1207
Vpelvis
p1208
aF0.004633004338582403
aa(lp1209
VTail1
p1210
aF0.043588339226430975
aa(lp1211
VTail2
p1212
aF0.47337199314465533
aa(lp1213
VTail3
p1214
aF0.47337199314465533
aaa(lp1215
I111
a(lp1216
Vroot
p1217
aF0.004118821118434088
aa(lp1218
Vpelvis
p1219
aF0.0038530814486111378
aa(lp1220
VTail1
p1221
aF0.038995377094820434
aa(lp1222
VTail2
p1223
aF0.47651636016906718
aa(lp1224
VTail3
p1225
aF0.47651636016906718
aaa(lp1226
I112
a(lp1227
Vroot
p1228
aF0.012673189147265515
aa(lp1229
VTail1
p1230
aF0.10703587769718075
aa(lp1231
VTail2
p1232
aF0.45047886867340331
aa(lp1233
VTail3
p1234
aF0.41690372752557758
aa(lp1235
Vthigh_l
p1236
aF0.012908336956572682
aaa(lp1237
I113
a(lp1238
VTail1
p1239
aF0.096044293626471197
aa(lp1240
VTail2
p1241
aF0.43993496234932872
aa(lp1242
VTail3
p1243
aF0.43249328060514369
aa(lp1244
Vthigh_l
p1245
aF0.016136598880440535
aa(lp1246
Vcalf_l
p1247
aF0.015390864538616022
aaa(lp1248
I114
a(lp1249
Vroot
p1250
aF0.0091048508149517236
aa(lp1251
Vpelvis
p1252
aF0.0094464089284063257
aa(lp1253
VTail1
p1254
aF0.10712360354249885
aa(lp1255
VTail2
p1256
aF0.4837473873775589
aa(lp1257
VTail3
p1258
aF0.39057774933658418
aaa(lp1259
I115
a(lp1260
Vroot
p1261
aF0.0063485500200250594
aa(lp1262
Vpelvis
p1263
aF0.0071112571206016365
aa(lp1264
VTail1
p1265
aF0.10154171293259227
aa(lp1266
VTail2
p1267
aF0.53023167418602513
aa(lp1268
VTail3
p1269
aF0.35476680574075597
aaa(lp1270
I116
a(lp1271
Vroot
p1272
aF0.0057547054566180157
aa(lp1273
Vpelvis
p1274
aF0.0068105638286526408
aa(lp1275
VTail1
p1276
aF0.10826084169690257
aa(lp1277
VTail2
p1278
aF0.55689801411807349
aa(lp1279
VTail3
p1280
aF0.32227587489975329
aaa(lp1281
I117
a(lp1282
Vpelvis
p1283
aF0.029955492297681647
aa(lp1284
VTail1
p1285
aF0.27554359329991301
aa(lp1286
VTail2
p1287
aF0.44192740192090579
aa(lp1288
VTail3
p1289
aF0.22480988526765858
aa(lp1290
Vthigh_l
p1291
aF0.027763627213841034
aaa(lp1292
I118
a(lp1293
Vpelvis
p1294
aF0.032052950036749177
aa(lp1295
VTail1
p1296
aF0.25028345020824483
aa(lp1297
VTail2
p1298
aF0.41645910781873957
aa(lp1299
VTail3
p1300
aF0.26045413568504094
aa(lp1301
Vthigh_l
p1302
aF0.040750356251225445
aaa(lp1303
I119
a(lp1304
Vroot
p1305
aF0.01667204855784394
aa(lp1306
Vpelvis
p1307
aF0.024312330290034413
aa(lp1308
VTail1
p1309
aF0.3100192017486183
aa(lp1310
VTail2
p1311
aF0.48453378766986616
aa(lp1312
VTail3
p1313
aF0.16446263173363723
aaa(lp1314
I120
a(lp1315
Vroot
p1316
aF0.010870788090676032
aa(lp1317
Vpelvis
p1318
aF0.018540728156090577
aa(lp1319
VTail1
p1320
aF0.34666643755215815
aa(lp1321
VTail2
p1322
aF0.52029043250474583
aa(lp1323
VTail3
p1324
aF0.10363161369632942
aaa(lp1325
I121
a(lp1326
Vroot
p1327
aF0.010053374747791076
aa(lp1328
Vpelvis
p1329
aF0.01901989695311283
aa(lp1330
VTail1
p1331
aF0.37712615081602063
aa(lp1332
VTail2
p1333
aF0.51236322954189895
aa(lp1334
VTail3
p1335
aF0.081437347941176463
aaa(lp1336
I122
a(lp1337
Vpelvis
p1338
aF0.081248547250191469
aa(lp1339
VTail1
p1340
aF0.38772013870328609
aa(lp1341
VTail2
p1342
aF0.38455054045466414
aa(lp1343
VTail3
p1344
aF0.073686260757392222
aa(lp1345
Vthigh_l
p1346
aF0.072794512834466044
aaa(lp1347
I123
a(lp1348
Vpelvis
p1349
aF0.079353832749164424
aa(lp1350
VTail1
p1351
aF0.34766570961831667
aa(lp1352
VTail2
p1353
aF0.34820081927083685
aa(lp1354
VTail3
p1355
aF0.09367681472330916
aa(lp1356
Vthigh_l
p1357
aF0.13110282363837295
aaa(lp1358
I124
a(lp1359
Vroot
p1360
aF0.032761919446408688
aa(lp1361
Vpelvis
p1362
aF0.078851585844842823
aa(lp1363
VTail1
p1364
aF0.43598950074036846
aa(lp1365
VTail2
p1366
aF0.40600725573079044
aa(lp1367
VTail3
p1368
aF0.046389738237589642
aaa(lp1369
I125
a(lp1370
Vroot
p1371
aF0.023751766822055424
aa(lp1372
Vpelvis
p1373
aF0.080026327328005242
aa(lp1374
VTail1
p1375
aF0.48271494534069737
aa(lp1376
VTail2
p1377
aF0.38520509775835293
aa(lp1378
VTail3
p1379
aF0.02830186275088914
aaa(lp1380
I126
a(lp1381
Vroot
p1382
aF0.023697203429658406
aa(lp1383
Vpelvis
p1384
aF0.091507261165821779
aa(lp1385
VTail1
p1386
aF0.49868923511660485
aa(lp1387
VTail2
p1388
aF0.36100677198476638
aa(lp1389
VTail3
p1390
aF0.025099528303148533
aaa(lp1391
I127
a(lp1392
Vroot
p1393
aF0.091262778566713651
aa(lp1394
Vpelvis
p1395
aF0.19769685622109684
aa(lp1396
VTail1
p1397
aF0.32487701418715165
aa(lp1398
VTail2
p1399
aF0.1885797267778267
aa(lp1400
Vthigh_l
p1401
aF0.19758362424721113
aaa(lp1402
I128
a(lp1403
Vroot
p1404
aF0.094603683188236129
aa(lp1405
Vpelvis
p1406
aF0.12434485183714797
aa(lp1407
VTail1
p1408
aF0.20934205828372568
aa(lp1409
VTail2
p1410
aF0.15200326383300308
aa(lp1411
Vthigh_l
p1412
aF0.41970614285788715
aaa(lp1413
I129
a(lp1414
Vroot
p1415
aF0.069625471566494762
aa(lp1416
Vpelvis
p1417
aF0.26290288308192405
aa(lp1418
VTail1
p1419
aF0.42711475883487104
aa(lp1420
VTail2
p1421
aF0.17140618980907696
aa(lp1422
Vthigh_l
p1423
aF0.068950696707633236
aaa(lp1424
I130
a(lp1425
Vroot
p1426
aF0.055334074343018839
aa(lp1427
Vpelvis
p1428
aF0.3031635520097668
aa(lp1429
VTail1
p1430
aF0.47222391942611008
aa(lp1431
VTail2
p1432
aF0.14029434758563117
aa(lp1433
Vthigh_l
p1434
aF0.028984106635473097
aaa(lp1435
I131
a(lp1436
Vroot
p1437
aF0.053598277210477233
aa(lp1438
Vpelvis
p1439
aF0.32359350428854339
aa(lp1440
VTail1
p1441
aF0.47707023236654855
aa(lp1442
VTail2
p1443
aF0.12707425566002639
aa(lp1444
Vthigh_l
p1445
aF0.018663730474404398
aaa(lp1446
I132
a(lp1447
Vroot
p1448
aF0.099906295635011536
aa(lp1449
Vpelvis
p1450
aF0.29198914416644201
aa(lp1451
VTail1
p1452
aF0.19266364119528961
aa(lp1453
VTail2
p1454
aF0.048551221268319796
aa(lp1455
Vthigh_l
p1456
aF0.36688969773493701
aaa(lp1457
I133
a(lp1458
Vroot
p1459
aF0.046665258164695016
aa(lp1460
Vpelvis
p1461
aF0.2410295210851737
aa(lp1462
VTail1
p1463
aF0.056472252897495884
aa(lp1464
VTail2
p1465
aF0.01923165015605623
aa(lp1466
Vthigh_l
p1467
aF0.63660131769657924
aaa(lp1468
I134
a(lp1469
Vroot
p1470
aF0.11485155269650123
aa(lp1471
Vpelvis
p1472
aF0.3471861156135761
aa(lp1473
VTail1
p1474
aF0.34692250060339314
aa(lp1475
VTail2
p1476
aF0.059208175536914605
aa(lp1477
Vthigh_l
p1478
aF0.13183165554961504
aaa(lp1479
I135
a(lp1480
Vroot
p1481
aF0.10241299415192741
aa(lp1482
Vpelvis
p1483
aF0.39829525166106816
aa(lp1484
VTail1
p1485
aF0.39535373186707828
aa(lp1486
VTail2
p1487
aF0.052886280493609841
aa(lp1488
Vthigh_l
p1489
aF0.051051741826316326
aaa(lp1490
I136
a(lp1491
Vroot
p1492
aF0.10173330025897677
aa(lp1493
Vpelvis
p1494
aF0.41144236974594706
aa(lp1495
VTail1
p1496
aF0.40537207747419218
aa(lp1497
VTail2
p1498
aF0.050635394057158285
aa(lp1499
Vthigh_l
p1500
aF0.030816858463725727
aaa(lp1501
I137
a(lp1502
Vroot
p1503
aF0.1142588157161734
aa(lp1504
Vpelvis
p1505
aF0.39951133324244764
aa(lp1506
VTail1
p1507
aF0.099861077977037055
aa(lp1508
VTail2
p1509
aF0.016181578271323237
aa(lp1510
Vthigh_l
p1511
aF0.37018719479301859
aaa(lp1512
I138
a(lp1513
Vroot
p1514
aF0.049944014186256463
aa(lp1515
Vpelvis
p1516
aF0.44994439265704389
aa(lp1517
VTail1
p1518
aF0.037963519275604672
aa(lp1519
Vlowerarm_l
p1520
aF0.012203681224050793
aa(lp1521
Vthigh_l
p1522
aF0.44994439265704411
aaa(lp1523
I139
a(lp1524
Vroot
p1525
aF0.19625605141027327
aa(lp1526
Vpelvis
p1527
aF0.34465671929791175
aa(lp1528
VTail1
p1529
aF0.19659158401439122
aa(lp1530
VTail2
p1531
aF0.026122091436954875
aa(lp1532
Vthigh_l
p1533
aF0.23637355384046888
aaa(lp1534
I140
a(lp1535
Vroot
p1536
aF0.2327412674805539
aa(lp1537
Vpelvis
p1538
aF0.40172911346515794
aa(lp1539
VTail1
p1540
aF0.24710988815927579
aa(lp1541
Vthigh_l
p1542
aF0.088850982854021973
aa(lp1543
Vthigh_r
p1544
aF0.029568748040990436
aaa(lp1545
I141
a(lp1546
Vroot
p1547
aF0.23881364798253571
aa(lp1548
Vpelvis
p1549
aF0.41867584591924989
aa(lp1550
VTail1
p1551
aF0.25190570181775207
aa(lp1552
Vthigh_l
p1553
aF0.050323254205061931
aa(lp1554
Vthigh_r
p1555
aF0.040281550075400414
aaa(lp1556
I142
a(lp1557
Vroot
p1558
aF0.13902140031063673
aa(lp1559
Vpelvis
p1560
aF0.39623731530173967
aa(lp1561
VTail1
p1562
aF0.047041739783704892
aa(lp1563
Vspine_01
p1564
aF0.047534877183135406
aa(lp1565
Vthigh_l
p1566
aF0.37016466742078341
aaa(lp1567
I143
a(lp1568
Vroot
p1569
aF0.056692464969344138
aa(lp1570
Vpelvis
p1571
aF0.3981573518529184
aa(lp1572
Vlowerarm_l
p1573
aF0.073991509534143129
aa(lp1574
Vlowerarm_twist_01_l
p1575
aF0.073001321790675935
aa(lp1576
Vthigh_l
p1577
aF0.3981573518529184
aaa(lp1578
I144
a(lp1579
Vroot
p1580
aF0.28205690525876054
aa(lp1581
Vpelvis
p1582
aF0.36743959892689848
aa(lp1583
VTail1
p1584
aF0.075556739050656213
aa(lp1585
Vspine_01
p1586
aF0.075679528603273205
aa(lp1587
Vthigh_l
p1588
aF0.19926722816041151
aaa(lp1589
I145
a(lp1590
Vroot
p1591
aF0.37097881510957958
aa(lp1592
Vpelvis
p1593
aF0.39396740769141442
aa(lp1594
VTail1
p1595
aF0.078809300933402104
aa(lp1596
Vspine_01
p1597
aF0.077838220621983589
aa(lp1598
Vthigh_l
p1599
aF0.078406255643620318
aaa(lp1600
I146
a(lp1601
Vroot
p1602
aF0.38825509367931926
aa(lp1603
Vpelvis
p1604
aF0.41289022612045612
aa(lp1605
VTail1
p1606
aF0.078811252710318136
aa(lp1607
Vspine_01
p1608
aF0.075086719750916173
aa(lp1609
Vthigh_l
p1610
aF0.044956707738990284
aaa(lp1611
I147
a(lp1612
Vroot
p1613
aF0.16881664907326904
aa(lp1614
Vpelvis
p1615
aF0.30138465000197778
aa(lp1616
Vspine_01
p1617
aF0.23504703851837289
aa(lp1618
Vlowerarm_l
p1619
aF0.10593888100093062
aa(lp1620
Vthigh_l
p1621
aF0.18881278140544969
aaa(lp1622
I148
a(lp1623
Vpelvis
p1624
aF0.21066181153125024
aa(lp1625
Vspine_01
p1626
aF0.14608133324322892
aa(lp1627
Vlowerarm_l
p1628
aF0.26080811465168663
aa(lp1629
Vlowerarm_twist_01_l
p1630
aF0.15869362204707085
aa(lp1631
Vthigh_l
p1632
aF0.22375511852676336
aaa(lp1633
I149
a(lp1634
Vroot
p1635
aF0.18053515892480856
aa(lp1636
Vpelvis
p1637
aF0.40115440909113043
aa(lp1638
Vspine_01
p1639
aF0.28648973289532426
aa(lp1640
Vspine_02
p1641
aF0.041705340008035711
aa(lp1642
Vthigh_l
p1643
aF0.090115359080701118
aaa(lp1644
I150
a(lp1645
Vroot
p1646
aF0.16758593654579007
aa(lp1647
Vpelvis
p1648
aF0.46987162516169412
aa(lp1649
Vspine_01
p1650
aF0.29566041490272527
aa(lp1651
Vspine_02
p1652
aF0.029703421573367056
aa(lp1653
Vthigh_l
p1654
aF0.037178601816423372
aaa(lp1655
I151
a(lp1656
Vroot
p1657
aF0.16876241857272928
aa(lp1658
Vpelvis
p1659
aF0.4940390159528944
aa(lp1660
Vspine_01
p1661
aF0.28768620449403126
aa(lp1662
Vspine_02
p1663
aF0.025784109544463835
aa(lp1664
Vthigh_l
p1665
aF0.023728251435881226
aaa(lp1666
I152
a(lp1667
Vpelvis
p1668
aF0.31470296334858666
aa(lp1669
Vspine_01
p1670
aF0.31793552049842239
aa(lp1671
Vspine_02
p1672
aF0.11948439660232588
aa(lp1673
Vupperarm_l
p1674
aF0.12393855977533251
aa(lp1675
Vupperarm_twist_01_l
p1676
aF0.12393855977533251
aaa(lp1677
I153
a(lp1678
Vpelvis
p1679
aF0.19580527444250664
aa(lp1680
Vspine_01
p1681
aF0.19789736571834696
aa(lp1682
Vupperarm_l
p1683
aF0.1983635380651369
aa(lp1684
Vlowerarm_l
p1685
aF0.20957028370887265
aa(lp1686
Vupperarm_twist_01_l
p1687
aF0.1983635380651369
aaa(lp1688
I154
a(lp1689
Vroot
p1690
aF0.057900942145956306
aa(lp1691
Vpelvis
p1692
aF0.39329058772202624
aa(lp1693
Vspine_01
p1694
aF0.39679872434349173
aa(lp1695
Vspine_02
p1696
aF0.10586404785912704
aa(lp1697
Vupperarm_l
p1698
aF0.04614569792939871
aaa(lp1699
I155
a(lp1700
Vroot
p1701
aF0.044479385333984094
aa(lp1702
Vpelvis
p1703
aF0.42732361844632721
aa(lp1704
Vspine_01
p1705
aF0.42932144519620596
aa(lp1706
Vspine_02
p1707
aF0.080691190559599335
aa(lp1708
Vupperarm_l
p1709
aF0.018184360463883477
aaa(lp1710
I156
a(lp1711
Vroot
p1712
aF0.041686481071295724
aa(lp1713
Vpelvis
p1714
aF0.4389287788918198
aa(lp1715
Vspine_01
p1716
aF0.4391942661023151
aa(lp1717
Vspine_02
p1718
aF0.068871320993080562
aa(lp1719
Vupperarm_l
p1720
aF0.011319152941488813
aaa(lp1721
I157
a(lp1722
Vpelvis
p1723
aF0.14850735717364724
aa(lp1724
Vspine_01
p1725
aF0.24029781229963357
aa(lp1726
Vspine_02
p1727
aF0.18620285675965559
aa(lp1728
Vupperarm_l
p1729
aF0.21271147365113563
aa(lp1730
Vupperarm_twist_01_l
p1731
aF0.21228050011592794
aaa(lp1732
I158
a(lp1733
Vpelvis
p1734
aF0.15013777765913816
aa(lp1735
Vspine_01
p1736
aF0.18545892617225809
aa(lp1737
Vspine_02
p1738
aF0.12571558848215625
aa(lp1739
Vupperarm_l
p1740
aF0.26934385384322374
aa(lp1741
Vupperarm_twist_01_l
p1742
aF0.26934385384322374
aaa(lp1743
I159
a(lp1744
Vpelvis
p1745
aF0.202615048014405
aa(lp1746
Vspine_01
p1747
aF0.383215292891667
aa(lp1748
Vspine_02
p1749
aF0.25764887430154704
aa(lp1750
Vupperarm_l
p1751
aF0.078321316844150737
aa(lp1752
Vupperarm_twist_01_l
p1753
aF0.078199467948230184
aaa(lp1754
I160
a(lp1755
Vpelvis
p1756
aF0.21514455185547768
aa(lp1757
Vspine_01
p1758
aF0.4652896088894109
aa(lp1759
Vspine_02
p1760
aF0.25998675156128354
aa(lp1761
Vspine_03
p1762
aF0.031452595107544612
aa(lp1763
Vupperarm_l
p1764
aF0.028126492586283355
aaa(lp1765
I161
a(lp1766
Vpelvis
p1767
aF0.2236531703365465
aa(lp1768
Vspine_01
p1769
aF0.49530176974146467
aa(lp1770
Vspine_02
p1771
aF0.24017237366004299
aa(lp1772
Vspine_03
p1773
aF0.025284525147408598
aa(lp1774
Vupperarm_l
p1775
aF0.015588161114537164
aaa(lp1776
I162
a(lp1777
Vspine_01
p1778
aF0.13779526929312144
aa(lp1779
Vspine_02
p1780
aF0.13810011684650145
aa(lp1781
Vclavicle_l
p1782
aF0.19037792754782359
aa(lp1783
Vupperarm_l
p1784
aF0.33312812663353325
aa(lp1785
Vupperarm_twist_01_l
p1786
aF0.20059855967902032
aaa(lp1787
I163
a(lp1788
Vspine_01
p1789
aF0.032349819409685759
aa(lp1790
Vspine_02
p1791
aF0.032577667051416258
aa(lp1792
Vclavicle_l
p1793
aF0.1302810797204226
aa(lp1794
Vupperarm_l
p1795
aF0.6351673560253015
aa(lp1796
Vupperarm_twist_01_l
p1797
aF0.16962407779317401
aaa(lp1798
I164
a(lp1799
Vspine_01
p1800
aF0.34299611794853652
aa(lp1801
Vspine_02
p1802
aF0.34299611794853652
aa(lp1803
Vspine_03
p1804
aF0.094005165129192547
aa(lp1805
Vupperarm_l
p1806
aF0.12516530875427456
aa(lp1807
Vupperarm_twist_01_l
p1808
aF0.09483729021945983
aaa(lp1809
I165
a(lp1810
Vpelvis
p1811
aF0.043311974282338864
aa(lp1812
Vspine_01
p1813
aF0.42819062466675123
aa(lp1814
Vspine_02
p1815
aF0.42819062466675112
aa(lp1816
Vspine_03
p1817
aF0.062007571820458351
aa(lp1818
VWingL
p1819
aF0.038299204563700458
aaa(lp1820
I166
a(lp1821
Vpelvis
p1822
aF0.034351105180595205
aa(lp1823
Vspine_01
p1824
aF0.45184182625154012
aa(lp1825
Vspine_02
p1826
aF0.45108794302420008
aa(lp1827
Vspine_03
p1828
aF0.042848663633126213
aa(lp1829
VWingL
p1830
aF0.019870461910538297
aaa(lp1831
I167
a(lp1832
Vspine_03
p1833
aF0.076453712894250986
aa(lp1834
VWingL
p1835
aF0.076453712894250986
aa(lp1836
Vclavicle_l
p1837
aF0.34710689671651146
aa(lp1838
Vupperarm_l
p1839
aF0.43568909371017622
aa(lp1840
Vupperarm_twist_01_l
p1841
aF0.064296583784810429
aaa(lp1842
I168
a(lp1843
Vspine_03
p1844
aF0.0090730292150870331
aa(lp1845
VWingL
p1846
aF0.0090730292150870331
aa(lp1847
Vclavicle_l
p1848
aF0.1864180091210508
aa(lp1849
Vupperarm_l
p1850
aF0.77258154355715702
aa(lp1851
Vupperarm_twist_01_l
p1852
aF0.022854388891618199
aaa(lp1853
I169
a(lp1854
Vspine_02
p1855
aF0.25825362627417814
aa(lp1856
Vspine_03
p1857
aF0.21769133990581596
aa(lp1858
VWingL
p1859
aF0.20590442581793153
aa(lp1860
Vclavicle_l
p1861
aF0.15571411622047937
aa(lp1862
Vupperarm_l
p1863
aF0.16243649178159511
aaa(lp1864
I170
a(lp1865
Vspine_01
p1866
aF0.21256364641100142
aa(lp1867
Vspine_02
p1868
aF0.43255391432754386
aa(lp1869
Vspine_03
p1870
aF0.1871489075935989
aa(lp1871
VWingL
p1872
aF0.1222399636806277
aa(lp1873
VWingR
p1874
aF0.045493567987227951
aaa(lp1875
I171
a(lp1876
Vspine_01
p1877
aF0.22874225687538791
aa(lp1878
Vspine_02
p1879
aF0.5294837724147019
aa(lp1880
Vspine_03
p1881
aF0.14690560065064773
aa(lp1882
VWingL
p1883
aF0.052034084116528802
aa(lp1884
VWingR
p1885
aF0.042834285942733842
aaa(lp1886
I172
a(lp1887
Vspine_02
p1888
aF0.033171206923313649
aa(lp1889
Vspine_03
p1890
aF0.14574161215541676
aa(lp1891
VWingL
p1892
aF0.14574161215541676
aa(lp1893
Vclavicle_l
p1894
aF0.34183166416825894
aa(lp1895
Vupperarm_l
p1896
aF0.333513904597594
aaa(lp1897
I173
a(lp1898
Vspine_02
p1899
aF0.0021481957715318778
aa(lp1900
Vspine_03
p1901
aF0.0083039305795985976
aa(lp1902
VWingL
p1903
aF0.0065118770291436303
aa(lp1904
Vclavicle_l
p1905
aF0.49245094782614296
aa(lp1906
Vupperarm_l
p1907
aF0.49058504879358289
aaa(lp1908
I174
a(lp1909
Vspine_02
p1910
aF0.061024007926451858
aa(lp1911
Vspine_03
p1912
aF0.43311285212235329
aa(lp1913
VWingL
p1914
aF0.43311285212235329
aa(lp1915
Vclavicle_l
p1916
aF0.038538935237714372
aa(lp1917
Vupperarm_l
p1918
aF0.034211352591127259
aaa(lp1919
I175
a(lp1920
Vspine_02
p1921
aF0.14471646998573587
aa(lp1922
Vspine_03
p1923
aF0.48226794607119206
aa(lp1924
VWingL
p1925
aF0.3360955893767571
aa(lp1926
VWingR
p1927
aF0.028220332083972489
aa(lp1928
Vclavicle_l
p1929
aF0.0086996624823425031
aaa(lp1930
I176
a(lp1931
Vspine_01
p1932
aF0.010636439462556496
aa(lp1933
Vspine_02
p1934
aF0.3394330049063099
aa(lp1935
Vspine_03
p1936
aF0.44577671743825548
aa(lp1937
VWingL
p1938
aF0.12504997217400668
aa(lp1939
VWingR
p1940
aF0.079103866018871455
aaa(lp1941
I177
a(lp1942
Vspine_02
p1943
aF0.022479535907070997
aa(lp1944
Vspine_03
p1945
aF0.35084225753766668
aa(lp1946
VWingL
p1947
aF0.35084225753766657
aa(lp1948
Vclavicle_l
p1949
aF0.22557567292287289
aa(lp1950
Vupperarm_l
p1951
aF0.050260276094722944
aaa(lp1952
I178
a(lp1953
Vspine_02
p1954
aF0.0053520795159505957
aa(lp1955
Vspine_03
p1956
aF0.207608706488881
aa(lp1957
VWingL
p1958
aF0.035084300611967691
aa(lp1959
Vclavicle_l
p1960
aF0.70966307736363488
aa(lp1961
Vupperarm_l
p1962
aF0.042291836019565918
aaa(lp1963
I179
a(lp1964
Vspine_02
p1965
aF0.0018822315932615729
aa(lp1966
Vspine_03
p1967
aF0.497929724089968
aa(lp1968
VWingL
p1969
aF0.497929724089968
aa(lp1970
Vclavicle_l
p1971
aF0.0015361151157589012
aaa(lp1972
I180
a(lp1973
Vspine_02
p1974
aF0.0010158493286068812
aa(lp1975
Vspine_03
p1976
aF0.61805764701866417
aa(lp1977
VWingL
p1978
aF0.38025250281353096
aaa(lp1979
I181
a(lp1980
Vspine_02
p1981
aF0.072538223898110807
aa(lp1982
Vspine_03
p1983
aF0.48300145393234251
aa(lp1984
VWingL
p1985
aF0.26453072045163495
aa(lp1986
VWingR
p1987
aF0.17625852183391297
aa(lp1988
Vclavicle_l
p1989
aF0.003671079883998798
aaa(lp1990
I182
a(lp1991
Vspine_02
p1992
aF0.0085796335535823897
aa(lp1993
Vspine_03
p1994
aF0.67652568605690944
aa(lp1995
VWingL
p1996
aF0.074612025107357927
aa(lp1997
VWingR
p1998
aF0.0074815459394257664
aa(lp1999
Vclavicle_l
p2000
aF0.23280110934272444
aaa(lp2001
I183
a(lp2002
Vspine_02
p2003
aF0.0016379127548928948
aa(lp2004
Vspine_03
p2005
aF0.60939361935176573
aa(lp2006
VWingL
p2007
aF0.0086836538509964343
aa(lp2008
Vclavicle_l
p2009
aF0.37830497824660148
aa(lp2010
Vupperarm_l
p2011
aF0.0019798357957434257
aaa(lp2012
I184
a(lp2013
Vspine_02
p2014
aF0.025672556607593877
aa(lp2015
Vspine_03
p2016
aF0.48995230475638735
aa(lp2017
VWingL
p2018
aF0.35760047584028559
aa(lp2019
VWingR
p2020
aF0.027559072006539304
aa(lp2021
Vclavicle_l
p2022
aF0.099215590789193953
aaa(lp2023
I185
a(lp2024
Vspine_02
p2025
aF0.047330574582384877
aa(lp2026
Vspine_03
p2027
aF0.40702168772831615
aa(lp2028
VWingL
p2029
aF0.40699574768966934
aa(lp2030
VWingR
p2031
aF0.094987675120580692
aa(lp2032
Vclavicle_l
p2033
aF0.043664314879048934
aaa(lp2034
I186
a(lp2035
Vspine_02
p2036
aF0.070870735701268603
aa(lp2037
Vspine_03
p2038
aF0.33279441372657381
aa(lp2039
VWingL
p2040
aF0.23197772942464023
aa(lp2041
VWingR
p2042
aF0.33279441372657381
aa(lp2043
Vclavicle_l
p2044
aF0.031562707420943595
aaa(lp2045
I187
a(lp2046
Vspine_03
p2047
aF0.55055053482846894
aa(lp2048
VWingL
p2049
aF0.046633492070331718
aa(lp2050
VWingR
p2051
aF0.024114971893757352
aa(lp2052
Vclavicle_l
p2053
aF0.35083235253842832
aa(lp2054
Vclavicle_r
p2055
aF0.027868648669013781
aaa(lp2056
I188
a(lp2057
Vspine_03
p2058
aF0.52606729900441307
aa(lp2059
VWingL
p2060
aF0.026306428309474803
aa(lp2061
Vclavicle_l
p2062
aF0.40981947275161779
aa(lp2063
Vclavicle_r
p2064
aF0.019731030315130661
aa(lp2065
Vneck_01
p2066
aF0.018075769619363528
aaa(lp2067
I189
a(lp2068
Vspine_03
p2069
aF0.54147108105888453
aa(lp2070
VWingL
p2071
aF0.08554855189477413
aa(lp2072
VWingR
p2073
aF0.053481661202193505
aa(lp2074
Vclavicle_l
p2075
aF0.26932007891670612
aa(lp2076
Vclavicle_r
p2077
aF0.050178626927441482
aaa(lp2078
I190
a(lp2079
Vspine_03
p2080
aF0.45512188757198901
aa(lp2081
VWingL
p2082
aF0.12197195444672689
aa(lp2083
VWingR
p2084
aF0.11752939257149142
aa(lp2085
Vclavicle_l
p2086
aF0.20367836992254099
aa(lp2087
Vclavicle_r
p2088
aF0.10169839548725171
aaa(lp2089
I191
a(lp2090
Vspine_03
p2091
aF0.39100180206463098
aa(lp2092
VWingL
p2093
aF0.11565025609618561
aa(lp2094
VWingR
p2095
aF0.17442652742115164
aa(lp2096
Vclavicle_l
p2097
aF0.15179551917563028
aa(lp2098
Vclavicle_r
p2099
aF0.16712589524240157
aaa(lp2100
I192
a(lp2101
Vroot
p2102
aF0.0082831012878671617
aa(lp2103
VTail1
p2104
aF0.036143420961376765
aa(lp2105
VTail2
p2106
aF0.47420478941391236
aa(lp2107
VTail3
p2108
aF0.47420478941391225
aa(lp2109
Vcalf_l
p2110
aF0.0071638989229313955
aaa(lp2111
I193
a(lp2112
Vspine_03
p2113
aF0.35449968796374648
aa(lp2114
VWingR
p2115
aF0.062544638028259811
aa(lp2116
Vclavicle_l
p2117
aF0.27011973193411182
aa(lp2118
Vclavicle_r
p2119
aF0.22476399160922889
aa(lp2120
Vneck_01
p2121
aF0.088071950464652979
aaa(lp2122
I194
a(lp2123
Vroot
p2124
aF0.0056930420184149958
aa(lp2125
VTail1
p2126
aF0.039760488536479177
aa(lp2127
VTail2
p2128
aF0.4748033889851489
aa(lp2129
VTail3
p2130
aF0.47480338898514879
aa(lp2131
Vcalf_l
p2132
aF0.0049396914748082443
aaa(lp2133
I195
a(lp2134
Vroot
p2135
aF0.0054274483525703805
aa(lp2136
VTail1
p2137
aF0.035260202017708901
aa(lp2138
VTail2
p2139
aF0.47736110346531946
aa(lp2140
VTail3
p2141
aF0.47736110346531968
aa(lp2142
Vcalf_l
p2143
aF0.0045901426990814925
aaa(lp2144
I196
a(lp2145
Vroot
p2146
aF0.0043748128796678686
aa(lp2147
Vpelvis
p2148
aF0.0036830918696536437
aa(lp2149
VTail1
p2150
aF0.035704463620038131
aa(lp2151
VTail2
p2152
aF0.47811881581532018
aa(lp2153
VTail3
p2154
aF0.47811881581532018
aaa(lp2155
I197
a(lp2156
Vroot
p2157
aF0.0042475646089686547
aa(lp2158
Vpelvis
p2159
aF0.0034868857314250741
aa(lp2160
VTail1
p2161
aF0.030489585334482323
aa(lp2162
VTail2
p2163
aF0.48088798216256196
aa(lp2164
VTail3
p2165
aF0.48088798216256196
aaa(lp2166
I198
a(lp2167
Vroot
p2168
aF0.0032012689809717159
aa(lp2169
Vpelvis
p2170
aF0.0027475091056118634
aa(lp2171
VTail1
p2172
aF0.029234439938442928
aa(lp2173
VTail2
p2174
aF0.48240839098748672
aa(lp2175
VTail3
p2176
aF0.48240839098748672
aaa(lp2177
I199
a(lp2178
Vroot
p2179
aF0.0036868587728581099
aa(lp2180
Vpelvis
p2181
aF0.0030916967024621727
aa(lp2182
VTail1
p2183
aF0.028026184953226483
aa(lp2184
VTail2
p2185
aF0.48259762978572646
aa(lp2186
VTail3
p2187
aF0.48259762978572668
aaa(lp2188
I200
a(lp2189
VTail1
p2190
aF0.051204373907711702
aa(lp2191
VTail2
p2192
aF0.46576080800538755
aa(lp2193
VTail3
p2194
aF0.46576080800538744
aa(lp2195
Vthigh_l
p2196
aF0.0085405398213548485
aa(lp2197
Vcalf_l
p2198
aF0.008733470260158499
aaa(lp2199
I201
a(lp2200
Vroot
p2201
aF0.010887520564534507
aa(lp2202
VTail1
p2203
aF0.087715522827659181
aa(lp2204
VTail2
p2205
aF0.45796831591994336
aa(lp2206
VTail3
p2207
aF0.43230139478738161
aa(lp2208
Vthigh_l
p2209
aF0.011127245900481222
aaa(lp2210
I202
a(lp2211
Vroot
p2212
aF0.007216174067170799
aa(lp2213
VTail1
p2214
aF0.054709997175487753
aa(lp2215
VTail2
p2216
aF0.46577955318848951
aa(lp2217
VTail3
p2218
aF0.46561585953052503
aa(lp2219
Vthigh_l
p2220
aF0.0066784160383270268
aaa(lp2221
I203
a(lp2222
Vroot
p2223
aF0.0086407982107453239
aa(lp2224
Vpelvis
p2225
aF0.008172693761720147
aa(lp2226
VTail1
p2227
aF0.094629065117071406
aa(lp2228
VTail2
p2229
aF0.48526779438490492
aa(lp2230
VTail3
p2231
aF0.40328964852555815
aaa(lp2232
I204
a(lp2233
Vroot
p2234
aF0.0055188457734764128
aa(lp2235
Vpelvis
p2236
aF0.004858258124889085
aa(lp2237
VTail1
p2238
aF0.05248827787033461
aa(lp2239
VTail2
p2240
aF0.47480221300838121
aa(lp2241
VTail3
p2242
aF0.46233240522291869
aaa(lp2243
I205
a(lp2244
Vroot
p2245
aF0.0057238250977512577
aa(lp2246
Vpelvis
p2247
aF0.0057586446671433686
aa(lp2248
VTail1
p2249
aF0.084223033897295144
aa(lp2250
VTail2
p2251
aF0.53222092190881332
aa(lp2252
VTail3
p2253
aF0.37207357442899686
aaa(lp2254
I206
a(lp2255
Vroot
p2256
aF0.0037903970633173618
aa(lp2257
Vpelvis
p2258
aF0.0034671131562022135
aa(lp2259
VTail1
p2260
aF0.043555783782910619
aa(lp2261
VTail2
p2262
aF0.49251038379757001
aa(lp2263
VTail3
p2264
aF0.45667632219999987
aaa(lp2265
I207
a(lp2266
Vroot
p2267
aF0.0042509162204722693
aa(lp2268
Vpelvis
p2269
aF0.0045022174680329338
aa(lp2270
VTail1
p2271
aF0.07850402565819492
aa(lp2272
VTail2
p2273
aF0.57895089133645017
aa(lp2274
VTail3
p2275
aF0.33379194931684975
aaa(lp2276
I208
a(lp2277
Vroot
p2278
aF0.0033844063154839059
aa(lp2279
Vpelvis
p2280
aF0.0032411603033067411
aa(lp2281
VTail1
p2282
aF0.043520986065435495
aa(lp2283
VTail2
p2284
aF0.50440506733280233
aa(lp2285
VTail3
p2286
aF0.44544837998297154
aaa(lp2287
I209
a(lp2288
VTail1
p2289
aF0.15085685463450679
aa(lp2290
VTail2
p2291
aF0.44831074115844027
aa(lp2292
VTail3
p2293
aF0.36192958991131163
aa(lp2294
Vthigh_l
p2295
aF0.020780550716652128
aa(lp2296
Vcalf_l
p2297
aF0.018122263579089217
aaa(lp2298
I210
a(lp2299
Vpelvis
p2300
aF0.026272897067948879
aa(lp2301
VTail1
p2302
aF0.26471215126085074
aa(lp2303
VTail2
p2304
aF0.45310500821993255
aa(lp2305
VTail3
p2306
aF0.22809971809902788
aa(lp2307
Vthigh_l
p2308
aF0.027810225352239953
aaa(lp2309
I211
a(lp2310
Vroot
p2311
aF0.014701093391548709
aa(lp2312
Vpelvis
p2313
aF0.01524413246576288
aa(lp2314
VTail1
p2315
aF0.17148097258028394
aa(lp2316
VTail2
p2317
aF0.48097008541284114
aa(lp2318
VTail3
p2319
aF0.31760371614956329
aaa(lp2320
I212
a(lp2321
Vroot
p2322
aF0.017388923975690449
aa(lp2323
Vpelvis
p2324
aF0.023163494608313077
aa(lp2325
VTail1
p2326
aF0.30112742761987538
aa(lp2327
VTail2
p2328
aF0.48751070980356226
aa(lp2329
VTail3
p2330
aF0.17080944399255887
aaa(lp2331
I213
a(lp2332
Vroot
p2333
aF0.010300671156599665
aa(lp2334
Vpelvis
p2335
aF0.012006955708299596
aa(lp2336
VTail1
p2337
aF0.17986387417598945
aa(lp2338
VTail2
p2339
aF0.53545549728526765
aa(lp2340
VTail3
p2341
aF0.26237300167384364
aaa(lp2342
I214
a(lp2343
Vroot
p2344
aF0.010588883073475681
aa(lp2345
Vpelvis
p2346
aF0.015870456109169383
aa(lp2347
VTail1
p2348
aF0.32065608232671816
aa(lp2349
VTail2
p2350
aF0.53971735087843309
aa(lp2351
VTail3
p2352
aF0.11316722761220376
aaa(lp2353
I215
a(lp2354
Vroot
p2355
aF0.0063343386478832064
aa(lp2356
Vpelvis
p2357
aF0.0077188071210063536
aa(lp2358
VTail1
p2359
aF0.16550839482010604
aa(lp2360
VTail2
p2361
aF0.61654850145815054
aa(lp2362
VTail3
p2363
aF0.20388995795285389
aaa(lp2364
I216
a(lp2365
Vroot
p2366
aF0.0069330071539131033
aa(lp2367
Vpelvis
p2368
aF0.01122845887659072
aa(lp2369
VTail1
p2370
aF0.33402104484761802
aa(lp2371
VTail2
p2372
aF0.57484296352923792
aa(lp2373
VTail3
p2374
aF0.072974525592640074
aaa(lp2375
I217
a(lp2376
Vroot
p2377
aF0.0060240897724682784
aa(lp2378
Vpelvis
p2379
aF0.0079671409486859416
aa(lp2380
VTail1
p2381
aF0.18729722781856442
aa(lp2382
VTail2
p2383
aF0.62802837777445975
aa(lp2384
VTail3
p2385
aF0.17068316368582157
aaa(lp2386
I218
a(lp2387
Vpelvis
p2388
aF0.044487574354449104
aa(lp2389
VTail1
p2390
aF0.34492158900205888
aa(lp2391
VTail2
p2392
aF0.40495882539798628
aa(lp2393
VTail3
p2394
aF0.14653084467272073
aa(lp2395
Vthigh_l
p2396
aF0.059101166572784899
aaa(lp2397
I219
a(lp2398
Vpelvis
p2399
aF0.070230957682585457
aa(lp2400
VTail1
p2401
aF0.387274338010342
aa(lp2402
VTail2
p2403
aF0.38650733575582974
aa(lp2404
VTail3
p2405
aF0.071417886460506522
aa(lp2406
Vthigh_l
p2407
aF0.084569482090736225
aaa(lp2408
I220
a(lp2409
Vpelvis
p2410
aF0.039679145573205774
aa(lp2411
VTail1
p2412
aF0.38657878143645308
aa(lp2413
VTail2
p2414
aF0.43429501941727677
aa(lp2415
VTail3
p2416
aF0.10704508240283156
aa(lp2417
Vthigh_l
p2418
aF0.032401971170232892
aaa(lp2419
I221
a(lp2420
Vpelvis
p2421
aF0.064839626179284654
aa(lp2422
VTail1
p2423
aF0.43659285853469182
aa(lp2424
VTail2
p2425
aF0.4189744475398865
aa(lp2426
VTail3
p2427
aF0.045053391731189274
aa(lp2428
Vthigh_l
p2429
aF0.034539676014947708
aaa(lp2430
I222
a(lp2431
Vroot
p2432
aF0.017728338839750068
aa(lp2433
Vpelvis
p2434
aF0.031779405859552003
aa(lp2435
VTail1
p2436
aF0.42708083138582448
aa(lp2437
VTail2
p2438
aF0.45790093591416359
aa(lp2439
VTail3
p2440
aF0.06551048800070973
aaa(lp2441
I223
a(lp2442
Vroot
p2443
aF0.020340335299221357
aa(lp2444
Vpelvis
p2445
aF0.057103491516129389
aa(lp2446
VTail1
p2447
aF0.48720753769222497
aa(lp2448
VTail2
p2449
aF0.41066996948283208
aa(lp2450
VTail3
p2451
aF0.024678666009592218
aaa(lp2452
I224
a(lp2453
Vroot
p2454
aF0.010324875542944712
aa(lp2455
Vpelvis
p2456
aF0.022287061528384937
aa(lp2457
VTail1
p2458
aF0.45836799029759606
aa(lp2459
VTail2
p2460
aF0.47385327359462343
aa(lp2461
VTail3
p2462
aF0.035166799036450966
aaa(lp2463
I225
a(lp2464
Vroot
p2465
aF0.016287596308042766
aa(lp2466
Vpelvis
p2467
aF0.058571482651486262
aa(lp2468
VTail1
p2469
aF0.52983829372699665
aa(lp2470
VTail2
p2471
aF0.37799430700693082
aa(lp2472
VTail3
p2473
aF0.017308320306543494
aaa(lp2474
I226
a(lp2475
Vroot
p2476
aF0.010343269570996929
aa(lp2477
Vpelvis
p2478
aF0.025400417423105257
aa(lp2479
VTail1
p2480
aF0.46544880012034912
aa(lp2481
VTail2
p2482
aF0.4679828952030527
aa(lp2483
VTail3
p2484
aF0.03082461768249602
aaa(lp2485
I227
a(lp2486
Vroot
p2487
aF0.084679078734879634
aa(lp2488
Vpelvis
p2489
aF0.10531272523376961
aa(lp2490
VTail1
p2491
aF0.30540375666307829
aa(lp2492
VTail2
p2493
aF0.27498875782189458
aa(lp2494
Vthigh_l
p2495
aF0.2296156815463779
aaa(lp2496
I228
a(lp2497
Vroot
p2498
aF0.096835959938283436
aa(lp2499
Vpelvis
p2500
aF0.1571695770619318
aa(lp2501
VTail1
p2502
aF0.28024437009309267
aa(lp2503
VTail2
p2504
aF0.17098282461692094
aa(lp2505
Vthigh_l
p2506
aF0.29476726828977118
aaa(lp2507
I229
a(lp2508
Vroot
p2509
aF0.065067920866775375
aa(lp2510
Vpelvis
p2511
aF0.12468408710596394
aa(lp2512
VTail1
p2513
aF0.39833764050199783
aa(lp2514
VTail2
p2515
aF0.30990616696058659
aa(lp2516
Vthigh_l
p2517
aF0.10200418456467628
aaa(lp2518
I230
a(lp2519
Vroot
p2520
aF0.075510290317725076
aa(lp2521
Vpelvis
p2522
aF0.23313009665108597
aa(lp2523
VTail1
p2524
aF0.42015393972004128
aa(lp2525
VTail2
p2526
aF0.17293244051592402
aa(lp2527
Vthigh_l
p2528
aF0.098273232795223611
aaa(lp2529
I231
a(lp2530
Vroot
p2531
aF0.042346892936575856
aa(lp2532
Vpelvis
p2533
aF0.13732264380184328
aa(lp2534
VTail1
p2535
aF0.49713972929727901
aa(lp2536
VTail2
p2537
aF0.28748281585943597
aa(lp2538
Vthigh_l
p2539
aF0.03570791810486583
aaa(lp2540
I232
a(lp2541
Vroot
p2542
aF0.051507608738097913
aa(lp2543
Vpelvis
p2544
aF0.2791074143287256
aa(lp2545
VTail1
p2546
aF0.50579121961780438
aa(lp2547
VTail2
p2548
aF0.13116064562663149
aa(lp2549
Vthigh_l
p2550
aF0.032433111688740621
aaa(lp2551
I233
a(lp2552
Vroot
p2553
aF0.030506636218270159
aa(lp2554
Vpelvis
p2555
aF0.15023077398467913
aa(lp2556
VTail1
p2557
aF0.57198527858106207
aa(lp2558
VTail2
p2559
aF0.23233963744563943
aa(lp2560
Vthigh_l
p2561
aF0.014937673770349186
aaa(lp2562
I234
a(lp2563
Vroot
p2564
aF0.043139487366069554
aa(lp2565
Vpelvis
p2566
aF0.30753257656385441
aa(lp2567
VTail1
p2568
aF0.52667051448680957
aa(lp2569
VTail2
p2570
aF0.1068828876382492
aa(lp2571
Vthigh_l
p2572
aF0.015774533945017304
aaa(lp2573
I235
a(lp2574
Vroot
p2575
aF0.031762487629500867
aa(lp2576
Vpelvis
p2577
aF0.17622071663325825
aa(lp2578
VTail1
p2579
aF0.5649390321380372
aa(lp2580
VTail2
p2581
aF0.21365898940210942
aa(lp2582
VTail3
p2583
aF0.013418774197094129
aaa(lp2584
I236
a(lp2585
Vroot
p2586
aF0.076294775522945099
aa(lp2587
Vpelvis
p2588
aF0.14686250474513671
aa(lp2589
VTail1
p2590
aF0.11750449825375857
aa(lp2591
VTail2
p2592
aF0.055436120498355473
aa(lp2593
Vthigh_l
p2594
aF0.60390210097980423
aaa(lp2595
I237
a(lp2596
Vroot
p2597
aF0.066448738428921725
aa(lp2598
Vpelvis
p2599
aF0.27549010381691702
aa(lp2600
VTail1
p2601
aF0.098067925675561524
aa(lp2602
VTail2
p2603
aF0.02480953495337835
aa(lp2604
Vthigh_l
p2605
aF0.53518369712522151
aaa(lp2606
I238
a(lp2607
Vroot
p2608
aF0.10453743969435988
aa(lp2609
Vpelvis
p2610
aF0.24429030361703361
aa(lp2611
VTail1
p2612
aF0.28961489848589345
aa(lp2613
VTail2
p2614
aF0.092172810225643886
aa(lp2615
Vthigh_l
p2616
aF0.26938454797706918
aaa(lp2617
I239
a(lp2618
Vroot
p2619
aF0.11658943123759531
aa(lp2620
Vpelvis
p2621
aF0.31090138426701741
aa(lp2622
VTail1
p2623
aF0.3109704363124447
aa(lp2624
VTail2
p2625
aF0.049280582084612633
aa(lp2626
Vthigh_l
p2627
aF0.21225816609833001
aaa(lp2628
I240
a(lp2629
Vroot
p2630
aF0.080774934607525314
aa(lp2631
Vpelvis
p2632
aF0.35370519459306066
aa(lp2633
VTail1
p2634
aF0.40987993190970873
aa(lp2635
VTail2
p2636
aF0.079277741993798653
aa(lp2637
Vthigh_l
p2638
aF0.076362196895906634
aaa(lp2639
I241
a(lp2640
Vroot
p2641
aF0.096350847149076532
aa(lp2642
Vpelvis
p2643
aF0.40137750007320522
aa(lp2644
VTail1
p2645
aF0.39885266593235774
aa(lp2646
VTail2
p2647
aF0.041347801653443775
aa(lp2648
Vthigh_l
p2649
aF0.062071185191916733
aaa(lp2650
I242
a(lp2651
Vroot
p2652
aF0.061115036573605501
aa(lp2653
Vpelvis
p2654
aF0.40063231970750707
aa(lp2655
VTail1
p2656
aF0.45061542524585957
aa(lp2657
VTail2
p2658
aF0.060108642827977947
aa(lp2659
Vthigh_l
p2660
aF0.027528575645049971
aaa(lp2661
I243
a(lp2662
Vroot
p2663
aF0.086339797908127888
aa(lp2664
Vpelvis
p2665
aF0.42888463063054044
aa(lp2666
VTail1
p2667
aF0.42096870850829632
aa(lp2668
VTail2
p2669
aF0.036152049520132512
aa(lp2670
Vthigh_l
p2671
aF0.027654813432902787
aaa(lp2672
I244
a(lp2673
Vroot
p2674
aF0.06208152820091517
aa(lp2675
Vpelvis
p2676
aF0.41148069223677597
aa(lp2677
VTail1
p2678
aF0.44804284158892083
aa(lp2679
VTail2
p2680
aF0.060117868120195685
aa(lp2681
Vthigh_l
p2682
aF0.018277069853192343
aaa(lp2683
I245
a(lp2684
Vroot
p2685
aF0.017792305296913367
aa(lp2686
Vpelvis
p2687
aF0.47210921455062238
aa(lp2688
VTail1
p2689
aF0.013778649627428413
aa(lp2690
Vlowerarm_l
p2691
aF0.010350035101761589
aa(lp2692
Vthigh_l
p2693
aF0.48596979542327423
aaa(lp2694
I246
a(lp2695
Vroot
p2696
aF0.064248800916563348
aa(lp2697
Vpelvis
p2698
aF0.43891167551282623
aa(lp2699
VTail1
p2700
aF0.047545100631411659
aa(lp2701
Vlowerarm_l
p2702
aF0.011888116311521717
aa(lp2703
Vthigh_l
p2704
aF0.43740630662767693
aaa(lp2705
I247
a(lp2706
Vroot
p2707
aF0.076978907691000548
aa(lp2708
Vpelvis
p2709
aF0.39508801655492576
aa(lp2710
VTail1
p2711
aF0.10566221016928991
aa(lp2712
VTail2
p2713
aF0.015865521728465923
aa(lp2714
Vthigh_l
p2715
aF0.40640534385631794
aaa(lp2716
I248
a(lp2717
Vroot
p2718
aF0.12712355488182378
aa(lp2719
Vpelvis
p2720
aF0.41099089038827086
aa(lp2721
VTail1
p2722
aF0.11271131932268622
aa(lp2723
VTail2
p2724
aF0.014003805483627025
aa(lp2725
Vthigh_l
p2726
aF0.33517042992359214
aaa(lp2727
I249
a(lp2728
Vroot
p2729
aF0.14924477752528884
aa(lp2730
Vpelvis
p2731
aF0.35122570392746988
aa(lp2732
VTail1
p2733
aF0.29715681422453272
aa(lp2734
VTail2
p2735
aF0.030463770865041775
aa(lp2736
Vthigh_l
p2737
aF0.17190893345766683
aaa(lp2738
I250
a(lp2739
Vroot
p2740
aF0.22628142775657209
aa(lp2741
Vpelvis
p2742
aF0.40100421874026043
aa(lp2743
VTail1
p2744
aF0.2227573419297938
aa(lp2745
Vthigh_l
p2746
aF0.12794077861812955
aa(lp2747
Vthigh_r
p2748
aF0.022016232955244183
aaa(lp2749
I251
a(lp2750
Vroot
p2751
aF0.14137882913310099
aa(lp2752
Vpelvis
p2753
aF0.42947383809351147
aa(lp2754
VTail1
p2755
aF0.34374128725873787
aa(lp2756
VTail2
p2757
aF0.027733203240274205
aa(lp2758
Vthigh_l
p2759
aF0.057672842274375566
aaa(lp2760
I252
a(lp2761
Vroot
p2762
aF0.23308016432903955
aa(lp2763
Vpelvis
p2764
aF0.44985188099145873
aa(lp2765
VTail1
p2766
aF0.23593925073574865
aa(lp2767
Vthigh_l
p2768
aF0.051975225160373159
aa(lp2769
Vthigh_r
p2770
aF0.029153478783379969
aaa(lp2771
I253
a(lp2772
Vroot
p2773
aF0.1447600810015503
aa(lp2774
Vpelvis
p2775
aF0.44091941727419975
aa(lp2776
VTail1
p2777
aF0.35003432859585309
aa(lp2778
Vthigh_l
p2779
aF0.034473419255099773
aa(lp2780
Vthigh_r
p2781
aF0.02981275387329721
aaa(lp2782
I254
a(lp2783
Vroot
p2784
aF0.019290279598064911
aa(lp2785
Vpelvis
p2786
aF0.47628935423014618
aa(lp2787
Vlowerarm_l
p2788
aF0.014065505970821381
aa(lp2789
Vlowerarm_twist_01_l
p2790
aF0.014065505970821381
aa(lp2791
Vthigh_l
p2792
aF0.47628935423014618
aaa(lp2793
I255
a(lp2794
Vroot
p2795
aF0.080588940026138561
aa(lp2796
Vpelvis
p2797
aF0.42055818220104985
aa(lp2798
Vlowerarm_l
p2799
aF0.042070546152633878
aa(lp2800
Vlowerarm_twist_01_l
p2801
aF0.041719636105227789
aa(lp2802
Vthigh_l
p2803
aF0.41506269551495001
aaa(lp2804
I256
a(lp2805
Vroot
p2806
aF0.079967879047983928
aa(lp2807
Vpelvis
p2808
aF0.44964204911354855
aa(lp2809
VTail1
p2810
aF0.037403037135691798
aa(lp2811
Vthigh_l
p2812
aF0.419181287169335
aa(lp2813
Vthigh_twist_01_l
p2814
aF0.013805747533440584
aaa(lp2815
I257
a(lp2816
Vroot
p2817
aF0.20867819429514148
aa(lp2818
Vpelvis
p2819
aF0.40398333184064289
aa(lp2820
VTail1
p2821
aF0.05449152075784057
aa(lp2822
Vspine_01
p2823
aF0.054043041624198415
aa(lp2824
Vthigh_l
p2825
aF0.27880391148217659
aaa(lp2826
I258
a(lp2827
Vroot
p2828
aF0.24540819920012916
aa(lp2829
Vpelvis
p2830
aF0.41452136154572755
aa(lp2831
VTail1
p2832
aF0.099081918872721483
aa(lp2833
Vspine_01
p2834
aF0.027577388199793284
aa(lp2835
Vthigh_l
p2836
aF0.21341113218162847
aaa(lp2837
I259
a(lp2838
Vroot
p2839
aF0.36409362071464446
aa(lp2840
Vpelvis
p2841
aF0.38862612531353957
aa(lp2842
VTail1
p2843
aF0.067841391897402459
aa(lp2844
Vspine_01
p2845
aF0.066726011352707643
aa(lp2846
Vthigh_l
p2847
aF0.11271285072170591
aaa(lp2848
I260
a(lp2849
Vroot
p2850
aF0.35516310777990373
aa(lp2851
Vpelvis
p2852
aF0.4115877473482204
aa(lp2853
VTail1
p2854
aF0.12422143291621204
aa(lp2855
Vspine_01
p2856
aF0.029975506285002299
aa(lp2857
Vthigh_l
p2858
aF0.079052205670661471
aaa(lp2859
I261
a(lp2860
Vroot
p2861
aF0.40190078255270995
aa(lp2862
Vpelvis
p2863
aF0.43191120604053085
aa(lp2864
VTail1
p2865
aF0.062022320791666891
aa(lp2866
Vspine_01
p2867
aF0.059459696508751263
aa(lp2868
Vthigh_l
p2869
aF0.044705994106340921
aaa(lp2870
I262
a(lp2871
Vroot
p2872
aF0.3646881664311587
aa(lp2873
Vpelvis
p2874
aF0.42583788149566287
aa(lp2875
VTail1
p2876
aF0.13033657608563587
aa(lp2877
Vthigh_l
p2878
aF0.044156907571030309
aa(lp2879
Vthigh_r
p2880
aF0.034980468416512256
aaa(lp2881
I263
a(lp2882
Vroot
p2883
aF0.098192644528874315
aa(lp2884
Vpelvis
p2885
aF0.31193741627561467
aa(lp2886
Vlowerarm_l
p2887
aF0.1410793312807162
aa(lp2888
Vlowerarm_twist_01_l
p2889
aF0.12116350815406701
aa(lp2890
Vthigh_l
p2891
aF0.32762709976072774
aaa(lp2892
I264
a(lp2893
Vroot
p2894
aF0.15068581291513786
aa(lp2895
Vpelvis
p2896
aF0.2662871873114836
aa(lp2897
Vspine_01
p2898
aF0.20093080951979875
aa(lp2899
Vlowerarm_l
p2900
aF0.15321820192491445
aa(lp2901
Vthigh_l
p2902
aF0.22887798832866546
aaa(lp2903
I265
a(lp2904
Vroot
p2905
aF0.18672605384949711
aa(lp2906
Vpelvis
p2907
aF0.34620760844046045
aa(lp2908
Vspine_01
p2909
aF0.11673737234413781
aa(lp2910
Vlowerarm_l
p2911
aF0.062482371483824746
aa(lp2912
Vthigh_l
p2913
aF0.28784659388207995
aaa(lp2914
I266
a(lp2915
Vroot
p2916
aF0.18044564753229134
aa(lp2917
Vpelvis
p2918
aF0.3816225620280202
aa(lp2919
Vspine_01
p2920
aF0.26792531653756857
aa(lp2921
Vthigh_l
p2922
aF0.12720147293609904
aa(lp2923
Vthigh_twist_01_l
p2924
aF0.042805000966020787
aaa(lp2925
I267
a(lp2926
Vroot
p2927
aF0.27199307282736107
aa(lp2928
Vpelvis
p2929
aF0.39317367912117285
aa(lp2930
VTail1
p2931
aF0.045837077926713786
aa(lp2932
Vspine_01
p2933
aF0.15184607113525506
aa(lp2934
Vthigh_l
p2935
aF0.13715009898949729
aaa(lp2936
I268
a(lp2937
Vroot
p2938
aF0.16499194517185883
aa(lp2939
Vpelvis
p2940
aF0.4761515555162229
aa(lp2941
Vspine_01
p2942
aF0.28455908753196496
aa(lp2943
Vspine_02
p2944
aF0.026957194333687953
aa(lp2945
Vthigh_l
p2946
aF0.04734021744626541
aaa(lp2947
I269
a(lp2948
Vroot
p2949
aF0.29092148751731245
aa(lp2950
Vpelvis
p2951
aF0.48599462803161769
aa(lp2952
VTail1
p2953
aF0.035402093144632441
aa(lp2954
Vspine_01
p2955
aF0.13916263907581808
aa(lp2956
Vthigh_l
p2957
aF0.048519152230619422
aaa(lp2958
I270
a(lp2959
Vroot
p2960
aF0.15215074896920003
aa(lp2961
Vpelvis
p2962
aF0.53296670491851461
aa(lp2963
Vspine_01
p2964
aF0.27347018231293485
aa(lp2965
Vspine_02
p2966
aF0.019642079251580496
aa(lp2967
Vthigh_l
p2968
aF0.021770284547770018
aaa(lp2969
I271
a(lp2970
Vroot
p2971
aF0.29861702546341434
aa(lp2972
Vpelvis
p2973
aF0.50212806049993131
aa(lp2974
VTail1
p2975
aF0.035289896778610434
aa(lp2976
Vspine_01
p2977
aF0.13477916064218193
aa(lp2978
Vthigh_l
p2979
aF0.029185856615861976
aaa(lp2980
I272
a(lp2981
Vpelvis
p2982
aF0.24637550732200289
aa(lp2983
Vspine_01
p2984
aF0.23500114947466816
aa(lp2985
Vupperarm_l
p2986
aF0.13242452790997727
aa(lp2987
Vlowerarm_l
p2988
aF0.23885473143538846
aa(lp2989
Vthigh_l
p2990
aF0.14734408385796322
aaa(lp2991
I273
a(lp2992
Vpelvis
p2993
aF0.27750137479364656
aa(lp2994
Vspine_01
p2995
aF0.2797160857864302
aa(lp2996
Vupperarm_l
p2997
aF0.16365686191635997
aa(lp2998
Vlowerarm_l
p2999
aF0.11546881558720326
aa(lp3000
Vupperarm_twist_01_l
p3001
aF0.16365686191635997
aaa(lp3002
I274
a(lp3003
Vroot
p3004
aF0.1169562311783644
aa(lp3005
Vpelvis
p3006
aF0.3607985350973964
aa(lp3007
Vspine_01
p3008
aF0.34136204640047452
aa(lp3009
Vlowerarm_l
p3010
aF0.080583360386205755
aa(lp3011
Vthigh_l
p3012
aF0.10029982693755903
aaa(lp3013
I275
a(lp3014
Vpelvis
p3015
aF0.38191418775581104
aa(lp3016
Vspine_01
p3017
aF0.38453666427169775
aa(lp3018
Vspine_02
p3019
aF0.10151559910875266
aa(lp3020
Vupperarm_l
p3021
aF0.066016774431869235
aa(lp3022
Vupperarm_twist_01_l
p3023
aF0.066016774431869235
aaa(lp3024
I276
a(lp3025
Vroot
p3026
aF0.093204329120690127
aa(lp3027
Vpelvis
p3028
aF0.42211759038583935
aa(lp3029
Vspine_01
p3030
aF0.39031915606555079
aa(lp3031
Vspine_02
p3032
aF0.053664933211478687
aa(lp3033
Vthigh_l
p3034
aF0.040693991216441121
aaa(lp3035
I277
a(lp3036
Vroot
p3037
aF0.040200141751237158
aa(lp3038
Vpelvis
p3039
aF0.43242500536848277
aa(lp3040
Vspine_01
p3041
aF0.43433233332139087
aa(lp3042
Vspine_02
p3043
aF0.071814703888649856
aa(lp3044
Vupperarm_l
p3045
aF0.021227815670239319
aaa(lp3046
I278
a(lp3047
Vroot
p3048
aF0.069892316036966703
aa(lp3049
Vpelvis
p3050
aF0.46583729192326973
aa(lp3051
Vspine_01
p3052
aF0.41286099623876593
aa(lp3053
Vspine_02
p3054
aF0.035018174221126998
aa(lp3055
Vthigh_l
p3056
aF0.016391221579870708
aaa(lp3057
I279
a(lp3058
Vroot
p3059
aF0.031752238108352593
aa(lp3060
Vpelvis
p3061
aF0.45261651964212873
aa(lp3062
Vspine_01
p3063
aF0.4528888169927528
aa(lp3064
Vspine_02
p3065
aF0.053183168721491161
aa(lp3066
Vupperarm_l
p3067
aF0.0095592565352746288
aaa(lp3068
I280
a(lp3069
Vroot
p3070
aF0.069669720010750474
aa(lp3071
Vpelvis
p3072
aF0.47629537589398802
aa(lp3073
Vspine_01
p3074
aF0.4108713538773025
aa(lp3075
Vspine_02
p3076
aF0.031647862151781135
aa(lp3077
Vthigh_l
p3078
aF0.011515688066177756
aaa(lp3079
I281
a(lp3080
Vpelvis
p3081
aF0.17387577651452743
aa(lp3082
Vspine_01
p3083
aF0.214853461711035
aa(lp3084
Vspine_02
p3085
aF0.13404219769643905
aa(lp3086
Vupperarm_l
p3087
aF0.23861428203899912
aa(lp3088
Vupperarm_twist_01_l
p3089
aF0.23861428203899934
aaa(lp3090
I282
a(lp3091
Vpelvis
p3092
aF0.10919449858894571
aa(lp3093
Vspine_01
p3094
aF0.17208049742944756
aa(lp3095
Vspine_02
p3096
aF0.13080241245459481
aa(lp3097
Vupperarm_l
p3098
aF0.29396129576350577
aa(lp3099
Vupperarm_twist_01_l
p3100
aF0.29396129576350599
aaa(lp3101
I283
a(lp3102
Vpelvis
p3103
aF0.25187177078245676
aa(lp3104
Vspine_01
p3105
aF0.30094352248967005
aa(lp3106
Vspine_02
p3107
aF0.14723698182019659
aa(lp3108
Vupperarm_l
p3109
aF0.14997386245383829
aa(lp3110
Vupperarm_twist_01_l
p3111
aF0.14997386245383829
aaa(lp3112
I284
a(lp3113
Vpelvis
p3114
aF0.18676941133863023
aa(lp3115
Vspine_01
p3116
aF0.34624705744654988
aa(lp3117
Vspine_02
p3118
aF0.226894887619146
aa(lp3119
Vupperarm_l
p3120
aF0.12004432179783699
aa(lp3121
Vupperarm_twist_01_l
p3122
aF0.12004432179783699
aaa(lp3123
I285
a(lp3124
Vpelvis
p3125
aF0.33152905036721997
aa(lp3126
Vspine_01
p3127
aF0.41841878302281205
aa(lp3128
Vspine_02
p3129
aF0.14916652274528253
aa(lp3130
Vupperarm_l
p3131
aF0.050442821932342674
aa(lp3132
Vupperarm_twist_01_l
p3133
aF0.050442821932342674
aaa(lp3134
I286
a(lp3135
Vpelvis
p3136
aF0.20882494813768027
aa(lp3137
Vspine_01
p3138
aF0.47259940462746458
aa(lp3139
Vspine_02
p3140
aF0.24477638255591522
aa(lp3141
Vupperarm_l
p3142
aF0.036899632339469926
aa(lp3143
Vupperarm_twist_01_l
p3144
aF0.036899632339469926
aaa(lp3145
I287
a(lp3146
Vroot
p3147
aF0.019546886562875961
aa(lp3148
Vpelvis
p3149
aF0.36465752727751771
aa(lp3150
Vspine_01
p3151
aF0.47802112051261536
aa(lp3152
Vspine_02
p3153
aF0.11986462780688181
aa(lp3154
Vupperarm_l
p3155
aF0.01790983784010922
aaa(lp3156
I288
a(lp3157
Vpelvis
p3158
aF0.21042650309915276
aa(lp3159
Vspine_01
p3160
aF0.53721604407627532
aa(lp3161
Vspine_02
p3162
aF0.21873806407606777
aa(lp3163
Vspine_03
p3164
aF0.018992797079927608
aa(lp3165
Vupperarm_l
p3166
aF0.014626591668576461
aaa(lp3167
I289
a(lp3168
Vroot
p3169
aF0.018679116258191387
aa(lp3170
Vpelvis
p3171
aF0.37835495524849944
aa(lp3172
Vspine_01
p3173
aF0.48332793718282235
aa(lp3174
Vspine_02
p3175
aF0.10722154580920228
aa(lp3176
Vspine_03
p3177
aF0.012416445501284474
aaa(lp3178
I290
a(lp3179
Vspine_01
p3180
aF0.11257350093859729
aa(lp3181
Vclavicle_l
p3182
aF0.091461095867759065
aa(lp3183
Vupperarm_l
p3184
aF0.34575873009154101
aa(lp3185
Vlowerarm_l
p3186
aF0.10444794301056173
aa(lp3187
Vupperarm_twist_01_l
p3188
aF0.34575873009154101
aaa(lp3189
I291
a(lp3190
Vspine_01
p3191
aF0.080391739684053345
aa(lp3192
Vspine_02
p3193
aF0.08056100521979058
aa(lp3194
Vclavicle_l
p3195
aF0.16896749570868089
aa(lp3196
Vupperarm_l
p3197
aF0.40099898835114256
aa(lp3198
Vupperarm_twist_01_l
p3199
aF0.2690807710363326
aaa(lp3200
I292
a(lp3201
Vspine_01
p3202
aF0.20998178730365052
aa(lp3203
Vspine_02
p3204
aF0.19394399108572849
aa(lp3205
Vclavicle_l
p3206
aF0.10495390662579585
aa(lp3207
Vupperarm_l
p3208
aF0.25383251498081544
aa(lp3209
Vupperarm_twist_01_l
p3210
aF0.23728780000400981
aaa(lp3211
I293
a(lp3212
Vspine_01
p3213
aF0.26746639712560982
aa(lp3214
Vspine_02
p3215
aF0.26746639712560982
aa(lp3216
Vclavicle_l
p3217
aF0.11623259676088753
aa(lp3218
Vupperarm_l
p3219
aF0.19904266426053427
aa(lp3220
Vupperarm_twist_01_l
p3221
aF0.14979194472735852
aaa(lp3222
I294
a(lp3223
Vpelvis
p3224
aF0.10461752718088807
aa(lp3225
Vspine_01
p3226
aF0.3942386078548441
aa(lp3227
Vspine_02
p3228
aF0.34019907287966628
aa(lp3229
Vupperarm_l
p3230
aF0.082270938978277683
aa(lp3231
Vupperarm_twist_01_l
p3232
aF0.078673853106323924
aaa(lp3233
I295
a(lp3234
Vpelvis
p3235
aF0.042552275691397377
aa(lp3236
Vspine_01
p3237
aF0.42650120398305974
aa(lp3238
Vspine_02
p3239
aF0.42637110109860565
aa(lp3240
Vspine_03
p3241
aF0.05876793914085654
aa(lp3242
Vupperarm_l
p3243
aF0.045807480086080661
aaa(lp3244
I296
a(lp3245
Vpelvis
p3246
aF0.087280532302465727
aa(lp3247
Vspine_01
p3248
aF0.48714331555967061
aa(lp3249
Vspine_02
p3250
aF0.37269892342639732
aa(lp3251
Vspine_03
p3252
aF0.030907646771976244
aa(lp3253
Vupperarm_l
p3254
aF0.02196958193949014
aaa(lp3255
I297
a(lp3256
Vpelvis
p3257
aF0.025807451404560779
aa(lp3258
Vspine_01
p3259
aF0.46592494008111324
aa(lp3260
Vspine_02
p3261
aF0.462677235989362
aa(lp3262
Vspine_03
p3263
aF0.031010310760464625
aa(lp3264
VWingL
p3265
aF0.014580061764499394
aaa(lp3266
I298
a(lp3267
Vpelvis
p3268
aF0.083566987456579617
aa(lp3269
Vspine_01
p3270
aF0.51643769075334789
aa(lp3271
Vspine_02
p3272
aF0.36333945404439111
aa(lp3273
Vspine_03
p3274
aF0.024703994483544298
aa(lp3275
VWingL
p3276
aF0.011951873262136993
aaa(lp3277
I299
a(lp3278
Vspine_01
p3279
aF0.018877023839286702
aa(lp3280
Vspine_02
p3281
aF0.020825902279179062
aa(lp3282
Vclavicle_l
p3283
aF0.17617400455740934
aa(lp3284
Vupperarm_l
p3285
aF0.6692783838774663
aa(lp3286
Vupperarm_twist_01_l
p3287
aF0.11484468544665861
aaa(lp3288
I300
a(lp3289
Vspine_03
p3290
aF0.028417822499510959
aa(lp3291
VWingL
p3292
aF0.028323398056573544
aa(lp3293
Vclavicle_l
p3294
aF0.33919726717770038
aa(lp3295
Vupperarm_l
p3296
aF0.54643871711321923
aa(lp3297
Vupperarm_twist_01_l
p3298
aF0.05762279515299594
aaa(lp3299
I301
a(lp3300
Vspine_01
p3301
aF0.10584895719085527
aa(lp3302
Vspine_02
p3303
aF0.11741069159362667
aa(lp3304
Vclavicle_l
p3305
aF0.23964422446653658
aa(lp3306
Vupperarm_l
p3307
aF0.37947403834314325
aa(lp3308
Vupperarm_twist_01_l
p3309
aF0.15762208840583825
aaa(lp3310
I302
a(lp3311
Vspine_02
p3312
aF0.18487224999066298
aa(lp3313
Vspine_03
p3314
aF0.14828637853691337
aa(lp3315
VWingL
p3316
aF0.13914367193314117
aa(lp3317
Vclavicle_l
p3318
aF0.24422151577538076
aa(lp3319
Vupperarm_l
p3320
aF0.28347618376390171
aaa(lp3321
I303
a(lp3322
Vspine_01
p3323
aF0.309191594070236
aa(lp3324
Vspine_02
p3325
aF0.34871484348050819
aa(lp3326
Vspine_03
p3327
aF0.1165815875087618
aa(lp3328
Vclavicle_l
p3329
aF0.097211392032103369
aa(lp3330
Vupperarm_l
p3331
aF0.12830058290839061
aaa(lp3332
I304
a(lp3333
Vspine_01
p3334
aF0.2017873263972827
aa(lp3335
Vspine_02
p3336
aF0.41827446767078336
aa(lp3337
Vspine_03
p3338
aF0.18854402526170688
aa(lp3339
VWingL
p3340
aF0.13280337860301913
aa(lp3341
Vupperarm_l
p3342
aF0.058590802067207938
aaa(lp3343
I305
a(lp3344
Vspine_01
p3345
aF0.40233032180076583
aa(lp3346
Vspine_02
p3347
aF0.46390943164994752
aa(lp3348
Vspine_03
p3349
aF0.073110793107310154
aa(lp3350
VWingL
p3351
aF0.03882720360256775
aa(lp3352
Vupperarm_l
p3353
aF0.021822249839408746
aaa(lp3354
I306
a(lp3355
Vspine_01
p3356
aF0.2098353599500562
aa(lp3357
Vspine_02
p3358
aF0.58987878708357966
aa(lp3359
Vspine_03
p3360
aF0.1269303513105299
aa(lp3361
VWingL
p3362
aF0.045547174225296028
aa(lp3363
VWingR
p3364
aF0.027808327430538259
aaa(lp3365
I307
a(lp3366
Vspine_01
p3367
aF0.43012030215375113
aa(lp3368
Vspine_02
p3369
aF0.4881077108560225
aa(lp3370
Vspine_03
p3371
aF0.048167374674595816
aa(lp3372
VWingL
p3373
aF0.01761448083709197
aa(lp3374
VWingR
p3375
aF0.015990131478538588
aaa(lp3376
I308
a(lp3377
Vspine_03
p3378
aF0.0057057681363103458
aa(lp3379
VWingL
p3380
aF0.0050775006081948629
aa(lp3381
Vclavicle_l
p3382
aF0.39633222952461988
aa(lp3383
Vupperarm_l
p3384
aF0.58796291937426048
aa(lp3385
Vupperarm_twist_01_l
p3386
aF0.0049215823566144384
aaa(lp3387
I309
a(lp3388
Vspine_02
p3389
aF0.009420910227004602
aa(lp3390
Vspine_03
p3391
aF0.030408429845551883
aa(lp3392
VWingL
p3393
aF0.029454245066973996
aa(lp3394
Vclavicle_l
p3395
aF0.4812371313133128
aa(lp3396
Vupperarm_l
p3397
aF0.44947928354715672
aaa(lp3398
I310
a(lp3399
Vspine_02
p3400
aF0.048058266375265821
aa(lp3401
Vspine_03
p3402
aF0.086431392527717879
aa(lp3403
VWingL
p3404
aF0.086413463891621287
aa(lp3405
Vclavicle_l
p3406
aF0.38662280768903323
aa(lp3407
Vupperarm_l
p3408
aF0.39247406951636177
aaa(lp3409
I311
a(lp3410
Vspine_02
p3411
aF0.070001563101537559
aa(lp3412
Vspine_03
p3413
aF0.34998669124029147
aa(lp3414
VWingL
p3415
aF0.34998669124029147
aa(lp3416
Vclavicle_l
p3417
aF0.12232944918785667
aa(lp3418
Vupperarm_l
p3419
aF0.10769560523002283
aaa(lp3420
I312
a(lp3421
Vspine_02
p3422
aF0.20303444497143736
aa(lp3423
Vspine_03
p3424
aF0.31564232597356207
aa(lp3425
VWingL
p3426
aF0.28677869675992079
aa(lp3427
Vclavicle_l
p3428
aF0.097175809188961307
aa(lp3429
Vupperarm_l
p3430
aF0.097368723106118549
aaa(lp3431
I313
a(lp3432
Vspine_02
p3433
aF0.067251546549255387
aa(lp3434
Vspine_03
p3435
aF0.5026597888700941
aa(lp3436
VWingL
p3437
aF0.41010187529386005
aa(lp3438
VWingR
p3439
aF0.011495201370249487
aa(lp3440
Vclavicle_l
p3441
aF0.0084915879165409942
aaa(lp3442
I314
a(lp3443
Vspine_01
p3444
aF0.043690334199178268
aa(lp3445
Vspine_02
p3446
aF0.37882152417016579
aa(lp3447
Vspine_03
p3448
aF0.35236398584739614
aa(lp3449
VWingL
p3450
aF0.1856772238131536
aa(lp3451
VWingR
p3452
aF0.039446931970106049
aaa(lp3453
I315
a(lp3454
Vspine_01
p3455
aF0.0040944595067969455
aa(lp3456
Vspine_02
p3457
aF0.23592315022053154
aa(lp3458
Vspine_03
p3459
aF0.5861437581055805
aa(lp3460
VWingL
p3461
aF0.14144625828861346
aa(lp3462
VWingR
p3463
aF0.032392373878477605
aaa(lp3464
I316
a(lp3465
Vspine_01
p3466
aF0.047099905259610678
aa(lp3467
Vspine_02
p3468
aF0.57001992206523711
aa(lp3469
Vspine_03
p3470
aF0.2750977571548372
aa(lp3471
VWingL
p3472
aF0.05999203765398136
aa(lp3473
VWingR
p3474
aF0.047790377866333722
aaa(lp3475
I317
a(lp3476
Vspine_02
p3477
aF0.0038858926235073284
aa(lp3478
Vspine_03
p3479
aF0.046259777370751945
aa(lp3480
VWingL
p3481
aF0.017168348111550252
aa(lp3482
Vclavicle_l
p3483
aF0.7946032660921436
aa(lp3484
Vupperarm_l
p3485
aF0.13808271580204692
aaa(lp3486
I318
a(lp3487
Vspine_02
p3488
aF0.0099889912487719258
aa(lp3489
Vspine_03
p3490
aF0.43625381345601172
aa(lp3491
VWingL
p3492
aF0.085063742481814211
aa(lp3493
Vclavicle_l
p3494
aF0.4377886114833458
aa(lp3495
Vupperarm_l
p3496
aF0.030904841330056346
aaa(lp3497
I319
a(lp3498
Vspine_02
p3499
aF0.032218857540121083
aa(lp3500
Vspine_03
p3501
aF0.30808571601041934
aa(lp3502
VWingL
p3503
aF0.30808571601041934
aa(lp3504
Vclavicle_l
p3505
aF0.24772935033924087
aa(lp3506
Vupperarm_l
p3507
aF0.10388036009979931
aaa(lp3508
I320
a(lp3509
Vspine_02
p3510
aF0.010349247409147846
aa(lp3511
Vspine_03
p3512
aF0.47820041416176845
aa(lp3513
VWingL
p3514
aF0.47820041416176845
aa(lp3515
Vclavicle_l
p3516
aF0.027755860772046698
aa(lp3517
Vupperarm_l
p3518
aF0.0054940634952685271
aaa(lp3519
I321
a(lp3520
Vspine_02
p3521
aF0.0062370449850740082
aa(lp3522
Vspine_03
p3523
aF0.4944452502157814
aa(lp3524
VWingL
p3525
aF0.4944452502157814
aa(lp3526
VWingR
p3527
aF0.0016603339729006307
aa(lp3528
Vclavicle_l
p3529
aF0.0032121206104625999
aaa(lp3530
I322
a(lp3531
Vspine_03
p3532
aF0.49969643907578298
aa(lp3533
VWingL
p3534
aF0.49969643907578298
aaa(lp3535
I323
a(lp3536
Vspine_02
p3537
aF0.0029093694843888387
aa(lp3538
Vspine_03
p3539
aF0.76900782145626134
aa(lp3540
VWingL
p3541
aF0.22699348809215342
aaa(lp3542
I324
a(lp3543
Vspine_02
p3544
aF0.02938080412855119
aa(lp3545
Vspine_03
p3546
aF0.62212037327407244
aa(lp3547
VWingL
p3548
aF0.30883884920558619
aa(lp3549
VWingR
p3550
aF0.03754934376875696
aa(lp3551
Vclavicle_l
p3552
aF0.0021106296230333733
aaa(lp3553
I325
a(lp3554
Vspine_02
p3555
aF0.1467311143115978
aa(lp3556
Vspine_03
p3557
aF0.66231533833578948
aa(lp3558
VWingL
p3559
aF0.11396791467141641
aa(lp3560
VWingR
p3561
aF0.075321001337893753
aa(lp3562
Vclavicle_l
p3563
aF0.0016646313433024964
aaa(lp3564
I326
a(lp3565
Vspine_02
p3566
aF0.0013849341001400096
aa(lp3567
Vspine_03
p3568
aF0.68643110189982803
aa(lp3569
VWingL
p3570
aF0.00822154726147524
aa(lp3571
Vclavicle_l
p3572
aF0.30122387651631854
aa(lp3573
Vupperarm_l
p3574
aF0.0027385402222382224
aaa(lp3575
I327
a(lp3576
Vspine_02
p3577
aF0.0020129293894004855
aa(lp3578
Vspine_03
p3579
aF0.81897085256650626
aa(lp3580
VWingL
p3581
aF0.010534448747221297
aa(lp3582
VWingR
p3583
aF0.0016567430865670049
aa(lp3584
Vclavicle_l
p3585
aF0.16682502621030487
aaa(lp3586
I328
a(lp3587
Vspine_02
p3588
aF0.0085638799940432556
aa(lp3589
Vspine_03
p3590
aF0.74940516199642637
aa(lp3591
VWingL
p3592
aF0.10560488532753211
aa(lp3593
Vclavicle_l
p3594
aF0.13025849300083692
aa(lp3595
Vupperarm_l
p3596
aF0.0061675796811613594
aaa(lp3597
I329
a(lp3598
Vspine_02
p3599
aF0.012868687017668398
aa(lp3600
Vspine_03
p3601
aF0.75098563571139731
aa(lp3602
VWingL
p3603
aF0.10313593956136764
aa(lp3604
VWingR
p3605
aF0.012297334141916983
aa(lp3606
Vclavicle_l
p3607
aF0.12071240356764967
aaa(lp3608
I330
a(lp3609
Vspine_02
p3610
aF0.014157990334405407
aa(lp3611
Vspine_03
p3612
aF0.47386491905783773
aa(lp3613
VWingL
p3614
aF0.47386491905783762
aa(lp3615
VWingR
p3616
aF0.010603250322383014
aa(lp3617
Vclavicle_l
p3618
aF0.027508921227536204
aaa(lp3619
I331
a(lp3620
Vspine_02
p3621
aF0.038165895552252221
aa(lp3622
Vspine_03
p3623
aF0.53569225982197211
aa(lp3624
VWingL
p3625
aF0.29890628317835433
aa(lp3626
VWingR
p3627
aF0.053576686234759877
aa(lp3628
Vclavicle_l
p3629
aF0.073658875212661484
aaa(lp3630
I332
a(lp3631
Vspine_02
p3632
aF0.02623183048574089
aa(lp3633
Vspine_03
p3634
aF0.47171950085247166
aa(lp3635
VWingL
p3636
aF0.45392210580678294
aa(lp3637
VWingR
p3638
aF0.037034992773916045
aa(lp3639
Vclavicle_l
p3640
aF0.01109157008108836
aaa(lp3641
I333
a(lp3642
Vspine_02
p3643
aF0.076360541911130328
aa(lp3644
Vspine_03
p3645
aF0.38551388061325925
aa(lp3646
VWingL
p3647
aF0.27390859084740626
aa(lp3648
VWingR
p3649
aF0.21814485532323422
aa(lp3650
Vclavicle_l
p3651
aF0.046072131304969982
aaa(lp3652
I334
a(lp3653
Vspine_02
p3654
aF0.073589718027181408
aa(lp3655
Vspine_03
p3656
aF0.35729830551559572
aa(lp3657
VWingL
p3658
aF0.23490842415089461
aa(lp3659
VWingR
p3660
aF0.3231152537440124
aa(lp3661
Vclavicle_l
p3662
aF0.011088298562315795
aaa(lp3663
I335
a(lp3664
Vspine_03
p3665
aF0.66247650894511423
aa(lp3666
VWingL
p3667
aF0.010136540253347212
aa(lp3668
Vclavicle_l
p3669
aF0.32040391590210537
aa(lp3670
Vclavicle_r
p3671
aF0.0032824304362201046
aa(lp3672
Vneck_01
p3673
aF0.0037006044632130631
aaa(lp3674
I336
a(lp3675
Vspine_03
p3676
aF0.60619644218614299
aa(lp3677
VWingL
p3678
aF0.028149346567277588
aa(lp3679
Vclavicle_l
p3680
aF0.32712395439272857
aa(lp3681
Vclavicle_r
p3682
aF0.021521523598008255
aa(lp3683
Vneck_01
p3684
aF0.017008733255842561
aaa(lp3685
I337
a(lp3686
Vspine_02
p3687
aF0.0089343585218338382
aa(lp3688
Vspine_03
p3689
aF0.72194404041869298
aa(lp3690
VWingL
p3691
aF0.03322707256217191
aa(lp3692
VWingR
p3693
aF0.010338497009171934
aa(lp3694
Vclavicle_l
p3695
aF0.22555603148812933
aaa(lp3696
I338
a(lp3697
Vspine_03
p3698
aF0.61400385191184348
aa(lp3699
VWingL
p3700
aF0.053197653227573832
aa(lp3701
VWingR
p3702
aF0.033011022060341656
aa(lp3703
Vclavicle_l
p3704
aF0.26337108211076199
aa(lp3705
Vclavicle_r
p3706
aF0.036416390689478974
aaa(lp3707
I339
a(lp3708
Vspine_02
p3709
aF0.02522153949898031
aa(lp3710
Vspine_03
p3711
aF0.6733988571734516
aa(lp3712
VWingL
p3713
aF0.098246394369518
aa(lp3714
VWingR
p3715
aF0.036695142577228376
aa(lp3716
Vclavicle_l
p3717
aF0.16643806638082176
aaa(lp3718
I340
a(lp3719
Vspine_03
p3720
aF0.56780944605262429
aa(lp3721
VWingL
p3722
aF0.085341434354889334
aa(lp3723
VWingR
p3724
aF0.070830923090393516
aa(lp3725
Vclavicle_l
p3726
aF0.20810062619775579
aa(lp3727
Vclavicle_r
p3728
aF0.067917570304337066
aaa(lp3729
I341
a(lp3730
Vspine_02
p3731
aF0.053822767097122276
aa(lp3732
Vspine_03
p3733
aF0.54911832223616619
aa(lp3734
VWingL
p3735
aF0.16150568283587041
aa(lp3736
VWingR
p3737
aF0.11544932680026826
aa(lp3738
Vclavicle_l
p3739
aF0.12010390103057288
aaa(lp3740
I342
a(lp3741
Vspine_03
p3742
aF0.47507576391252276
aa(lp3743
VWingL
p3744
aF0.10248799183918959
aa(lp3745
VWingR
p3746
aF0.13445856266652023
aa(lp3747
Vclavicle_l
p3748
aF0.15960696899273058
aa(lp3749
Vclavicle_r
p3750
aF0.12837071258903679
aaa(lp3751
I343
a(lp3752
Vspine_03
p3753
aF0.40765918782164229
aa(lp3754
VWingL
p3755
aF0.15851041599698601
aa(lp3756
VWingR
p3757
aF0.26087860064191132
aa(lp3758
Vclavicle_l
p3759
aF0.086233263716927203
aa(lp3760
Vclavicle_r
p3761
aF0.086718531822533196
aaa(lp3762
I344
a(lp3763
Vroot
p3764
aF0.0067667432017195946
aa(lp3765
VTail1
p3766
aF0.030299830601543825
aa(lp3767
VTail2
p3768
aF0.4784840956793977
aa(lp3769
VTail3
p3770
aF0.4784840956793977
aa(lp3771
Vcalf_l
p3772
aF0.0059652348379411711
aaa(lp3773
I345
a(lp3774
Vroot
p3775
aF0.0071469168828994191
aa(lp3776
VTail1
p3777
aF0.030949191007222873
aa(lp3778
VTail2
p3779
aF0.47774347178189058
aa(lp3780
VTail3
p3781
aF0.47774347178189058
aa(lp3782
Vcalf_l
p3783
aF0.0064169485460964966
aaa(lp3784
I346
a(lp3785
Vroot
p3786
aF0.0065429746949569687
aa(lp3787
VTail1
p3788
aF0.030248539062132179
aa(lp3789
VTail2
p3790
aF0.47879417845055383
aa(lp3791
VTail3
p3792
aF0.47879417845055383
aa(lp3793
Vcalf_l
p3794
aF0.0056201293418032885
aaa(lp3795
I347
a(lp3796
Vroot
p3797
aF0.0063413001175175185
aa(lp3798
VTail1
p3799
aF0.029983738064265273
aa(lp3800
VTail2
p3801
aF0.47918696223355106
aa(lp3802
VTail3
p3803
aF0.47918696223355106
aa(lp3804
Vcalf_l
p3805
aF0.0053010373511150595
aaa(lp3806
I348
a(lp3807
Vroot
p3808
aF0.0064099315134088499
aa(lp3809
VTail1
p3810
aF0.030316016991428052
aa(lp3811
VTail2
p3812
aF0.47900297948395892
aa(lp3813
VTail3
p3814
aF0.47900297948395892
aa(lp3815
Vcalf_l
p3816
aF0.0052680925272452191
aaa(lp3817
I349
a(lp3818
Vspine_03
p3819
aF0.48781360813261471
aa(lp3820
VWingL
p3821
aF0.036992009999969926
aa(lp3822
Vclavicle_l
p3823
aF0.33371708725919741
aa(lp3824
Vclavicle_r
p3825
aF0.084794785856539379
aa(lp3826
Vneck_01
p3827
aF0.056682508751678601
aaa(lp3828
I350
a(lp3829
Vspine_03
p3830
aF0.51043118557451317
aa(lp3831
VWingL
p3832
aF0.04401236594690644
aa(lp3833
Vclavicle_l
p3834
aF0.30532405954328057
aa(lp3835
Vclavicle_r
p3836
aF0.090808574559830393
aa(lp3837
Vneck_01
p3838
aF0.049423814375469534
aaa(lp3839
I351
a(lp3840
Vspine_03
p3841
aF0.49755529229163969
aa(lp3842
VWingL
p3843
aF0.055229679154245613
aa(lp3844
VWingR
p3845
aF0.057621748720042651
aa(lp3846
Vclavicle_l
p3847
aF0.26815630960403464
aa(lp3848
Vclavicle_r
p3849
aF0.1214369702300373
aaa(lp3850
I352
a(lp3851
Vspine_03
p3852
aF0.45435338807513725
aa(lp3853
VWingL
p3854
aF0.063856490753074202
aa(lp3855
VWingR
p3856
aF0.080141524370407266
aa(lp3857
Vclavicle_l
p3858
aF0.22733915728965948
aa(lp3859
Vclavicle_r
p3860
aF0.17430943951172181
aaa(lp3861
I353
a(lp3862
Vspine_03
p3863
aF0.44161995186737146
aa(lp3864
VWingL
p3865
aF0.05951041061509698
aa(lp3866
VWingR
p3867
aF0.088639944287607991
aa(lp3868
Vclavicle_l
p3869
aF0.18293645126793945
aa(lp3870
Vclavicle_r
p3871
aF0.22729324196198417
aaa(lp3872
I354
a(lp3873
Vroot
p3874
aF0.0080680665048810298
aa(lp3875
VTail1
p3876
aF0.035310491850151254
aa(lp3877
VTail2
p3878
aF0.47449040314301422
aa(lp3879
VTail3
p3880
aF0.47449040314301422
aa(lp3881
Vcalf_l
p3882
aF0.0076406353589393398
aaa(lp3883
I355
a(lp3884
Vroot
p3885
aF0.0080543655696471098
aa(lp3886
VTail1
p3887
aF0.036930210335967419
aa(lp3888
VTail2
p3889
aF0.47340649349495206
aa(lp3890
VTail3
p3891
aF0.47340649349495206
aa(lp3892
Vcalf_l
p3893
aF0.008202437104481302
aaa(lp3894
I356
a(lp3895
Vroot
p3896
aF0.0050422266416335643
aa(lp3897
Vpelvis
p3898
aF0.004272011313650975
aa(lp3899
VTail1
p3900
aF0.033294288351126501
aa(lp3901
VTail2
p3902
aF0.47869573684679451
aa(lp3903
VTail3
p3904
aF0.47869573684679451
aaa(lp3905
I357
a(lp3906
Vroot
p3907
aF0.0064774881947275501
aa(lp3908
VTail1
p3909
aF0.033804651837156141
aa(lp3910
VTail2
p3911
aF0.47729050123046335
aa(lp3912
VTail3
p3913
aF0.47729050123046335
aa(lp3914
Vcalf_l
p3915
aF0.0051368575071896226
aaa(lp3916
I358
a(lp3917
Vroot
p3918
aF0.0081995786140990016
aa(lp3919
VTail1
p3920
aF0.042187739577272058
aa(lp3921
VTail2
p3922
aF0.47043794326499533
aa(lp3923
VTail3
p3924
aF0.47043794326499533
aa(lp3925
Vcalf_l
p3926
aF0.0087367952786382569
aaa(lp3927
I359
a(lp3928
Vroot
p3929
aF0.00355140300845603
aa(lp3930
Vpelvis
p3931
aF0.003220549935434885
aa(lp3932
VTail1
p3933
aF0.033827774008593783
aa(lp3934
VTail2
p3935
aF0.4797001365237577
aa(lp3936
VTail3
p3937
aF0.4797001365237577
aaa(lp3938
I360
a(lp3939
VTail1
p3940
aF0.089049749562726793
aa(lp3941
VTail2
p3942
aF0.44407254988616202
aa(lp3943
VTail3
p3944
aF0.43760158352769313
aa(lp3945
Vthigh_l
p3946
aF0.0149246661116461
aa(lp3947
Vcalf_l
p3948
aF0.014351450911772009
aaa(lp3949
I361
a(lp3950
Vroot
p3951
aF0.0052157271815759659
aa(lp3952
Vpelvis
p3953
aF0.0060140363977161564
aa(lp3954
VTail1
p3955
aF0.10064926299437166
aa(lp3956
VTail2
p3957
aF0.56955277517598479
aa(lp3958
VTail3
p3959
aF0.31856819825035154
aaa(lp3960
I362
a(lp3961
VTail1
p3962
aF0.24650593199006693
aa(lp3963
VTail2
p3964
aF0.42245352589953666
aa(lp3965
VTail3
p3966
aF0.26097724082721585
aa(lp3967
Vthigh_l
p3968
aF0.039609055429255968
aa(lp3969
Vcalf_l
p3970
aF0.030454245853924696
aaa(lp3971
I363
a(lp3972
Vroot
p3973
aF0.0089531602021229364
aa(lp3974
Vpelvis
p3975
aF0.016331025373824307
aa(lp3976
VTail1
p3977
aF0.37180551648099608
aa(lp3978
VTail2
p3979
aF0.52729755354003771
aa(lp3980
VTail3
p3981
aF0.075612744403019058
aaa(lp3982
I364
a(lp3983
Vpelvis
p3984
aF0.075681886602827028
aa(lp3985
VTail1
p3986
aF0.34910153934214344
aa(lp3987
VTail2
p3988
aF0.34978146319886827
aa(lp3989
VTail3
p3990
aF0.091216870353266713
aa(lp3991
Vthigh_l
p3992
aF0.13421824050289449
aaa(lp3993
I365
a(lp3994
Vroot
p3995
aF0.021828015569325742
aa(lp3996
Vpelvis
p3997
aF0.084029201933425973
aa(lp3998
VTail1
p3999
aF0.50965094197026373
aa(lp4000
VTail2
p4001
aF0.36193679348861763
aa(lp4002
VTail3
p4003
aF0.022555047038366936
aaa(lp4004
I366
a(lp4005
Vroot
p4006
aF0.093047632731074234
aa(lp4007
Vpelvis
p4008
aF0.11217142207921384
aa(lp4009
VTail1
p4010
aF0.19253139918454557
aa(lp4011
VTail2
p4012
aF0.1404864883843038
aa(lp4013
Vthigh_l
p4014
aF0.46176305762086256
aaa(lp4015
I367
a(lp4016
Vroot
p4017
aF0.050885703483842547
aa(lp4018
Vpelvis
p4019
aF0.32415014158458832
aa(lp4020
VTail1
p4021
aF0.48848225309598842
aa(lp4022
VTail2
p4023
aF0.11905551337297034
aa(lp4024
Vthigh_r
p4025
aF0.017426388462610343
aaa(lp4026
I368
a(lp4027
Vroot
p4028
aF0.038185392454378339
aa(lp4029
Vpelvis
p4030
aF0.20530208002764588
aa(lp4031
VTail1
p4032
aF0.042402855860541877
aa(lp4033
VTail2
p4034
aF0.01443915396840852
aa(lp4035
Vthigh_l
p4036
aF0.69967051768902544
aaa(lp4037
I369
a(lp4038
Vroot
p4039
aF0.098136174869323578
aa(lp4040
Vpelvis
p4041
aF0.41838401944484843
aa(lp4042
VTail1
p4043
aF0.41075471909009614
aa(lp4044
VTail2
p4045
aF0.045747662704257244
aa(lp4046
Vthigh_r
p4047
aF0.026977423891474641
aaa(lp4048
I370
a(lp4049
Vroot
p4050
aF0.044033173278109364
aa(lp4051
Vpelvis
p4052
aF0.45597587998795119
aa(lp4053
VTail1
p4054
aF0.03315038131650503
aa(lp4055
Vlowerarm_l
p4056
aF0.010864685429483177
aa(lp4057
Vthigh_l
p4058
aF0.45597587998795119
aaa(lp4059
I371
a(lp4060
Vroot
p4061
aF0.23849043001843742
aa(lp4062
Vpelvis
p4063
aF0.42930953484840217
aa(lp4064
VTail1
p4065
aF0.24703365421080417
aa(lp4066
Vthigh_l
p4067
aF0.044509619757710776
aa(lp4068
Vthigh_r
p4069
aF0.040656761164645526
aaa(lp4070
I372
a(lp4071
Vroot
p4072
aF0.049026308753557464
aa(lp4073
Vpelvis
p4074
aF0.39929757306126679
aa(lp4075
Vlowerarm_l
p4076
aF0.075430399227953901
aa(lp4077
Vlowerarm_twist_01_l
p4078
aF0.07485161649639005
aa(lp4079
Vthigh_l
p4080
aF0.4013941024608319
aaa(lp4081
I373
a(lp4082
Vroot
p4083
aF0.3956736593248778
aa(lp4084
Vpelvis
p4085
aF0.42171709823318748
aa(lp4086
VTail1
p4087
aF0.073620118884141578
aa(lp4088
Vspine_01
p4089
aF0.069513847162256753
aa(lp4090
Vthigh_l
p4091
aF0.039475276395536545
aaa(lp4092
I374
a(lp4093
Vpelvis
p4094
aF0.20240771045348591
aa(lp4095
Vspine_01
p4096
aF0.13249883026677228
aa(lp4097
Vlowerarm_l
p4098
aF0.27137063666434252
aa(lp4099
Vlowerarm_twist_01_l
p4100
aF0.16619609163379057
aa(lp4101
Vthigh_l
p4102
aF0.22752673098160875
aaa(lp4103
I375
a(lp4104
Vroot
p4105
aF0.16543873554359306
aa(lp4106
Vpelvis
p4107
aF0.50954485342290079
aa(lp4108
VTail1
p4109
aF0.021625031659968191
aa(lp4110
Vspine_01
p4111
aF0.28028825869120466
aa(lp4112
Vspine_02
p4113
aF0.023103120682333375
aaa(lp4114
I376
a(lp4115
Vpelvis
p4116
aF0.18400849187034113
aa(lp4117
Vspine_01
p4118
aF0.18578669715349419
aa(lp4119
Vupperarm_l
p4120
aF0.20682559471840323
aa(lp4121
Vlowerarm_l
p4122
aF0.21655362153935834
aa(lp4123
Vupperarm_twist_01_l
p4124
aF0.20682559471840323
aaa(lp4125
I377
a(lp4126
Vroot
p4127
aF0.03850540116913418
aa(lp4128
Vpelvis
p4129
aF0.4450354941936846
aa(lp4130
Vspine_01
p4131
aF0.44507573123626826
aa(lp4132
Vspine_02
p4133
aF0.06163041533095763
aa(lp4134
Vupperarm_l
p4135
aF0.009752958069955386
aaa(lp4136
I378
a(lp4137
Vpelvis
p4138
aF0.13801356944286217
aa(lp4139
Vspine_01
p4140
aF0.17100648954387923
aa(lp4141
Vupperarm_l
p4142
aF0.28498825120934218
aa(lp4143
Vlowerarm_l
p4144
aF0.12100343859457426
aa(lp4145
Vupperarm_twist_01_l
p4146
aF0.28498825120934218
aaa(lp4147
I379
a(lp4148
Vpelvis
p4149
aF0.22420675550384156
aa(lp4150
Vspine_01
p4151
aF0.51223738375825678
aa(lp4152
Vspine_02
p4153
aF0.22779963680620935
aa(lp4154
Vspine_03
p4155
aF0.022243766557397179
aa(lp4156
Vupperarm_l
p4157
aF0.01351245737429514
aaa(lp4158
I380
a(lp4159
Vspine_01
p4160
aF0.02823434933464725
aa(lp4161
Vspine_02
p4162
aF0.028416717728034363
aa(lp4163
Vclavicle_l
p4164
aF0.12084649365966303
aa(lp4165
Vupperarm_l
p4166
aF0.63532528826290036
aa(lp4167
Vupperarm_twist_01_l
p4168
aF0.18717715101475513
aaa(lp4169
I381
a(lp4170
Vpelvis
p4171
aF0.030765465023739166
aa(lp4172
Vspine_01
p4173
aF0.46018038616574641
aa(lp4174
Vspine_02
p4175
aF0.45747105498292312
aa(lp4176
Vspine_03
p4177
aF0.035983074552837689
aa(lp4178
VWingL
p4179
aF0.01560001927475361
aaa(lp4180
I382
a(lp4181
Vspine_03
p4182
aF0.0064963988237371735
aa(lp4183
VWingL
p4184
aF0.006209759696190721
aa(lp4185
Vclavicle_l
p4186
aF0.16106194146656036
aa(lp4187
Vupperarm_l
p4188
aF0.80600162402203002
aa(lp4189
Vupperarm_twist_01_l
p4190
aF0.020230275991481726
aaa(lp4191
I383
a(lp4192
Vspine_01
p4193
aF0.22944819383779577
aa(lp4194
Vspine_02
p4195
aF0.56557139610596063
aa(lp4196
Vspine_03
p4197
aF0.12910616399909322
aa(lp4198
VWingL
p4199
aF0.038939308362987257
aa(lp4200
VWingR
p4201
aF0.036934937694162964
aaa(lp4202
I384
a(lp4203
Vspine_03
p4204
aF0.0040707559840853962
aa(lp4205
VWingL
p4206
aF0.0026910954736012126
aa(lp4207
Vclavicle_l
p4208
aF0.5002414337187775
aa(lp4209
Vupperarm_l
p4210
aF0.49203028088351575
aaa(lp4211
I385
a(lp4212
Vspine_01
p4213
aF0.0087860738066675072
aa(lp4214
Vspine_02
p4215
aF0.37672072127872547
aa(lp4216
Vspine_03
p4217
aF0.44410336376410392
aa(lp4218
VWingL
p4219
aF0.088645315696969817
aa(lp4220
VWingR
p4221
aF0.081744525453533362
aaa(lp4222
I386
a(lp4223
Vspine_02
p4224
aF0.0031172214425840743
aa(lp4225
Vspine_03
p4226
aF0.1785879146308347
aa(lp4227
VWingL
p4228
aF0.018046570963195778
aa(lp4229
Vclavicle_l
p4230
aF0.77500862094675038
aa(lp4231
Vupperarm_l
p4232
aF0.025239672016635042
aaa(lp4233
I387
a(lp4234
Vspine_02
p4235
aF0.086701344319863358
aa(lp4236
Vspine_03
p4237
aF0.42127105377544
aa(lp4238
VWingL
p4239
aF0.19611077569160654
aa(lp4240
VWingR
p4241
aF0.29214444250405075
aa(lp4242
Vclavicle_l
p4243
aF0.0037723837090392833
aaa(lp4244
I388
a(lp4245
Vspine_03
p4246
aF0.66162170520190355
aa(lp4247
VWingL
p4248
aF0.0042107432140211813
aa(lp4249
Vclavicle_l
p4250
aF0.33219726987818349
aa(lp4251
Vupperarm_l
p4252
aF0.0010736374442866924
aaa(lp4253
I389
a(lp4254
Vspine_02
p4255
aF0.069870598092154956
aa(lp4256
Vspine_03
p4257
aF0.36043870753325774
aa(lp4258
VWingL
p4259
aF0.18050893815650773
aa(lp4260
VWingR
p4261
aF0.36043870753325763
aa(lp4262
Vclavicle_r
p4263
aF0.028743048684821991
aaa(lp4264
I390
a(lp4265
Vspine_03
p4266
aF0.54375899837133612
aa(lp4267
VWingL
p4268
aF0.022956170807031776
aa(lp4269
Vclavicle_l
p4270
aF0.39579082429089435
aa(lp4271
Vclavicle_r
p4272
aF0.019191312711510936
aa(lp4273
Vneck_01
p4274
aF0.018302693819226647
aaa(lp4275
I391
a(lp4276
Vspine_03
p4277
aF0.43377997165506454
aa(lp4278
VWingL
p4279
aF0.099453337734858205
aa(lp4280
VWingR
p4281
aF0.16306833012469446
aa(lp4282
Vclavicle_l
p4283
aF0.13505609406607774
aa(lp4284
Vclavicle_r
p4285
aF0.16864226641930496
aaa(lp4286
I392
a(lp4287
Vroot
p4288
aF0.0074841962641012689
aa(lp4289
VTail1
p4290
aF0.032562699934343117
aa(lp4291
VTail2
p4292
aF0.47675746566332317
aa(lp4293
VTail3
p4294
aF0.47675746566332317
aa(lp4295
Vcalf_l
p4296
aF0.0064381724749092541
aaa(lp4297
I393
a(lp4298
Vspine_03
p4299
aF0.40046788108708192
aa(lp4300
VWingR
p4301
aF0.056332604365095629
aa(lp4302
Vclavicle_l
p4303
aF0.24146196224070501
aa(lp4304
Vclavicle_r
p4305
aF0.21675087654961475
aa(lp4306
Vneck_01
p4307
aF0.084986675757502642
aaa(lp4308
I394
a(lp4309
Vroot
p4310
aF0.0088476988067293892
aa(lp4311
VTail1
p4312
aF0.040018917303843896
aa(lp4313
VTail2
p4314
aF0.47140695793489207
aa(lp4315
VTail3
p4316
aF0.47140695793489185
aa(lp4317
Vcalf_l
p4318
aF0.0083194680196428134
aaa(lp4319
I395
a(lp4320
Vroot
p4321
aF0.008517540795052337
aa(lp4322
VTail1
p4323
aF0.041865595860127947
aa(lp4324
VTail2
p4325
aF0.47082273676634079
aa(lp4326
VTail3
p4327
aF0.47082273676634068
aa(lp4328
Vcalf_l
p4329
aF0.0079713898121382444
aaa(lp4330
I396
a(lp4331
Vroot
p4332
aF0.0086562237499446491
aa(lp4333
VTail1
p4334
aF0.042334175305329735
aa(lp4335
VTail2
p4336
aF0.47022105288259036
aa(lp4337
VTail3
p4338
aF0.47022105288259058
aa(lp4339
Vcalf_l
p4340
aF0.0085674951795446375
aaa(lp4341
I397
a(lp4342
Vroot
p4343
aF0.0087758754845855304
aa(lp4344
VTail1
p4345
aF0.03957745995059779
aa(lp4346
VTail2
p4347
aF0.4714957885398473
aa(lp4348
VTail3
p4349
aF0.4714957885398473
aa(lp4350
Vcalf_l
p4351
aF0.0086550874851221895
aaa(lp4352
I398
a(lp4353
Vroot
p4354
aF0.0083945908561430995
aa(lp4355
VTail1
p4356
aF0.040553438987805578
aa(lp4357
VTail2
p4358
aF0.47175991395202788
aa(lp4359
VTail3
p4360
aF0.47175991395202788
aa(lp4361
Vcalf_l
p4362
aF0.0075321422519956417
aaa(lp4363
I399
a(lp4364
Vroot
p4365
aF0.007946838229334131
aa(lp4366
VTail1
p4367
aF0.042446001934219164
aa(lp4368
VTail2
p4369
aF0.4713148241822559
aa(lp4370
VTail3
p4371
aF0.47131482418225579
aa(lp4372
Vcalf_l
p4373
aF0.0069775114719350072
aaa(lp4374
I400
a(lp4375
Vroot
p4376
aF0.0080290803021811474
aa(lp4377
VTail1
p4378
aF0.044391489668327518
aa(lp4379
VTail2
p4380
aF0.47012564357247577
aa(lp4381
VTail3
p4382
aF0.47012564357247599
aa(lp4383
Vcalf_l
p4384
aF0.0073281428845394575
aaa(lp4385
I401
a(lp4386
Vroot
p4387
aF0.0078976241473700422
aa(lp4388
VTail1
p4389
aF0.040158727369336497
aa(lp4390
VTail2
p4391
aF0.47260857579292198
aa(lp4392
VTail3
p4393
aF0.47260857579292198
aa(lp4394
Vcalf_l
p4395
aF0.0067264968974494318
aaa(lp4396
I402
a(lp4397
Vroot
p4398
aF0.0071471646732989072
aa(lp4399
Vpelvis
p4400
aF0.0059901260591639447
aa(lp4401
VTail1
p4402
aF0.040344138865408614
aa(lp4403
VTail2
p4404
aF0.47325928520106431
aa(lp4405
VTail3
p4406
aF0.47325928520106431
aaa(lp4407
I403
a(lp4408
Vroot
p4409
aF0.0070600099744598964
aa(lp4410
Vpelvis
p4411
aF0.0060474179001844671
aa(lp4412
VTail1
p4413
aF0.042835868007572338
aa(lp4414
VTail2
p4415
aF0.47202835205889171
aa(lp4416
VTail3
p4417
aF0.4720283520588916
aaa(lp4418
I404
a(lp4419
Vroot
p4420
aF0.0074316002431709573
aa(lp4421
VTail1
p4422
aF0.038780248032039652
aa(lp4423
VTail2
p4424
aF0.47388065887043507
aa(lp4425
VTail3
p4426
aF0.47388065887043507
aa(lp4427
Vcalf_l
p4428
aF0.0060268339839192305
aaa(lp4429
I405
a(lp4430
Vroot
p4431
aF0.0064443995510374023
aa(lp4432
Vpelvis
p4433
aF0.0054024868368052507
aa(lp4434
VTail1
p4435
aF0.037433618404880159
aa(lp4436
VTail2
p4437
aF0.47535974760363864
aa(lp4438
VTail3
p4439
aF0.47535974760363864
aaa(lp4440
I406
a(lp4441
Vroot
p4442
aF0.006055650674572372
aa(lp4443
Vpelvis
p4444
aF0.005286153244145237
aa(lp4445
VTail1
p4446
aF0.039176827818033957
aa(lp4447
VTail2
p4448
aF0.47474068413162424
aa(lp4449
VTail3
p4450
aF0.47474068413162424
aaa(lp4451
I407
a(lp4452
Vroot
p4453
aF0.0081057912426795321
aa(lp4454
VTail1
p4455
aF0.04531182438220905
aa(lp4456
VTail2
p4457
aF0.46940267384666545
aa(lp4458
VTail3
p4459
aF0.46940267384666545
aa(lp4460
Vcalf_l
p4461
aF0.0077770366817805211
aaa(lp4462
I408
a(lp4463
Vroot
p4464
aF0.0088086027985127876
aa(lp4465
VTail1
p4466
aF0.049249819262546957
aa(lp4467
VTail2
p4468
aF0.46645956921374787
aa(lp4469
VTail3
p4470
aF0.46645956921374787
aa(lp4471
Vcalf_l
p4472
aF0.0090224395114445119
aaa(lp4473
I409
a(lp4474
Vroot
p4475
aF0.0086347670475468916
aa(lp4476
VTail1
p4477
aF0.041926642956165265
aa(lp4478
VTail2
p4479
aF0.470202368253964
aa(lp4480
VTail3
p4481
aF0.47020236825396389
aa(lp4482
Vcalf_l
p4483
aF0.0090338534883599719
aaa(lp4484
I410
a(lp4485
Vroot
p4486
aF0.0071056715068980383
aa(lp4487
VTail1
p4488
aF0.045780094065670199
aa(lp4489
VTail2
p4490
aF0.47049304639204315
aa(lp4491
VTail3
p4492
aF0.47049304639204304
aa(lp4493
Vcalf_l
p4494
aF0.006128141643345685
aaa(lp4495
I411
a(lp4496
Vroot
p4497
aF0.0075484659255599376
aa(lp4498
VTail1
p4499
aF0.051173245146603569
aa(lp4500
VTail2
p4501
aF0.46725127866397093
aa(lp4502
VTail3
p4503
aF0.46725127866397093
aa(lp4504
Vthigh_l
p4505
aF0.0067757315998946636
aaa(lp4506
I412
a(lp4507
Vroot
p4508
aF0.0056389254035220538
aa(lp4509
Vpelvis
p4510
aF0.004996766546953771
aa(lp4511
VTail1
p4512
aF0.040523619210741976
aa(lp4513
VTail2
p4514
aF0.47442034441939113
aa(lp4515
VTail3
p4516
aF0.47442034441939113
aaa(lp4517
I413
a(lp4518
Vroot
p4519
aF0.0058341511143743408
aa(lp4520
Vpelvis
p4521
aF0.005279402707592573
aa(lp4522
VTail1
p4523
aF0.047042015293459444
aa(lp4524
VTail2
p4525
aF0.47092221544228668
aa(lp4526
VTail3
p4527
aF0.47092221544228691
aaa(lp4528
I414
a(lp4529
Vroot
p4530
aF0.0047134046393446883
aa(lp4531
Vpelvis
p4532
aF0.0042214747481138766
aa(lp4533
VTail1
p4534
aF0.036148212302607369
aa(lp4535
VTail2
p4536
aF0.47745845415496702
aa(lp4537
VTail3
p4538
aF0.47745845415496702
aaa(lp4539
I415
a(lp4540
Vroot
p4541
aF0.0045162509543093992
aa(lp4542
Vpelvis
p4543
aF0.0042232574683933027
aa(lp4544
VTail1
p4545
aF0.041392518654335436
aa(lp4546
VTail2
p4547
aF0.47493398646148099
aa(lp4548
VTail3
p4549
aF0.47493398646148088
aaa(lp4550
I416
a(lp4551
Vroot
p4552
aF0.0095263497169752499
aa(lp4553
VTail1
p4554
aF0.067763550781292675
aa(lp4555
VTail2
p4556
aF0.45670399100178033
aa(lp4557
VTail3
p4558
aF0.45670399100178055
aa(lp4559
Vthigh_l
p4560
aF0.0093021174981710326
aaa(lp4561
I417
a(lp4562
VTail1
p4563
aF0.10226237342368237
aa(lp4564
VTail2
p4565
aF0.44209410448256642
aa(lp4566
VTail3
p4567
aF0.4263047284943447
aa(lp4568
Vthigh_l
p4569
aF0.015178681978042806
aa(lp4570
Vcalf_l
p4571
aF0.014160111621363696
aaa(lp4572
I418
a(lp4573
VTail1
p4574
aF0.061225417287288246
aa(lp4575
VTail2
p4576
aF0.45821156612873343
aa(lp4577
VTail3
p4578
aF0.45821156612873332
aa(lp4579
Vthigh_l
p4580
aF0.011064474461277816
aa(lp4581
Vcalf_l
p4582
aF0.011286975993967255
aaa(lp4583
I419
a(lp4584
Vroot
p4585
aF0.007290336464478196
aa(lp4586
Vpelvis
p4587
aF0.0068412033502286279
aa(lp4588
VTail1
p4589
aF0.066449441908748255
aa(lp4590
VTail2
p4591
aF0.46442223139475508
aa(lp4592
VTail3
p4593
aF0.45499678688178985
aaa(lp4594
I420
a(lp4595
Vroot
p4596
aF0.010936818655515882
aa(lp4597
Vpelvis
p4598
aF0.010799813720361344
aa(lp4599
VTail1
p4600
aF0.10850357274351503
aa(lp4601
VTail2
p4602
aF0.46452066593251334
aa(lp4603
VTail3
p4604
aF0.40523912894809433
aaa(lp4605
I421
a(lp4606
Vroot
p4607
aF0.0052010590689056833
aa(lp4608
Vpelvis
p4609
aF0.0051601456546247048
aa(lp4610
VTail1
p4611
aF0.058829266374518997
aa(lp4612
VTail2
p4613
aF0.48166356487888357
aa(lp4614
VTail3
p4615
aF0.44914596402306706
aaa(lp4616
I422
a(lp4617
Vroot
p4618
aF0.00747743814777861
aa(lp4619
Vpelvis
p4620
aF0.0080765916118683868
aa(lp4621
VTail1
p4622
aF0.10365285200390469
aa(lp4623
VTail2
p4624
aF0.50696222836011795
aa(lp4625
VTail3
p4626
aF0.37383088987633034
aaa(lp4627
I423
a(lp4628
Vroot
p4629
aF0.0044158315541565334
aa(lp4630
Vpelvis
p4631
aF0.0045262335518155995
aa(lp4632
VTail1
p4633
aF0.056570677318909079
aa(lp4634
VTail2
p4635
aF0.49560161359050853
aa(lp4636
VTail3
p4637
aF0.43888564398461027
aaa(lp4638
I424
a(lp4639
Vroot
p4640
aF0.0058943037442059244
aa(lp4641
Vpelvis
p4642
aF0.006858084679188815
aa(lp4643
VTail1
p4644
aF0.10491436325152995
aa(lp4645
VTail2
p4646
aF0.54722750740473258
aa(lp4647
VTail3
p4648
aF0.33510574092034273
aaa(lp4649
I425
a(lp4650
Vpelvis
p4651
aF0.018724330633907174
aa(lp4652
VTail1
p4653
aF0.17706077757032479
aa(lp4654
VTail2
p4655
aF0.45300956474020609
aa(lp4656
VTail3
p4657
aF0.33234613908129484
aa(lp4658
Vthigh_l
p4659
aF0.018859187974267149
aaa(lp4660
I426
a(lp4661
Vpelvis
p4662
aF0.031782750068293134
aa(lp4663
VTail1
p4664
aF0.26053244771208411
aa(lp4665
VTail2
p4666
aF0.42460501126598743
aa(lp4667
VTail3
p4668
aF0.24746875024219542
aa(lp4669
Vthigh_l
p4670
aF0.03561104071143998
aaa(lp4671
I427
a(lp4672
VTail1
p4673
aF0.16003870949546389
aa(lp4674
VTail2
p4675
aF0.43023957439407268
aa(lp4676
VTail3
p4677
aF0.36225247672156868
aa(lp4678
Vthigh_l
p4679
aF0.0253280427178059
aa(lp4680
Vcalf_l
p4681
aF0.022141196671088895
aaa(lp4682
I428
a(lp4683
Vroot
p4684
aF0.012411996972698102
aa(lp4685
Vpelvis
p4686
aF0.014940832726442546
aa(lp4687
VTail1
p4688
aF0.1893539546519161
aa(lp4689
VTail2
p4690
aF0.50333204025048084
aa(lp4691
VTail3
p4692
aF0.27996117539846249
aaa(lp4693
I429
a(lp4694
Vroot
p4695
aF0.020583834259939281
aa(lp4696
Vpelvis
p4697
aF0.027407890100576753
aa(lp4698
VTail1
p4699
aF0.29242452418959886
aa(lp4700
VTail2
p4701
aF0.4628108325714369
aa(lp4702
VTail3
p4703
aF0.19677291887844814
aaa(lp4704
I430
a(lp4705
Vroot
p4706
aF0.0084529884682659016
aa(lp4707
Vpelvis
p4708
aF0.011304777148070889
aa(lp4709
VTail1
p4710
aF0.19850420249863784
aa(lp4711
VTail2
p4712
aF0.56569619447605302
aa(lp4713
VTail3
p4714
aF0.21604183740897243
aaa(lp4715
I431
a(lp4716
Vroot
p4717
aF0.013233797070352504
aa(lp4718
Vpelvis
p4719
aF0.020929034173514258
aa(lp4720
VTail1
p4721
aF0.32811887853791677
aa(lp4722
VTail2
p4723
aF0.50653733089572683
aa(lp4724
VTail3
p4725
aF0.1311809593224896
aaa(lp4726
I432
a(lp4727
Vroot
p4728
aF0.0078173727293397912
aa(lp4729
Vpelvis
p4730
aF0.011307510737173253
aa(lp4731
VTail1
p4732
aF0.22188097154575934
aa(lp4733
VTail2
p4734
aF0.58019848494035264
aa(lp4735
VTail3
p4736
aF0.17879566004737504
aaa(lp4737
I433
a(lp4738
Vroot
p4739
aF0.010097807176880479
aa(lp4740
Vpelvis
p4741
aF0.01850683380607427
aa(lp4742
VTail1
p4743
aF0.36593081868306987
aa(lp4744
VTail2
p4745
aF0.51752661352038509
aa(lp4746
VTail3
p4747
aF0.087937926813590195
aaa(lp4748
I434
a(lp4749
Vpelvis
p4750
aF0.04792033837233782
aa(lp4751
VTail1
p4752
aF0.36738696197013759
aa(lp4753
VTail2
p4754
aF0.41226530938953199
aa(lp4755
VTail3
p4756
aF0.12959664294205522
aa(lp4757
Vthigh_l
p4758
aF0.042830747325937418
aaa(lp4759
I435
a(lp4760
Vpelvis
p4761
aF0.081272136800518632
aa(lp4762
VTail1
p4763
aF0.363477719143527
aa(lp4764
VTail2
p4765
aF0.36326341252155842
aa(lp4766
VTail3
p4767
aF0.086763602990302627
aa(lp4768
Vthigh_l
p4769
aF0.10522312854409334
aaa(lp4770
I436
a(lp4771
Vpelvis
p4772
aF0.050817014683370049
aa(lp4773
VTail1
p4774
aF0.33258218849105387
aa(lp4775
VTail2
p4776
aF0.38655423058649491
aa(lp4777
VTail3
p4778
aF0.16046210448126394
aa(lp4779
Vthigh_l
p4780
aF0.069584461757817198
aaa(lp4781
I437
a(lp4782
Vroot
p4783
aF0.022274941510995377
aa(lp4784
Vpelvis
p4785
aF0.040963670447119273
aa(lp4786
VTail1
p4787
aF0.41220593202263811
aa(lp4788
VTail2
p4789
aF0.4404670393403734
aa(lp4790
VTail3
p4791
aF0.084088416678873942
aaa(lp4792
I438
a(lp4793
Vpelvis
p4794
aF0.08014711245125164
aa(lp4795
VTail1
p4796
aF0.41283596570832604
aa(lp4797
VTail2
p4798
aF0.40087514546063896
aa(lp4799
VTail3
p4800
aF0.059558886885507069
aa(lp4801
Vthigh_l
p4802
aF0.046582889494276455
aaa(lp4803
I439
a(lp4804
Vroot
p4805
aF0.014761980018261114
aa(lp4806
Vpelvis
p4807
aF0.034627094604807174
aa(lp4808
VTail1
p4809
aF0.44733189313775029
aa(lp4810
VTail2
p4811
aF0.45504452216012636
aa(lp4812
VTail3
p4813
aF0.048234510079055042
aaa(lp4814
I440
a(lp4815
Vroot
p4816
aF0.027015901774758985
aa(lp4817
Vpelvis
p4818
aF0.078091567196459488
aa(lp4819
VTail1
p4820
aF0.45988603663255451
aa(lp4821
VTail2
p4822
aF0.39967237246788867
aa(lp4823
VTail3
p4824
aF0.035334121928338486
aaa(lp4825
I441
a(lp4826
Vroot
p4827
aF0.014301478818676194
aa(lp4828
Vpelvis
p4829
aF0.038094321009379074
aa(lp4830
VTail1
p4831
aF0.45528255164078546
aa(lp4832
VTail2
p4833
aF0.45226001363164547
aa(lp4834
VTail3
p4835
aF0.04006163489951383
aaa(lp4836
I442
a(lp4837
Vroot
p4838
aF0.023167536229801677
aa(lp4839
Vpelvis
p4840
aF0.086306276475943577
aa(lp4841
VTail1
p4842
aF0.49503475770682503
aa(lp4843
VTail2
p4844
aF0.36977865377776559
aa(lp4845
VTail3
p4846
aF0.025712775809663989
aaa(lp4847
I443
a(lp4848
Vroot
p4849
aF0.071081246646218094
aa(lp4850
Vpelvis
p4851
aF0.13586680682535668
aa(lp4852
VTail1
p4853
aF0.36685430251273848
aa(lp4854
VTail2
p4855
aF0.30192847285675334
aa(lp4856
Vthigh_l
p4857
aF0.12426917115893339
aaa(lp4858
I444
a(lp4859
Vroot
p4860
aF0.096174138905358711
aa(lp4861
Vpelvis
p4862
aF0.15693950836923098
aa(lp4863
VTail1
p4864
aF0.26090660306910629
aa(lp4865
VTail2
p4866
aF0.17461472908119088
aa(lp4867
Vthigh_l
p4868
aF0.31136502057511328
aaa(lp4869
I445
a(lp4870
Vroot
p4871
aF0.086013124940533481
aa(lp4872
Vpelvis
p4873
aF0.11015804195879324
aa(lp4874
VTail1
p4875
aF0.29095635610877274
aa(lp4876
VTail2
p4877
aF0.26723488827202091
aa(lp4878
Vthigh_l
p4879
aF0.24563758871987959
aaa(lp4880
I446
a(lp4881
Vroot
p4882
aF0.05009289397617539
aa(lp4883
Vpelvis
p4884
aF0.15775369462482605
aa(lp4885
VTail1
p4886
aF0.45181457294447197
aa(lp4887
VTail2
p4888
aF0.29343007074068067
aa(lp4889
Vthigh_l
p4890
aF0.046908767713845945
aaa(lp4891
I447
a(lp4892
Vroot
p4893
aF0.081038747013650006
aa(lp4894
Vpelvis
p4895
aF0.23359782992362912
aa(lp4896
VTail1
p4897
aF0.38191946781401398
aa(lp4898
VTail2
p4899
aF0.18587297677891412
aa(lp4900
Vthigh_l
p4901
aF0.11757097846979282
aaa(lp4902
I448
a(lp4903
Vroot
p4904
aF0.038896945275872459
aa(lp4905
Vpelvis
p4906
aF0.17995625399699458
aa(lp4907
VTail1
p4908
aF0.51063448351420482
aa(lp4909
VTail2
p4910
aF0.2495045904976694
aa(lp4911
Vthigh_l
p4912
aF0.021007726715258773
aaa(lp4913
I449
a(lp4914
Vroot
p4915
aF0.060564487536930937
aa(lp4916
Vpelvis
p4917
aF0.28565901201124233
aa(lp4918
VTail1
p4919
aF0.45712251835552414
aa(lp4920
VTail2
p4921
aF0.15410529935353701
aa(lp4922
Vthigh_l
p4923
aF0.042548682742765673
aaa(lp4924
I450
a(lp4925
Vroot
p4926
aF0.038105854411750621
aa(lp4927
Vpelvis
p4928
aF0.19960802743894232
aa(lp4929
VTail1
p4930
aF0.5192352993609356
aa(lp4931
VTail2
p4932
aF0.22534819435571316
aa(lp4933
VTail3
p4934
aF0.017702624432658135
aaa(lp4935
I451
a(lp4936
Vroot
p4937
aF0.053566237311130069
aa(lp4938
Vpelvis
p4939
aF0.31608667494102
aa(lp4940
VTail1
p4941
aF0.47652190826621621
aa(lp4942
VTail2
p4943
aF0.13182786457541765
aa(lp4944
Vthigh_l
p4945
aF0.021997314906216137
aaa(lp4946
I452
a(lp4947
Vroot
p4948
aF0.10484371670042263
aa(lp4949
Vpelvis
p4950
aF0.23213351394732423
aa(lp4951
VTail1
p4952
aF0.2697727264805635
aa(lp4953
VTail2
p4954
aF0.10338183992768564
aa(lp4955
Vthigh_l
p4956
aF0.28986820294400406
aaa(lp4957
I453
a(lp4958
Vroot
p4959
aF0.06839964572858688
aa(lp4960
Vpelvis
p4961
aF0.29238501073484369
aa(lp4962
VTail1
p4963
aF0.10195796374418913
aa(lp4964
VTail2
p4965
aF0.03080168394674657
aa(lp4966
Vthigh_l
p4967
aF0.50645569584563377
aaa(lp4968
I454
a(lp4969
Vroot
p4970
aF0.0769413250279289
aa(lp4971
Vpelvis
p4972
aF0.16228966026460898
aa(lp4973
VTail1
p4974
aF0.12028851339189826
aa(lp4975
VTail2
p4976
aF0.061697722093565451
aa(lp4977
Vthigh_l
p4978
aF0.57878277922199839
aaa(lp4979
I455
a(lp4980
Vroot
p4981
aF0.089090225034105713
aa(lp4982
Vpelvis
p4983
aF0.33754301577416312
aa(lp4984
VTail1
p4985
aF0.38209787446766219
aa(lp4986
VTail2
p4987
aF0.097063978062692693
aa(lp4988
Vthigh_l
p4989
aF0.094204906661376334
aaa(lp4990
I456
a(lp4991
Vroot
p4992
aF0.11928092453750015
aa(lp4993
Vpelvis
p4994
aF0.29214402879348295
aa(lp4995
VTail1
p4996
aF0.29238639770382807
aa(lp4997
VTail2
p4998
aF0.060399578306172853
aa(lp4999
Vthigh_l
p5000
aF0.235789070659016
aaa(lp5001
I457
a(lp5002
Vroot
p5003
aF0.073651494027108397
aa(lp5004
Vpelvis
p5005
aF0.38440501820082024
aa(lp5006
VTail1
p5007
aF0.42310596201058137
aa(lp5008
VTail2
p5009
aF0.081304453674765062
aa(lp5010
Vthigh_l
p5011
aF0.03753307208672492
aaa(lp5012
I458
a(lp5013
Vroot
p5014
aF0.10734754498317295
aa(lp5015
Vpelvis
p5016
aF0.3802580869227688
aa(lp5017
VTail1
p5018
aF0.37891602891475112
aa(lp5019
VTail2
p5020
aF0.055619560493397516
aa(lp5021
Vthigh_l
p5022
aF0.077858778685909666
aaa(lp5023
I459
a(lp5024
Vroot
p5025
aF0.071848088196575385
aa(lp5026
Vpelvis
p5027
aF0.39947340422323668
aa(lp5028
VTail1
p5029
aF0.42987909795833906
aa(lp5030
VTail2
p5031
aF0.075391201601227018
aa(lp5032
Vthigh_l
p5033
aF0.023408208020621792
aaa(lp5034
I460
a(lp5035
Vroot
p5036
aF0.10118233134837197
aa(lp5037
Vpelvis
p5038
aF0.40721169844625921
aa(lp5039
VTail1
p5040
aF0.4025859716832263
aa(lp5041
VTail2
p5042
aF0.051673055810036048
aa(lp5043
Vthigh_l
p5044
aF0.037346942712106528
aaa(lp5045
I461
a(lp5046
Vroot
p5047
aF0.079526151981096929
aa(lp5048
Vpelvis
p5049
aF0.39076552755525529
aa(lp5050
VTail1
p5051
aF0.11029973157258323
aa(lp5052
VTail2
p5053
aF0.020608518558205932
aa(lp5054
Vthigh_l
p5055
aF0.39880007033285869
aaa(lp5056
I462
a(lp5057
Vroot
p5058
aF0.067136498925833704
aa(lp5059
Vpelvis
p5060
aF0.43393123335574085
aa(lp5061
VTail1
p5062
aF0.051009448178728697
aa(lp5063
Vlowerarm_l
p5064
aF0.014141039949107797
aa(lp5065
Vthigh_l
p5066
aF0.43378177959058911
aaa(lp5067
I463
a(lp5068
Vroot
p5069
aF0.023123235245843241
aa(lp5070
Vpelvis
p5071
aF0.46553280160890842
aa(lp5072
VTail1
p5073
aF0.0187668057134023
aa(lp5074
Vlowerarm_l
p5075
aF0.016364488776006061
aa(lp5076
Vthigh_l
p5077
aF0.47621266865584011
aaa(lp5078
I464
a(lp5079
Vroot
p5080
aF0.15182236598663046
aa(lp5081
Vpelvis
p5082
aF0.32860474619086061
aa(lp5083
VTail1
p5084
aF0.28974726840822551
aa(lp5085
VTail2
p5086
aF0.039371054869265738
aa(lp5087
Vthigh_l
p5088
aF0.19045456454501775
aaa(lp5089
I465
a(lp5090
Vroot
p5091
aF0.1302679634204772
aa(lp5092
Vpelvis
p5093
aF0.38679901915410714
aa(lp5094
VTail1
p5095
aF0.12305208645535901
aa(lp5096
VTail2
p5097
aF0.018674726774742502
aa(lp5098
Vthigh_l
p5099
aF0.34120620419531422
aaa(lp5100
I466
a(lp5101
Vroot
p5102
aF0.15146762323105126
aa(lp5103
Vpelvis
p5104
aF0.3995335735132306
aa(lp5105
VTail1
p5106
aF0.34006439373592989
aa(lp5107
VTail2
p5108
aF0.038577476205952088
aa(lp5109
Vthigh_l
p5110
aF0.070356933313836204
aaa(lp5111
I467
a(lp5112
Vroot
p5113
aF0.22463415042054824
aa(lp5114
Vpelvis
p5115
aF0.3715091725010673
aa(lp5116
VTail1
p5117
aF0.23393723550391787
aa(lp5118
VTail2
p5119
aF0.028110481430456549
aa(lp5120
Vthigh_l
p5121
aF0.14180896014400995
aaa(lp5122
I468
a(lp5123
Vroot
p5124
aF0.15373102093848082
aa(lp5125
Vpelvis
p5126
aF0.41820954975346564
aa(lp5127
VTail1
p5128
aF0.34883816592247363
aa(lp5129
VTail2
p5130
aF0.038027778288847923
aa(lp5131
Vthigh_l
p5132
aF0.041193485096732027
aaa(lp5133
I469
a(lp5134
Vroot
p5135
aF0.23664763060767022
aa(lp5136
Vpelvis
p5137
aF0.41395588504868985
aa(lp5138
VTail1
p5139
aF0.25195077723030895
aa(lp5140
Vthigh_l
p5141
aF0.062539016696856228
aa(lp5142
Vthigh_r
p5143
aF0.034906690416474734
aaa(lp5144
I470
a(lp5145
Vroot
p5146
aF0.088383184418503902
aa(lp5147
Vpelvis
p5148
aF0.4281101751582313
aa(lp5149
VTail1
p5150
aF0.046111161755908382
aa(lp5151
Vlowerarm_l
p5152
aF0.020247108899520552
aa(lp5153
Vthigh_l
p5154
aF0.41714836976783604
aaa(lp5155
I471
a(lp5156
Vroot
p5157
aF0.084448473523919973
aa(lp5158
Vpelvis
p5159
aF0.4007258271403315
aa(lp5160
Vlowerarm_l
p5161
aF0.057779845927711834
aa(lp5162
Vlowerarm_twist_01_l
p5163
aF0.056664552499781397
aa(lp5164
Vthigh_l
p5165
aF0.40038130090825536
aaa(lp5166
I472
a(lp5167
Vroot
p5168
aF0.024224906527963292
aa(lp5169
Vpelvis
p5170
aF0.46609858471447979
aa(lp5171
Vlowerarm_l
p5172
aF0.021788962021538547
aa(lp5173
Vlowerarm_twist_01_l
p5174
aF0.021788962021538547
aa(lp5175
Vthigh_l
p5176
aF0.46609858471447979
aaa(lp5177
I473
a(lp5178
Vroot
p5179
aF0.24179080731499111
aa(lp5180
Vpelvis
p5181
aF0.3823874651911679
aa(lp5182
VTail1
p5183
aF0.11310849676074014
aa(lp5184
Vspine_01
p5185
aF0.034862648273582028
aa(lp5186
Vthigh_l
p5187
aF0.22785058245951892
aaa(lp5188
I474
a(lp5189
Vroot
p5190
aF0.20574918557590444
aa(lp5191
Vpelvis
p5192
aF0.37858476786744255
aa(lp5193
VTail1
p5194
aF0.063096633287084175
aa(lp5195
Vspine_01
p5196
aF0.063424420018143482
aa(lp5197
Vthigh_l
p5198
aF0.28914499325142534
aaa(lp5199
I475
a(lp5200
Vroot
p5201
aF0.33952112663920886
aa(lp5202
Vpelvis
p5203
aF0.38535639351382944
aa(lp5204
VTail1
p5205
aF0.14420553950194079
aa(lp5206
Vspine_01
p5207
aF0.039150522838329316
aa(lp5208
Vthigh_l
p5209
aF0.091766417506691622
aaa(lp5210
I476
a(lp5211
Vroot
p5212
aF0.34651142193139778
aa(lp5213
Vpelvis
p5214
aF0.36505074884789851
aa(lp5215
VTail1
p5216
aF0.081032734758461233
aa(lp5217
Vspine_01
p5218
aF0.080793718122782243
aa(lp5219
Vthigh_l
p5220
aF0.12661137633946029
aaa(lp5221
I477
a(lp5222
Vroot
p5223
aF0.35396937126615324
aa(lp5224
Vpelvis
p5225
aF0.40627226015132917
aa(lp5226
VTail1
p5227
aF0.14783193180076817
aa(lp5228
Vthigh_l
p5229
aF0.051754429266868233
aa(lp5230
Vthigh_r
p5231
aF0.040172007514881113
aaa(lp5232
I478
a(lp5233
Vroot
p5234
aF0.38246433876752262
aa(lp5235
Vpelvis
p5236
aF0.40703517946580703
aa(lp5237
VTail1
p5238
aF0.078759559604032539
aa(lp5239
Vspine_01
p5240
aF0.076380017737890576
aa(lp5241
Vthigh_l
p5242
aF0.055360904424747219
aaa(lp5243
I479
a(lp5244
Vroot
p5245
aF0.1802176623678638
aa(lp5246
Vpelvis
p5247
aF0.32852554604549905
aa(lp5248
Vspine_01
p5249
aF0.12231445581566472
aa(lp5250
Vlowerarm_l
p5251
aF0.078971226458778632
aa(lp5252
Vthigh_l
p5253
aF0.28997110931219383
aaa(lp5254
I480
a(lp5255
Vroot
p5256
aF0.14524888633254232
aa(lp5257
Vpelvis
p5258
aF0.24522970551434825
aa(lp5259
Vspine_01
p5260
aF0.1942987539868056
aa(lp5261
Vlowerarm_l
p5262
aF0.19096245956326677
aa(lp5263
Vthigh_l
p5264
aF0.22426019460303701
aaa(lp5265
I481
a(lp5266
Vroot
p5267
aF0.09490616895364605
aa(lp5268
Vpelvis
p5269
aF0.29648992761907528
aa(lp5270
Vlowerarm_l
p5271
aF0.1660529804787319
aa(lp5272
Vlowerarm_twist_01_l
p5273
aF0.13747500423697495
aa(lp5274
Vthigh_l
p5275
aF0.3050759187115718
aaa(lp5276
I482
a(lp5277
Vroot
p5278
aF0.2645098311865976
aa(lp5279
Vpelvis
p5280
aF0.36681755382875703
aa(lp5281
VTail1
p5282
aF0.053625843070146333
aa(lp5283
Vspine_01
p5284
aF0.16522298098690133
aa(lp5285
Vthigh_l
p5286
aF0.14982379092759768
aaa(lp5287
I483
a(lp5288
Vroot
p5289
aF0.18192807233616415
aa(lp5290
Vpelvis
p5291
aF0.35677000886525972
aa(lp5292
Vspine_01
p5293
aF0.2687047853195163
aa(lp5294
Vlowerarm_l
p5295
aF0.052862441872750042
aa(lp5296
Vthigh_l
p5297
aF0.13973469160630983
aaa(lp5298
I484
a(lp5299
Vroot
p5300
aF0.28870313620730886
aa(lp5301
Vpelvis
p5302
aF0.44770010515171121
aa(lp5303
VTail1
p5304
aF0.044781088314561998
aa(lp5305
Vspine_01
p5306
aF0.16069495193760749
aa(lp5307
Vthigh_l
p5308
aF0.058120718388810465
aaa(lp5309
I485
a(lp5310
Vroot
p5311
aF0.17372281708458934
aa(lp5312
Vpelvis
p5313
aF0.44046121835299495
aa(lp5314
Vspine_01
p5315
aF0.2948287376564237
aa(lp5316
Vspine_02
p5317
aF0.03475584394279535
aa(lp5318
Vthigh_l
p5319
aF0.056231382963196748
aaa(lp5320
I486
a(lp5321
Vroot
p5322
aF0.29861963080911869
aa(lp5323
Vpelvis
p5324
aF0.4701690751580338
aa(lp5325
VTail1
p5326
aF0.04326088677213108
aa(lp5327
Vspine_01
p5328
aF0.15305318161217366
aa(lp5329
Vthigh_l
p5330
aF0.034897225648542765
aaa(lp5331
I487
a(lp5332
Vroot
p5333
aF0.16687385432057134
aa(lp5334
Vpelvis
p5335
aF0.4856175340486466
aa(lp5336
Vspine_01
p5337
aF0.29237953334262801
aa(lp5338
Vspine_02
p5339
aF0.027172095514618917
aa(lp5340
Vthigh_l
p5341
aF0.027956982773535061
aaa(lp5342
I488
a(lp5343
Vroot
p5344
aF0.12121748240834547
aa(lp5345
Vpelvis
p5346
aF0.33882736260203222
aa(lp5347
Vspine_01
p5348
aF0.32603486058220077
aa(lp5349
Vlowerarm_l
p5350
aF0.10497331369637125
aa(lp5351
Vthigh_l
p5352
aF0.10894698071105025
aaa(lp5353
I489
a(lp5354
Vpelvis
p5355
aF0.25197862778377017
aa(lp5356
Vspine_01
p5357
aF0.25469830830939955
aa(lp5358
Vupperarm_l
p5359
aF0.17163053482053967
aa(lp5360
Vlowerarm_l
p5361
aF0.15006199426575095
aa(lp5362
Vupperarm_twist_01_l
p5363
aF0.17163053482053967
aaa(lp5364
I490
a(lp5365
Vpelvis
p5366
aF0.2265076803440384
aa(lp5367
Vspine_01
p5368
aF0.21820171628253657
aa(lp5369
Vupperarm_l
p5370
aF0.13479285794141771
aa(lp5371
Vlowerarm_l
p5372
aF0.27946077472946923
aa(lp5373
Vthigh_l
p5374
aF0.14103697070253812
aaa(lp5375
I491
a(lp5376
Vroot
p5377
aF0.10344392863575688
aa(lp5378
Vpelvis
p5379
aF0.40081804121835479
aa(lp5380
Vspine_01
p5381
aF0.38040356825732063
aa(lp5382
Vspine_02
p5383
aF0.066457578277350451
aa(lp5384
Vthigh_l
p5385
aF0.048876883611217177
aaa(lp5386
I492
a(lp5387
Vpelvis
p5388
aF0.36119572103259662
aa(lp5389
Vspine_01
p5390
aF0.36473709406475968
aa(lp5391
Vspine_02
p5392
aF0.11750039427575913
aa(lp5393
Vupperarm_l
p5394
aF0.078283395313442264
aa(lp5395
Vupperarm_twist_01_l
p5396
aF0.078283395313442264
aaa(lp5397
I493
a(lp5398
Vroot
p5399
aF0.083617164992233553
aa(lp5400
Vpelvis
p5401
aF0.44031285070490878
aa(lp5402
Vspine_01
p5403
aF0.40701003857055656
aa(lp5404
Vspine_02
p5405
aF0.047493070392387031
aa(lp5406
Vthigh_l
p5407
aF0.021566875339914138
aaa(lp5408
I494
a(lp5409
Vroot
p5410
aF0.049778877695474809
aa(lp5411
Vpelvis
p5412
aF0.41384345569442227
aa(lp5413
Vspine_01
p5414
aF0.41680733516652835
aa(lp5415
Vspine_02
p5416
aF0.091879220817303903
aa(lp5417
Vupperarm_l
p5418
aF0.027691110626270655
aaa(lp5419
I495
a(lp5420
Vroot
p5421
aF0.081112830104155167
aa(lp5422
Vpelvis
p5423
aF0.45511742623359275
aa(lp5424
Vspine_01
p5425
aF0.4085017752179711
aa(lp5426
Vspine_02
p5427
aF0.04072815861441146
aa(lp5428
Vthigh_l
p5429
aF0.014539809829869436
aaa(lp5430
I496
a(lp5431
Vroot
p5432
aF0.042300711433884766
aa(lp5433
Vpelvis
p5434
aF0.43488966699461845
aa(lp5435
Vspine_01
p5436
aF0.43581956167888503
aa(lp5437
Vspine_02
p5438
aF0.073492340237323969
aa(lp5439
Vupperarm_l
p5440
aF0.013497719655287781
aaa(lp5441
I497
a(lp5442
Vpelvis
p5443
aF0.23577652347292746
aa(lp5444
Vspine_01
p5445
aF0.2795106823720474
aa(lp5446
Vspine_02
p5447
aF0.1558530982065274
aa(lp5448
Vupperarm_l
p5449
aF0.16442984797424889
aa(lp5450
Vupperarm_twist_01_l
p5451
aF0.16442984797424889
aaa(lp5452
I498
a(lp5453
Vpelvis
p5454
aF0.10823991388848303
aa(lp5455
Vspine_01
p5456
aF0.16508201350012616
aa(lp5457
Vspine_02
p5458
aF0.13374423496340856
aa(lp5459
Vupperarm_l
p5460
aF0.29652743531602854
aa(lp5461
Vupperarm_twist_01_l
p5462
aF0.2964064023319537
aaa(lp5463
I499
a(lp5464
Vpelvis
p5465
aF0.19738418426250162
aa(lp5466
Vspine_01
p5467
aF0.21822562925736649
aa(lp5468
Vupperarm_l
p5469
aF0.22335308468544066
aa(lp5470
Vlowerarm_l
p5471
aF0.13768401710925049
aa(lp5472
Vupperarm_twist_01_l
p5473
aF0.22335308468544066
aaa(lp5474
I500
a(lp5475
Vpelvis
p5476
aF0.31575242492946654
aa(lp5477
Vspine_01
p5478
aF0.39156541108966741
aa(lp5479
Vspine_02
p5480
aF0.17041338895413924
aa(lp5481
Vupperarm_l
p5482
aF0.061134387513363406
aa(lp5483
Vupperarm_twist_01_l
p5484
aF0.061134387513363406
aaa(lp5485
I501
a(lp5486
Vpelvis
p5487
aF0.18231226526084912
aa(lp5488
Vspine_01
p5489
aF0.31761382166736263
aa(lp5490
Vspine_02
p5491
aF0.23129001100506646
aa(lp5492
Vupperarm_l
p5493
aF0.13455763200176571
aa(lp5494
Vupperarm_twist_01_l
p5495
aF0.13422627006495602
aaa(lp5496
I502
a(lp5497
Vroot
p5498
aF0.025917116616812463
aa(lp5499
Vpelvis
p5500
aF0.35275660172058232
aa(lp5501
Vspine_01
p5502
aF0.44875147998437565
aa(lp5503
Vspine_02
p5504
aF0.1488707586256349
aa(lp5505
Vupperarm_l
p5506
aF0.02370404305259469
aaa(lp5507
I503
a(lp5508
Vpelvis
p5509
aF0.21160442897843323
aa(lp5510
Vspine_01
p5511
aF0.43243162134571278
aa(lp5512
Vspine_02
p5513
aF0.26512299244233484
aa(lp5514
Vupperarm_l
p5515
aF0.045428290859572569
aa(lp5516
Vupperarm_twist_01_l
p5517
aF0.045412666373946649
aaa(lp5518
I504
a(lp5519
Vroot
p5520
aF0.023600896032939904
aa(lp5521
Vpelvis
p5522
aF0.3691936052613975
aa(lp5523
Vspine_01
p5524
aF0.4610562466385304
aa(lp5525
Vspine_02
p5526
aF0.1293823109493028
aa(lp5527
Vspine_03
p5528
aF0.016766941117829334
aaa(lp5529
I505
a(lp5530
Vpelvis
p5531
aF0.21854003466972444
aa(lp5532
Vspine_01
p5533
aF0.4847404387302966
aa(lp5534
Vspine_02
p5535
aF0.24982074969487439
aa(lp5536
Vspine_03
p5537
aF0.027502249398118232
aa(lp5538
Vupperarm_l
p5539
aF0.019396527506986401
aaa(lp5540
I506
a(lp5541
Vspine_01
p5542
aF0.19074240259548492
aa(lp5543
Vspine_02
p5544
aF0.18153777117224731
aa(lp5545
Vclavicle_l
p5546
aF0.13258197120746976
aa(lp5547
Vupperarm_l
p5548
aF0.26090167093704791
aa(lp5549
Vupperarm_twist_01_l
p5550
aF0.23423618408775004
aaa(lp5551
I507
a(lp5552
Vspine_01
p5553
aF0.063814204759127496
aa(lp5554
Vspine_02
p5555
aF0.064138922210685859
aa(lp5556
Vclavicle_l
p5557
aF0.17245186327103101
aa(lp5558
Vupperarm_l
p5559
aF0.50294280559576021
aa(lp5560
Vupperarm_twist_01_l
p5561
aF0.19665220416339529
aaa(lp5562
I508
a(lp5563
Vspine_01
p5564
aF0.068167418888420636
aa(lp5565
Vclavicle_l
p5566
aF0.11234571697334006
aa(lp5567
Vupperarm_l
p5568
aF0.46510742054142401
aa(lp5569
Vlowerarm_l
p5570
aF0.06543363462186301
aa(lp5571
Vupperarm_twist_01_l
p5572
aF0.28894580897495231
aaa(lp5573
I509
a(lp5574
Vpelvis
p5575
aF0.11282548277396878
aa(lp5576
Vspine_01
p5577
aF0.36430906262932095
aa(lp5578
Vspine_02
p5579
aF0.3323320894646441
aa(lp5580
Vupperarm_l
p5581
aF0.09879303184992988
aa(lp5582
Vupperarm_twist_01_l
p5583
aF0.091740333282136266
aaa(lp5584
I510
a(lp5585
Vspine_01
p5586
aF0.23903329421463665
aa(lp5587
Vspine_02
p5588
aF0.23910591084647143
aa(lp5589
Vclavicle_l
p5590
aF0.14961009522717406
aa(lp5591
Vupperarm_l
p5592
aF0.21816541962162464
aa(lp5593
Vupperarm_twist_01_l
p5594
aF0.15408528009009334
aaa(lp5595
I511
a(lp5596
Vpelvis
p5597
aF0.10132608372622595
aa(lp5598
Vspine_01
p5599
aF0.44724856461053875
aa(lp5600
Vspine_02
p5601
aF0.37824334480379013
aa(lp5602
Vspine_03
p5603
aF0.044104003594079386
aa(lp5604
Vupperarm_l
p5605
aF0.029078003265365759
aaa(lp5606
I512
a(lp5607
Vspine_01
p5608
aF0.40117300753751078
aa(lp5609
Vspine_02
p5610
aF0.40117300753751056
aa(lp5611
Vspine_03
p5612
aF0.07946448757387764
aa(lp5613
VWingL
p5614
aF0.05815764972389572
aa(lp5615
Vupperarm_l
p5616
aF0.060031847627205329
aaa(lp5617
I513
a(lp5618
Vpelvis
p5619
aF0.095625811651892059
aa(lp5620
Vspine_01
p5621
aF0.47989461907293079
aa(lp5622
Vspine_02
p5623
aF0.37395464434624492
aa(lp5624
Vspine_03
p5625
aF0.033462587107968594
aa(lp5626
VWingL
p5627
aF0.017062337820963711
aaa(lp5628
I514
a(lp5629
Vpelvis
p5630
aF0.036914183566594497
aa(lp5631
Vspine_01
p5632
aF0.44387908219048711
aa(lp5633
Vspine_02
p5634
aF0.44383905645466487
aa(lp5635
Vspine_03
p5636
aF0.049480490623168519
aa(lp5637
VWingL
p5638
aF0.025887187165084927
aaa(lp5639
I515
a(lp5640
Vspine_01
p5641
aF0.087421062692418311
aa(lp5642
Vspine_02
p5643
aF0.097258810888665212
aa(lp5644
Vclavicle_l
p5645
aF0.2664564766138483
aa(lp5646
Vupperarm_l
p5647
aF0.41392027438351658
aa(lp5648
Vupperarm_twist_01_l
p5649
aF0.13494337542155163
aaa(lp5650
I516
a(lp5651
Vspine_03
p5652
aF0.026410313249781731
aa(lp5653
VWingL
p5654
aF0.026410313249781731
aa(lp5655
Vclavicle_l
p5656
aF0.29620809289083133
aa(lp5657
Vupperarm_l
p5658
aF0.60955106563492456
aa(lp5659
Vupperarm_twist_01_l
p5660
aF0.041420214974680618
aaa(lp5661
I517
a(lp5662
Vspine_02
p5663
aF0.01557669263467836
aa(lp5664
Vspine_03
p5665
aF0.014170454103180751
aa(lp5666
Vclavicle_l
p5667
aF0.14588569948478405
aa(lp5668
Vupperarm_l
p5669
aF0.75034342783931296
aa(lp5670
Vupperarm_twist_01_l
p5671
aF0.074023725938043905
aaa(lp5672
I518
a(lp5673
Vspine_01
p5674
aF0.27267796894703489
aa(lp5675
Vspine_02
p5676
aF0.30726882692079982
aa(lp5677
Vspine_03
p5678
aF0.1403064614348993
aa(lp5679
Vclavicle_l
p5680
aF0.12813590128349178
aa(lp5681
Vupperarm_l
p5682
aF0.15161084141377421
aaa(lp5683
I519
a(lp5684
Vspine_02
p5685
aF0.14359877123774661
aa(lp5686
Vspine_03
p5687
aF0.15238023792636651
aa(lp5688
VWingL
p5689
aF0.15140962794642301
aa(lp5690
Vclavicle_l
p5691
aF0.26892551404653359
aa(lp5692
Vupperarm_l
p5693
aF0.28368584884293041
aaa(lp5694
I520
a(lp5695
Vspine_01
p5696
aF0.37457512366916246
aa(lp5697
Vspine_02
p5698
aF0.42714239481566801
aa(lp5699
Vspine_03
p5700
aF0.10214652368190574
aa(lp5701
VWingL
p5702
aF0.064104928147933435
aa(lp5703
VWingR
p5704
aF0.032031029685330469
aaa(lp5705
I521
a(lp5706
Vspine_01
p5707
aF0.18889896658296515
aa(lp5708
Vspine_02
p5709
aF0.34852801762435176
aa(lp5710
Vspine_03
p5711
aF0.21357630174990219
aa(lp5712
VWingL
p5713
aF0.17694336558004647
aa(lp5714
Vupperarm_l
p5715
aF0.072053348462734451
aaa(lp5716
I522
a(lp5717
Vspine_01
p5718
aF0.41154992730460366
aa(lp5719
Vspine_02
p5720
aF0.46393196857334246
aa(lp5721
Vspine_03
p5722
aF0.07027778253509212
aa(lp5723
VWingL
p5724
aF0.028903998929394381
aa(lp5725
VWingR
p5726
aF0.025336322657567502
aaa(lp5727
I523
a(lp5728
Vspine_01
p5729
aF0.22267952589720194
aa(lp5730
Vspine_02
p5731
aF0.49484237189908287
aa(lp5732
Vspine_03
p5733
aF0.16279155938178222
aa(lp5734
VWingL
p5735
aF0.076062209995630625
aa(lp5736
VWingR
p5737
aF0.043624332826302313
aaa(lp5738
I524
a(lp5739
Vspine_02
p5740
aF0.038473214634945962
aa(lp5741
Vspine_03
p5742
aF0.086658344789066907
aa(lp5743
VWingL
p5744
aF0.086658344789066907
aa(lp5745
Vclavicle_l
p5746
aF0.3924051960700447
aa(lp5747
Vupperarm_l
p5748
aF0.39580489971687544
aaa(lp5749
I525
a(lp5750
Vspine_02
p5751
aF0.0089496093953535891
aa(lp5752
Vspine_03
p5753
aF0.031600489064976901
aa(lp5754
VWingL
p5755
aF0.031600489064976901
aa(lp5756
Vclavicle_l
p5757
aF0.46559088223625611
aa(lp5758
Vupperarm_l
p5759
aF0.46225853023843666
aaa(lp5760
I526
a(lp5761
Vspine_03
p5762
aF0.0061484570129499653
aa(lp5763
VWingL
p5764
aF0.0059007022881903551
aa(lp5765
Vclavicle_l
p5766
aF0.34412085593405461
aa(lp5767
Vupperarm_l
p5768
aF0.63887700595982444
aa(lp5769
Vupperarm_twist_01_l
p5770
aF0.0049529788049806787
aaa(lp5771
I527
a(lp5772
Vspine_02
p5773
aF0.15375144948933145
aa(lp5774
Vspine_03
p5775
aF0.31513291250960773
aa(lp5776
VWingL
p5777
aF0.31285633929842327
aa(lp5778
Vclavicle_l
p5779
aF0.10912964935131872
aa(lp5780
Vupperarm_l
p5781
aF0.10912964935131872
aaa(lp5782
I528
a(lp5783
Vspine_02
p5784
aF0.057914067708931483
aa(lp5785
Vspine_03
p5786
aF0.3367771904604705
aa(lp5787
VWingL
p5788
aF0.3367771904604705
aa(lp5789
Vclavicle_l
p5790
aF0.13874538907739495
aa(lp5791
Vupperarm_l
p5792
aF0.12978616229273263
aaa(lp5793
I529
a(lp5794
Vspine_01
p5795
aF0.061973037189564671
aa(lp5796
Vspine_02
p5797
aF0.33196305237654289
aa(lp5798
Vspine_03
p5799
aF0.33102572466588381
aa(lp5800
VWingL
p5801
aF0.22525898173236361
aa(lp5802
VWingR
p5803
aF0.049779204035645043
aaa(lp5804
I530
a(lp5805
Vspine_02
p5806
aF0.080465892473137846
aa(lp5807
Vspine_03
p5808
aF0.4527363809469036
aa(lp5809
VWingL
p5810
aF0.43426097609801267
aa(lp5811
VWingR
p5812
aF0.017687515676587311
aa(lp5813
Vclavicle_l
p5814
aF0.014849234805358545
aaa(lp5815
I531
a(lp5816
Vspine_01
p5817
aF0.063718120264122477
aa(lp5818
Vspine_02
p5819
aF0.49444305588890036
aa(lp5820
Vspine_03
p5821
aF0.2868278913107985
aa(lp5822
VWingL
p5823
aF0.088921402624745793
aa(lp5824
VWingR
p5825
aF0.066089529911432812
aaa(lp5826
I532
a(lp5827
Vspine_01
p5828
aF0.010159674133134788
aa(lp5829
Vspine_02
p5830
aF0.2534750973804526
aa(lp5831
Vspine_03
p5832
aF0.48100699524844465
aa(lp5833
VWingL
p5834
aF0.20479967164912999
aa(lp5835
VWingR
p5836
aF0.050558561588837932
aaa(lp5837
I533
a(lp5838
Vspine_02
p5839
aF0.030247684499291615
aa(lp5840
Vspine_03
p5841
aF0.26544836659080645
aa(lp5842
VWingL
p5843
aF0.26544836659080645
aa(lp5844
Vclavicle_l
p5845
aF0.27816282533973941
aa(lp5846
Vupperarm_l
p5847
aF0.16069275697935609
aaa(lp5848
I534
a(lp5849
Vspine_02
p5850
aF0.01276225753205623
aa(lp5851
Vspine_03
p5852
aF0.27937790303607762
aa(lp5853
VWingL
p5854
aF0.11401208135715658
aa(lp5855
Vclavicle_l
p5856
aF0.52865745294853539
aa(lp5857
Vupperarm_l
p5858
aF0.065190305126174214
aaa(lp5859
I535
a(lp5860
Vspine_02
p5861
aF0.0048069888821920329
aa(lp5862
Vspine_03
p5863
aF0.047654074990101263
aa(lp5864
VWingL
p5865
aF0.022776955108539415
aa(lp5866
Vclavicle_l
p5867
aF0.71512381062992281
aa(lp5868
Vupperarm_l
p5869
aF0.20963817038924459
aaa(lp5870
I536
a(lp5871
Vspine_02
p5872
aF0.01286413897165207
aa(lp5873
Vspine_03
p5874
aF0.48700657852469309
aa(lp5875
VWingL
p5876
aF0.48700657852469298
aa(lp5877
Vclavicle_l
p5878
aF0.008134133681266132
aa(lp5879
Vupperarm_l
p5880
aF0.0049885702976957668
aaa(lp5881
I537
a(lp5882
Vspine_02
p5883
aF0.011715079196526102
aa(lp5884
Vspine_03
p5885
aF0.47356586345351215
aa(lp5886
VWingL
p5887
aF0.47356586345351237
aa(lp5888
Vclavicle_l
p5889
aF0.031624598450849042
aa(lp5890
Vupperarm_l
p5891
aF0.0095285954456001531
aaa(lp5892
I538
a(lp5893
Vspine_02
p5894
aF0.019118030218364633
aa(lp5895
Vspine_03
p5896
aF0.59500417717005849
aa(lp5897
VWingL
p5898
aF0.37957359502034244
aa(lp5899
VWingR
p5900
aF0.005156031351419242
aa(lp5901
Vclavicle_l
p5902
aF0.0011481662398150462
aaa(lp5903
I539
a(lp5904
Vspine_03
p5905
aF0.49999793926925096
aa(lp5906
VWingL
p5907
aF0.49999793926925096
aaa(lp5908
I540
a(lp5909
Vspine_02
p5910
aF0.15778989147669734
aa(lp5911
Vspine_03
p5912
aF0.570659706428159
aa(lp5913
VWingL
p5914
aF0.17431319355522867
aa(lp5915
VWingR
p5916
aF0.094616511303798154
aa(lp5917
Vclavicle_l
p5918
aF0.0026206972361168591
aaa(lp5919
I541
a(lp5920
Vspine_02
p5921
aF0.024853569490099203
aa(lp5922
Vspine_03
p5923
aF0.59858989610057778
aa(lp5924
VWingL
p5925
aF0.34795024668427638
aa(lp5926
VWingR
p5927
aF0.027033508477161718
aa(lp5928
Vclavicle_l
p5929
aF0.0015727792478850259
aaa(lp5930
I542
a(lp5931
Vspine_02
p5932
aF0.013561538191556135
aa(lp5933
Vspine_03
p5934
aF0.56119836312743088
aa(lp5935
VWingL
p5936
aF0.21026149366173616
aa(lp5937
Vclavicle_l
p5938
aF0.20071276739344313
aa(lp5939
Vupperarm_l
p5940
aF0.014265837625833704
aaa(lp5941
I543
a(lp5942
Vspine_02
p5943
aF0.0037354294823039496
aa(lp5944
Vspine_03
p5945
aF0.64662304007701621
aa(lp5946
VWingL
p5947
aF0.024403609087781025
aa(lp5948
Vclavicle_l
p5949
aF0.32164694535870442
aa(lp5950
Vupperarm_l
p5951
aF0.0035909759941942562
aaa(lp5952
I544
a(lp5953
Vspine_02
p5954
aF0.0027293109312434664
aa(lp5955
Vspine_03
p5956
aF0.51939705288204252
aa(lp5957
VWingL
p5958
aF0.018342446702310642
aa(lp5959
Vclavicle_l
p5960
aF0.45260562902191903
aa(lp5961
Vupperarm_l
p5962
aF0.0069255604624842027
aaa(lp5963
I545
a(lp5964
Vspine_02
p5965
aF0.006080718063993803
aa(lp5966
Vspine_03
p5967
aF0.49014352730357919
aa(lp5968
VWingL
p5969
aF0.49014352730357919
aa(lp5970
VWingR
p5971
aF0.0039022212739878437
aa(lp5972
Vclavicle_l
p5973
aF0.0097300060548599892
aaa(lp5974
I546
a(lp5975
Vspine_02
p5976
aF0.016407915655941928
aa(lp5977
Vspine_03
p5978
aF0.6202237123802703
aa(lp5979
VWingL
p5980
aF0.18988316932930485
aa(lp5981
VWingR
p5982
aF0.015314441567607666
aa(lp5983
Vclavicle_l
p5984
aF0.15817076106687536
aaa(lp5985
I547
a(lp5986
Vspine_02
p5987
aF0.011877513113445671
aa(lp5988
Vspine_03
p5989
aF0.48784416633049815
aa(lp5990
VWingL
p5991
aF0.48187861187237674
aa(lp5992
VWingR
p5993
aF0.014632590335753821
aa(lp5994
Vclavicle_l
p5995
aF0.0037671183479256469
aaa(lp5996
I548
a(lp5997
Vspine_02
p5998
aF0.033711123387248541
aa(lp5999
Vspine_03
p6000
aF0.4304186604522523
aa(lp6001
VWingL
p6002
aF0.4304186604522523
aa(lp6003
VWingR
p6004
aF0.046560235112133037
aa(lp6005
Vclavicle_l
p6006
aF0.058891320596113995
aaa(lp6007
I549
a(lp6008
Vspine_02
p6009
aF0.065165609909713262
aa(lp6010
Vspine_03
p6011
aF0.34435091807910473
aa(lp6012
VWingL
p6013
aF0.27849076790024124
aa(lp6014
VWingR
p6015
aF0.30164258999151833
aa(lp6016
Vclavicle_l
p6017
aF0.010350114119422524
aaa(lp6018
I550
a(lp6019
Vspine_02
p6020
aF0.066666091985311204
aa(lp6021
Vspine_03
p6022
aF0.34572850502886943
aa(lp6023
VWingL
p6024
aF0.33561606648590575
aa(lp6025
VWingR
p6026
aF0.2131191635385459
aa(lp6027
Vclavicle_l
p6028
aF0.038870172961367799
aaa(lp6029
I551
a(lp6030
Vspine_02
p6031
aF0.010044334710347486
aa(lp6032
Vspine_03
p6033
aF0.62734613394099115
aa(lp6034
VWingL
p6035
aF0.046950120398172139
aa(lp6036
VWingR
p6037
aF0.011965213780252362
aa(lp6038
Vclavicle_l
p6039
aF0.30369419717023682
aaa(lp6040
I552
a(lp6041
Vspine_03
p6042
aF0.53682089500835262
aa(lp6043
VWingL
p6044
aF0.033320837723139991
aa(lp6045
Vclavicle_l
p6046
aF0.39167342423057966
aa(lp6047
Vclavicle_r
p6048
aF0.021064752057347431
aa(lp6049
Vneck_01
p6050
aF0.017120090980580215
aaa(lp6051
I553
a(lp6052
Vspine_03
p6053
aF0.57127251903362053
aa(lp6054
VWingL
p6055
aF0.013363726742766485
aa(lp6056
VWingR
p6057
aF0.0039015987084968771
aa(lp6058
Vclavicle_l
p6059
aF0.40720816810022553
aa(lp6060
Vneck_01
p6061
aF0.0042539874148906425
aaa(lp6062
I554
a(lp6063
Vspine_02
p6064
aF0.027859279502803258
aa(lp6065
Vspine_03
p6066
aF0.5932846373110342
aa(lp6067
VWingL
p6068
aF0.14327671208224005
aa(lp6069
VWingR
p6070
aF0.041553905104481224
aa(lp6071
Vclavicle_l
p6072
aF0.19402546599944134
aaa(lp6073
I555
a(lp6074
Vspine_03
p6075
aF0.55802872284937288
aa(lp6076
VWingL
p6077
aF0.064814860155165521
aa(lp6078
VWingR
p6079
aF0.034849615197337404
aa(lp6080
Vclavicle_l
p6081
aF0.30730719822584412
aa(lp6082
Vclavicle_r
p6083
aF0.034999603572279915
aaa(lp6084
I556
a(lp6085
Vspine_02
p6086
aF0.058208187271277065
aa(lp6087
Vspine_03
p6088
aF0.4516418664900384
aa(lp6089
VWingL
p6090
aF0.22503281887151624
aa(lp6091
VWingR
p6092
aF0.13762993210361082
aa(lp6093
Vclavicle_l
p6094
aF0.12748719526355742
aaa(lp6095
I557
a(lp6096
Vspine_03
p6097
aF0.50705246359019862
aa(lp6098
VWingL
p6099
aF0.10964101284455723
aa(lp6100
VWingR
p6101
aF0.081553692676780296
aa(lp6102
Vclavicle_l
p6103
aF0.23221870029826513
aa(lp6104
Vclavicle_r
p6105
aF0.069534130590198834
aaa(lp6106
I558
a(lp6107
Vspine_03
p6108
aF0.33749373159892743
aa(lp6109
VWingL
p6110
aF0.19098573344842387
aa(lp6111
VWingR
p6112
aF0.29385701997851521
aa(lp6113
Vclavicle_l
p6114
aF0.089898601428329464
aa(lp6115
Vclavicle_r
p6116
aF0.087764913545803944
aaa(lp6117
I559
a(lp6118
Vspine_03
p6119
aF0.40078872913509916
aa(lp6120
VWingL
p6121
aF0.12931892253999713
aa(lp6122
VWingR
p6123
aF0.15986491459086008
aa(lp6124
Vclavicle_l
p6125
aF0.1737123506935345
aa(lp6126
Vclavicle_r
p6127
aF0.13631508304050918
aaa(lp6128
I560
a(lp6129
Vroot
p6130
aF0.0084855213519150034
aa(lp6131
VTail1
p6132
aF0.036717451980439492
aa(lp6133
VTail2
p6134
aF0.47354112922029218
aa(lp6135
VTail3
p6136
aF0.4735411292202924
aa(lp6137
Vcalf_l
p6138
aF0.0077147682270608817
aaa(lp6139
I561
a(lp6140
Vroot
p6141
aF0.0085358829362727241
aa(lp6142
VTail1
p6143
aF0.038180988502603104
aa(lp6144
VTail2
p6145
aF0.47281924551579829
aa(lp6146
VTail3
p6147
aF0.47281924551579829
aa(lp6148
Vcalf_l
p6149
aF0.007644637529527658
aaa(lp6150
I562
a(lp6151
Vroot
p6152
aF0.008259410948158772
aa(lp6153
VTail1
p6154
aF0.038219286752122675
aa(lp6155
VTail2
p6156
aF0.47316891950255735
aa(lp6157
VTail3
p6158
aF0.47316891950255735
aa(lp6159
Vcalf_l
p6160
aF0.0071834632946039039
aaa(lp6161
I563
a(lp6162
Vroot
p6163
aF0.0080071948388933112
aa(lp6164
VTail1
p6165
aF0.037864922376050159
aa(lp6166
VTail2
p6167
aF0.47368473024499086
aa(lp6168
VTail3
p6169
aF0.47368473024499108
aa(lp6170
Vcalf_l
p6171
aF0.0067584222950746028
aaa(lp6172
I564
a(lp6173
Vroot
p6174
aF0.0076365365268110845
aa(lp6175
VTail1
p6176
aF0.036031904178969038
aa(lp6177
VTail2
p6178
aF0.47500446048692746
aa(lp6179
VTail3
p6180
aF0.47500446048692746
aa(lp6181
Vcalf_l
p6182
aF0.0063226383203649986
aaa(lp6183
I565
a(lp6184
Vspine_03
p6185
aF0.46787853320318645
aa(lp6186
VWingL
p6187
aF0.050486480102064205
aa(lp6188
Vclavicle_l
p6189
aF0.34527202698804349
aa(lp6190
Vclavicle_r
p6191
aF0.087800525668483384
aa(lp6192
Vneck_01
p6193
aF0.048562434038222489
aaa(lp6194
I566
a(lp6195
Vspine_03
p6196
aF0.45625910102241068
aa(lp6197
VWingL
p6198
aF0.040848070789402405
aa(lp6199
Vclavicle_l
p6200
aF0.3642594691628348
aa(lp6201
Vclavicle_r
p6202
aF0.083081926361832092
aa(lp6203
Vneck_01
p6204
aF0.055551432663520028
aaa(lp6205
I567
a(lp6206
Vspine_03
p6207
aF0.45446768103761681
aa(lp6208
VWingL
p6209
aF0.064741731094834915
aa(lp6210
VWingR
p6211
aF0.06243127584641113
aa(lp6212
Vclavicle_l
p6213
aF0.29846853049841743
aa(lp6214
Vclavicle_r
p6215
aF0.11989078152271967
aaa(lp6216
I568
a(lp6217
Vspine_03
p6218
aF0.40393291907067008
aa(lp6219
VWingL
p6220
aF0.076505561721936413
aa(lp6221
VWingR
p6222
aF0.090789320273715016
aa(lp6223
Vclavicle_l
p6224
aF0.24882693889129631
aa(lp6225
Vclavicle_r
p6226
aF0.1799452600423822
aaa(lp6227
I569
a(lp6228
Vspine_03
p6229
aF0.39177816585709863
aa(lp6230
VWingL
p6231
aF0.069558737907185128
aa(lp6232
VWingR
p6233
aF0.099912229234036337
aa(lp6234
Vclavicle_l
p6235
aF0.19989933554912936
aa(lp6236
Vclavicle_r
p6237
aF0.23885153145255067
aaa(lp6238
I570
a(lp6239
Vroot
p6240
aF0.0073681010833057383
aa(lp6241
VTail1
p6242
aF0.033328716876687259
aa(lp6243
VTail2
p6244
aF0.47608066041681657
aa(lp6245
VTail3
p6246
aF0.47608066041681657
aa(lp6247
Vcalf_l
p6248
aF0.0071418612063738496
aaa(lp6249
I571
a(lp6250
Vroot
p6251
aF0.0067622877799911468
aa(lp6252
VTail1
p6253
aF0.033310925595658007
aa(lp6254
VTail2
p6255
aF0.4767019645160413
aa(lp6256
VTail3
p6257
aF0.4767019645160413
aa(lp6258
Vcalf_l
p6259
aF0.0065228575922682578
aaa(lp6260
I572
a(lp6261
Vroot
p6262
aF0.0067169342544544375
aa(lp6263
VTail1
p6264
aF0.033144449803162883
aa(lp6265
VTail2
p6266
aF0.476988041036844
aa(lp6267
VTail3
p6268
aF0.47698804103684422
aa(lp6269
Vcalf_l
p6270
aF0.0061625338686943755
aaa(lp6271
I573
a(lp6272
Vroot
p6273
aF0.0070164739129672622
aa(lp6274
VTail1
p6275
aF0.031866590797589106
aa(lp6276
VTail2
p6277
aF0.47732494619259458
aa(lp6278
VTail3
p6279
aF0.47732494619259458
aa(lp6280
Vcalf_l
p6281
aF0.0064670429042544423
aaa(lp6282
I574
a(lp6283
Vroot
p6284
aF0.0062523128087156174
aa(lp6285
VTail1
p6286
aF0.034734277428408178
aa(lp6287
VTail2
p6288
aF0.47670863731016022
aa(lp6289
VTail3
p6290
aF0.47670863731016022
aa(lp6291
Vcalf_l
p6292
aF0.0055961351425558485
aaa(lp6293
I575
a(lp6294
Vroot
p6295
aF0.00624349887152133
aa(lp6296
VTail1
p6297
aF0.033346877149675068
aa(lp6298
VTail2
p6299
aF0.47750180838038242
aa(lp6300
VTail3
p6301
aF0.47750180838038231
aa(lp6302
Vcalf_l
p6303
aF0.0054060072180389124
aaa(lp6304
I576
a(lp6305
Vroot
p6306
aF0.0066361151520116894
aa(lp6307
VTail1
p6308
aF0.032114266839867872
aa(lp6309
VTail2
p6310
aF0.47769501511854245
aa(lp6311
VTail3
p6312
aF0.47769501511854234
aa(lp6313
Vcalf_l
p6314
aF0.0058595877710355734
aaa(lp6315
I577
a(lp6316
Vroot
p6317
aF0.0054689402412590555
aa(lp6318
VTail1
p6319
aF0.033159377361825594
aa(lp6320
VTail2
p6321
aF0.47842260758092164
aa(lp6322
VTail3
p6323
aF0.47842260758092164
aa(lp6324
Vcalf_l
p6325
aF0.0045264672350720618
aaa(lp6326
I578
a(lp6327
Vroot
p6328
aF0.0056046606833623225
aa(lp6329
VTail1
p6330
aF0.031575742554389635
aa(lp6331
VTail2
p6332
aF0.47913481560523186
aa(lp6333
VTail3
p6334
aF0.47913481560523186
aa(lp6335
Vcalf_l
p6336
aF0.0045499655517843443
aaa(lp6337
I579
a(lp6338
Vroot
p6339
aF0.0062442236708357265
aa(lp6340
VTail1
p6341
aF0.031728583157867855
aa(lp6342
VTail2
p6343
aF0.47838145765004159
aa(lp6344
VTail3
p6345
aF0.47838145765004181
aa(lp6346
Vcalf_l
p6347
aF0.0052642778712129407
aaa(lp6348
I580
a(lp6349
Vroot
p6350
aF0.0046212618051865882
aa(lp6351
Vpelvis
p6352
aF0.0037306802148528028
aa(lp6353
VTail1
p6354
aF0.029713744090230164
aa(lp6355
VTail2
p6356
aF0.48096715694486519
aa(lp6357
VTail3
p6358
aF0.48096715694486519
aaa(lp6359
I581
a(lp6360
Vroot
p6361
aF0.0053476692008958323
aa(lp6362
Vpelvis
p6363
aF0.0042476185005196352
aa(lp6364
VTail1
p6365
aF0.03104187749901648
aa(lp6366
VTail2
p6367
aF0.47968141739978409
aa(lp6368
VTail3
p6369
aF0.47968141739978398
aaa(lp6370
I582
a(lp6371
Vroot
p6372
aF0.0058746641445619951
aa(lp6373
VTail1
p6374
aF0.030735622047848573
aa(lp6375
VTail2
p6376
aF0.47933073149806216
aa(lp6377
VTail3
p6378
aF0.47933073149806216
aa(lp6379
Vcalf_l
p6380
aF0.0047282508114651111
aaa(lp6381
I583
a(lp6382
Vroot
p6383
aF0.007050945715022682
aa(lp6384
VTail1
p6385
aF0.034641188788420055
aa(lp6386
VTail2
p6387
aF0.47556341054945095
aa(lp6388
VTail3
p6389
aF0.47556341054945117
aa(lp6390
Vcalf_l
p6391
aF0.007181044397655028
aaa(lp6392
I584
a(lp6393
Vroot
p6394
aF0.0065728097026174371
aa(lp6395
VTail1
p6396
aF0.038041603169108089
aa(lp6397
VTail2
p6398
aF0.47447123664672441
aa(lp6399
VTail3
p6400
aF0.4744712366467243
aa(lp6401
Vcalf_l
p6402
aF0.0064431138348257132
aaa(lp6403
I585
a(lp6404
Vroot
p6405
aF0.0061997246467108856
aa(lp6406
VTail1
p6407
aF0.035257297451596191
aa(lp6408
VTail2
p6409
aF0.47638469923862947
aa(lp6410
VTail3
p6411
aF0.47638469923862936
aa(lp6412
Vcalf_l
p6413
aF0.005773579424434132
aaa(lp6414
I586
a(lp6415
Vroot
p6416
aF0.0087909154311687325
aa(lp6417
VTail1
p6418
aF0.04115475217020427
aa(lp6419
VTail2
p6420
aF0.47078190907904899
aa(lp6421
VTail3
p6422
aF0.47078190907904899
aa(lp6423
Vcalf_l
p6424
aF0.0084905142405289624
aaa(lp6425
I587
a(lp6426
Vroot
p6427
aF0.0082556193315929602
aa(lp6428
VTail1
p6429
aF0.042422143463287508
aa(lp6430
VTail2
p6431
aF0.47091710379490587
aa(lp6432
VTail3
p6433
aF0.47091710379490587
aa(lp6434
Vcalf_l
p6435
aF0.0074880296153077832
aaa(lp6436
I588
a(lp6437
Vroot
p6438
aF0.0075474282225988761
aa(lp6439
VTail1
p6440
aF0.041586632729156803
aa(lp6441
VTail2
p6442
aF0.47223346474242101
aa(lp6443
VTail3
p6444
aF0.47223346474242089
aa(lp6445
Vcalf_l
p6446
aF0.0063990095634024278
aaa(lp6447
I589
a(lp6448
Vroot
p6449
aF0.0068250331137439382
aa(lp6450
Vpelvis
p6451
aF0.005752329191024157
aa(lp6452
VTail1
p6453
aF0.039223064520361617
aa(lp6454
VTail2
p6455
aF0.47409978658743512
aa(lp6456
VTail3
p6457
aF0.47409978658743512
aaa(lp6458
I590
a(lp6459
Vroot
p6460
aF0.0085396299373114715
aa(lp6461
VTail1
p6462
aF0.044049682186555361
aa(lp6463
VTail2
p6464
aF0.46939012293997057
aa(lp6465
VTail3
p6466
aF0.46939012293997079
aa(lp6467
Vcalf_l
p6468
aF0.0086304419961917896
aaa(lp6469
I591
a(lp6470
Vroot
p6471
aF0.007664967091693735
aa(lp6472
VTail1
p6473
aF0.046156366072336134
aa(lp6474
VTail2
p6475
aF0.46959917340690538
aa(lp6476
VTail3
p6477
aF0.46959917340690538
aa(lp6478
Vcalf_l
p6479
aF0.0069803200221594123
aaa(lp6480
I592
a(lp6481
Vroot
p6482
aF0.0063550934200175702
aa(lp6483
Vpelvis
p6484
aF0.0055649929073806528
aa(lp6485
VTail1
p6486
aF0.043432787580177774
aa(lp6487
VTail2
p6488
aF0.47232356304621204
aa(lp6489
VTail3
p6490
aF0.47232356304621192
aaa(lp6491
I593
a(lp6492
Vroot
p6493
aF0.0051390899197328041
aa(lp6494
Vpelvis
p6495
aF0.0046097517891548227
aa(lp6496
VTail1
p6497
aF0.038483304170256222
aa(lp6498
VTail2
p6499
aF0.47588392706042815
aa(lp6500
VTail3
p6501
aF0.47588392706042815
aaa(lp6502
I594
a(lp6503
VTail1
p6504
aF0.065145530553482683
aa(lp6505
VTail2
p6506
aF0.45684884439047274
aa(lp6507
VTail3
p6508
aF0.45684884439047274
aa(lp6509
Vthigh_l
p6510
aF0.010588134406305542
aa(lp6511
Vcalf_l
p6512
aF0.010568646259266396
aaa(lp6513
I595
a(lp6514
Vroot
p6515
aF0.0084813661851809267
aa(lp6516
VTail1
p6517
aF0.068278394715203666
aa(lp6518
VTail2
p6519
aF0.45886838980153366
aa(lp6520
VTail3
p6521
aF0.45661042335447982
aa(lp6522
Vthigh_l
p6523
aF0.0077614259436018752
aaa(lp6524
I596
a(lp6525
Vroot
p6526
aF0.0061133923787133502
aa(lp6527
Vpelvis
p6528
aF0.005915248114271859
aa(lp6529
VTail1
p6530
aF0.062541022650730554
aa(lp6531
VTail2
p6532
aF0.47263402932451098
aa(lp6533
VTail3
p6534
aF0.45279630753177325
aaa(lp6535
I597
a(lp6536
Vroot
p6537
aF0.0047090514073491428
aa(lp6538
Vpelvis
p6539
aF0.0047903844924050022
aa(lp6540
VTail1
p6541
aF0.057675617320824851
aa(lp6542
VTail2
p6543
aF0.48961122251915384
aa(lp6544
VTail3
p6545
aF0.44321372426026728
aaa(lp6546
I598
a(lp6547
Vroot
p6548
aF0.019909104230814299
aa(lp6549
VTail1
p6550
aF0.16844778317748949
aa(lp6551
VTail2
p6552
aF0.43742885768176071
aa(lp6553
VTail3
p6554
aF0.35115256053006699
aa(lp6555
Vthigh_l
p6556
aF0.023061694379868412
aaa(lp6557
I599
a(lp6558
Vroot
p6559
aF0.015079067835045467
aa(lp6560
Vpelvis
p6561
aF0.01703408091910948
aa(lp6562
VTail1
p6563
aF0.18402316736044944
aa(lp6564
VTail2
p6565
aF0.47511359466224407
aa(lp6566
VTail3
p6567
aF0.30875008922315156
aaa(lp6568
I600
a(lp6569
Vroot
p6570
aF0.01006147618523027
aa(lp6571
Vpelvis
p6572
aF0.012786616239475855
aa(lp6573
VTail1
p6574
aF0.19293750034115331
aa(lp6575
VTail2
p6576
aF0.53642585588745995
aa(lp6577
VTail3
p6578
aF0.24778855134668071
aaa(lp6579
I601
a(lp6580
Vroot
p6581
aF0.0078945299981953536
aa(lp6582
Vpelvis
p6583
aF0.01113901772024932
aa(lp6584
VTail1
p6585
aF0.21168911294397114
aa(lp6586
VTail2
p6587
aF0.5777002956284345
aa(lp6588
VTail3
p6589
aF0.1915770437091498
aaa(lp6590
I602
a(lp6591
Vpelvis
p6592
aF0.050427959089066304
aa(lp6593
VTail1
p6594
aF0.34586399110448574
aa(lp6595
VTail2
p6596
aF0.39589802803747526
aa(lp6597
VTail3
p6598
aF0.14944405589827003
aa(lp6599
Vthigh_l
p6600
aF0.058365965870702655
aaa(lp6601
I603
a(lp6602
Vpelvis
p6603
aF0.044680507297004082
aa(lp6604
VTail1
p6605
aF0.39058868106521216
aa(lp6606
VTail2
p6607
aF0.42837254638815531
aa(lp6608
VTail3
p6609
aF0.1070950938837799
aa(lp6610
Vthigh_l
p6611
aF0.029263171365848533
aaa(lp6612
I604
a(lp6613
Vroot
p6614
aF0.017673934569973342
aa(lp6615
Vpelvis
p6616
aF0.036971876670654442
aa(lp6617
VTail1
p6618
aF0.43249132414762576
aa(lp6619
VTail2
p6620
aF0.44990448396408883
aa(lp6621
VTail3
p6622
aF0.062958380647657686
aaa(lp6623
I605
a(lp6624
Vroot
p6625
aF0.014079499609533015
aa(lp6626
Vpelvis
p6627
aF0.036149562370792636
aa(lp6628
VTail1
p6629
aF0.4534247436329793
aa(lp6630
VTail2
p6631
aF0.45434099329883559
aa(lp6632
VTail3
p6633
aF0.04200520108785933
aaa(lp6634
I606
a(lp6635
Vroot
p6636
aF0.080637959739863665
aa(lp6637
Vpelvis
p6638
aF0.12224964837391585
aa(lp6639
VTail1
p6640
aF0.32308126215119898
aa(lp6641
VTail2
p6642
aF0.2860019126658655
aa(lp6643
Vthigh_l
p6644
aF0.18802921706915598
aaa(lp6645
I607
a(lp6646
Vroot
p6647
aF0.059968285345568334
aa(lp6648
Vpelvis
p6649
aF0.14740710960488138
aa(lp6650
VTail1
p6651
aF0.41104990753971554
aa(lp6652
VTail2
p6653
aF0.3049244348266425
aa(lp6654
Vthigh_l
p6655
aF0.076650262683192277
aaa(lp6656
I608
a(lp6657
Vroot
p6658
aF0.042949728482498818
aa(lp6659
Vpelvis
p6660
aF0.1682605254256965
aa(lp6661
VTail1
p6662
aF0.48667829745168617
aa(lp6663
VTail2
p6664
aF0.27202407685592306
aa(lp6665
Vthigh_l
p6666
aF0.030087371784195547
aaa(lp6667
I609
a(lp6668
Vroot
p6669
aF0.037769372552898951
aa(lp6670
Vpelvis
p6671
aF0.1919409619070096
aa(lp6672
VTail1
p6673
aF0.51857229321315734
aa(lp6674
VTail2
p6675
aF0.23350572004075523
aa(lp6676
VTail3
p6677
aF0.018211652286179009
aaa(lp6678
I610
a(lp6679
Vroot
p6680
aF0.0941386913309845
aa(lp6681
Vpelvis
p6682
aF0.1900060325691828
aa(lp6683
VTail1
p6684
aF0.18341186755298836
aa(lp6685
VTail2
p6686
aF0.084135899515686091
aa(lp6687
Vthigh_l
p6688
aF0.44830750903115824
aaa(lp6689
I611
a(lp6690
Vroot
p6691
aF0.099747173639388231
aa(lp6692
Vpelvis
p6693
aF0.29281207447811236
aa(lp6694
VTail1
p6695
aF0.33583513840642237
aa(lp6696
VTail2
p6697
aF0.10483666632385198
aa(lp6698
Vthigh_l
p6699
aF0.16676894715222501
aaa(lp6700
I612
a(lp6701
Vroot
p6702
aF0.079379028006530891
aa(lp6703
Vpelvis
p6704
aF0.36681903848395842
aa(lp6705
VTail1
p6706
aF0.40959555398962916
aa(lp6707
VTail2
p6708
aF0.087873753281217118
aa(lp6709
Vthigh_l
p6710
aF0.056332626238664377
aaa(lp6711
I613
a(lp6712
Vroot
p6713
aF0.071782308087001215
aa(lp6714
Vpelvis
p6715
aF0.39429697527072327
aa(lp6716
VTail1
p6717
aF0.42822021995588222
aa(lp6718
VTail2
p6719
aF0.077720679995135336
aa(lp6720
Vthigh_l
p6721
aF0.027979816691258028
aaa(lp6722
I614
a(lp6723
Vroot
p6724
aF0.035090899874462476
aa(lp6725
Vpelvis
p6726
aF0.45938663524296036
aa(lp6727
VTail1
p6728
aF0.03068310417265387
aa(lp6729
Vlowerarm_l
p6730
aF0.015452725466962993
aa(lp6731
Vthigh_l
p6732
aF0.45938663524296036
aaa(lp6733
I615
a(lp6734
Vroot
p6735
aF0.12706358789632541
aa(lp6736
Vpelvis
p6737
aF0.32337671479389057
aa(lp6738
VTail1
p6739
aF0.20943632440293969
aa(lp6740
VTail2
p6741
aF0.033247240049973134
aa(lp6742
Vthigh_l
p6743
aF0.30687613285687115
aaa(lp6744
I616
a(lp6745
Vroot
p6746
aF0.15265433635712808
aa(lp6747
Vpelvis
p6748
aF0.3743951858548028
aa(lp6749
VTail1
p6750
aF0.32361254520326449
aa(lp6751
VTail2
p6752
aF0.039169896983390316
aa(lp6753
Vthigh_l
p6754
aF0.11016803560141432
aaa(lp6755
I617
a(lp6756
Vroot
p6757
aF0.15213416351238546
aa(lp6758
Vpelvis
p6759
aF0.41195379572758545
aa(lp6760
VTail1
p6761
aF0.34694121796361271
aa(lp6762
VTail2
p6763
aF0.038484939122049512
aa(lp6764
Vthigh_l
p6765
aF0.050485883674366822
aaa(lp6766
I618
a(lp6767
Vroot
p6768
aF0.042648049398947799
aa(lp6769
Vpelvis
p6770
aF0.45717119313126559
aa(lp6771
VTail1
p6772
aF0.02213833082583657
aa(lp6773
Vlowerarm_l
p6774
aF0.020871233512684714
aa(lp6775
Vthigh_l
p6776
aF0.45717119313126536
aaa(lp6777
I619
a(lp6778
Vroot
p6779
aF0.15844125052377897
aa(lp6780
Vpelvis
p6781
aF0.40547588979784516
aa(lp6782
VTail1
p6783
aF0.079064366829504726
aa(lp6784
Vspine_01
p6785
aF0.026743158748968428
aa(lp6786
Vthigh_l
p6787
aF0.33027533409990278
aaa(lp6788
I620
a(lp6789
Vroot
p6790
aF0.3130777163340015
aa(lp6791
Vpelvis
p6792
aF0.36268216243626389
aa(lp6793
VTail1
p6794
aF0.13801422496319785
aa(lp6795
Vspine_01
p6796
aF0.039372340905487038
aa(lp6797
Vthigh_l
p6798
aF0.14685355536104969
aaa(lp6799
I621
a(lp6800
Vroot
p6801
aF0.34951880355532527
aa(lp6802
Vpelvis
p6803
aF0.39981954517091439
aa(lp6804
VTail1
p6805
aF0.14721675694306643
aa(lp6806
Vspine_01
p6807
aF0.039150048224709071
aa(lp6808
Vthigh_l
p6809
aF0.064294846105984821
aaa(lp6810
I622
a(lp6811
Vroot
p6812
aF0.13114857065980232
aa(lp6813
Vpelvis
p6814
aF0.32445590913330574
aa(lp6815
Vlowerarm_l
p6816
aF0.12463145735689
aa(lp6817
Vlowerarm_twist_01_l
p6818
aF0.10463871675426882
aa(lp6819
Vthigh_l
p6820
aF0.31512534609573312
aaa(lp6821
I623
a(lp6822
Vroot
p6823
aF0.23482680011076432
aa(lp6824
Vpelvis
p6825
aF0.32354071082478936
aa(lp6826
VTail1
p6827
aF0.055461120206406311
aa(lp6828
Vspine_01
p6829
aF0.1542775067957366
aa(lp6830
Vthigh_l
p6831
aF0.23189386206230328
aaa(lp6832
I624
a(lp6833
Vroot
p6834
aF0.28055011647509864
aa(lp6835
Vpelvis
p6836
aF0.41449843588810575
aa(lp6837
VTail1
p6838
aF0.048739180179787574
aa(lp6839
Vspine_01
p6840
aF0.16513103452446679
aa(lp6841
Vthigh_l
p6842
aF0.091081232932541167
aaa(lp6843
I625
a(lp6844
Vroot
p6845
aF0.2942162828236739
aa(lp6846
Vpelvis
p6847
aF0.4632772861280694
aa(lp6848
VTail1
p6849
aF0.043589351554963969
aa(lp6850
Vspine_01
p6851
aF0.15674070412459284
aa(lp6852
Vthigh_l
p6853
aF0.042176375368699733
aaa(lp6854
I626
a(lp6855
Vpelvis
p6856
aF0.28192189114535737
aa(lp6857
Vspine_01
p6858
aF0.27174450179846804
aa(lp6859
Vupperarm_l
p6860
aF0.12069873622636509
aa(lp6861
Vlowerarm_l
p6862
aF0.19325541366732465
aa(lp6863
Vthigh_l
p6864
aF0.13237945716248478
aaa(lp6865
I627
a(lp6866
Vroot
p6867
aF0.11542065675893554
aa(lp6868
Vpelvis
p6869
aF0.37322097687871808
aa(lp6870
Vspine_01
p6871
aF0.35731240068949233
aa(lp6872
Vspine_02
p6873
aF0.078016157039407064
aa(lp6874
Vthigh_l
p6875
aF0.076029808633447035
aaa(lp6876
I628
a(lp6877
Vroot
p6878
aF0.091626504647213752
aa(lp6879
Vpelvis
p6880
aF0.42400717385281339
aa(lp6881
Vspine_01
p6882
aF0.39756465845495698
aa(lp6883
Vspine_02
p6884
aF0.055452008579729289
aa(lp6885
Vthigh_l
p6886
aF0.031349654465286661
aaa(lp6887
I629
a(lp6888
Vroot
p6889
aF0.081084755887337059
aa(lp6890
Vpelvis
p6891
aF0.44953639859267797
aa(lp6892
Vspine_01
p6893
aF0.40942733028405121
aa(lp6894
Vspine_02
p6895
aF0.043183444306216928
aa(lp6896
Vthigh_l
p6897
aF0.016768070929716834
aaa(lp6898
I630
a(lp6899
Vpelvis
p6900
aF0.18324665051500477
aa(lp6901
Vspine_01
p6902
aF0.21370913423728524
aa(lp6903
Vspine_02
p6904
aF0.12920979593018592
aa(lp6905
Vupperarm_l
p6906
aF0.23691720965876223
aa(lp6907
Vupperarm_twist_01_l
p6908
aF0.23691720965876201
aaa(lp6909
I631
a(lp6910
Vpelvis
p6911
aF0.28178601862324404
aa(lp6912
Vspine_01
p6913
aF0.34136613024994955
aa(lp6914
Vspine_02
p6915
aF0.17025442898431042
aa(lp6916
Vupperarm_l
p6917
aF0.10329671107124799
aa(lp6918
Vupperarm_twist_01_l
p6919
aF0.10329671107124799
aaa(lp6920
I632
a(lp6921
Vpelvis
p6922
aF0.33827278539430788
aa(lp6923
Vspine_01
p6924
aF0.42724350990196108
aa(lp6925
Vspine_02
p6926
aF0.16112119427455732
aa(lp6927
Vupperarm_l
p6928
aF0.036681255214586872
aa(lp6929
Vupperarm_twist_01_l
p6930
aF0.036681255214586872
aaa(lp6931
I633
a(lp6932
Vroot
p6933
aF0.024250675377042868
aa(lp6934
Vpelvis
p6935
aF0.36206709409056959
aa(lp6936
Vspine_01
p6937
aF0.45778503600739612
aa(lp6938
Vspine_02
p6939
aF0.13768130128669484
aa(lp6940
Vspine_03
p6941
aF0.018215893238296622
aaa(lp6942
I634
a(lp6943
Vspine_01
p6944
aF0.10691971352234005
aa(lp6945
Vspine_02
p6946
aF0.10290903930013934
aa(lp6947
Vclavicle_l
p6948
aF0.13478386647678767
aa(lp6949
Vupperarm_l
p6950
aF0.37818638256077081
aa(lp6951
Vupperarm_twist_01_l
p6952
aF0.27720099813996207
aaa(lp6953
I635
a(lp6954
Vpelvis
p6955
aF0.10509998362029956
aa(lp6956
Vspine_01
p6957
aF0.28817983674546865
aa(lp6958
Vspine_02
p6959
aF0.26958563105037536
aa(lp6960
Vupperarm_l
p6961
aF0.17647265218037012
aa(lp6962
Vupperarm_twist_01_l
p6963
aF0.16066189640348624
aaa(lp6964
I636
a(lp6965
Vpelvis
p6966
aF0.10910828818054771
aa(lp6967
Vspine_01
p6968
aF0.41673737057227356
aa(lp6969
Vspine_02
p6970
aF0.36736607362574986
aa(lp6971
Vspine_03
p6972
aF0.054312936626613031
aa(lp6973
Vupperarm_l
p6974
aF0.052475330994815855
aaa(lp6975
I637
a(lp6976
Vpelvis
p6977
aF0.096323253754605792
aa(lp6978
Vspine_01
p6979
aF0.46745923548185114
aa(lp6980
Vspine_02
p6981
aF0.37848498435236116
aa(lp6982
Vspine_03
p6983
aF0.037138639318060843
aa(lp6984
VWingL
p6985
aF0.020593887093121082
aaa(lp6986
I638
a(lp6987
Vspine_01
p6988
aF0.03368092070335444
aa(lp6989
Vspine_02
p6990
aF0.037377526686989071
aa(lp6991
Vclavicle_l
p6992
aF0.22142501620733493
aa(lp6993
Vupperarm_l
p6994
aF0.60055071847685459
aa(lp6995
Vupperarm_twist_01_l
p6996
aF0.10696581792546701
aaa(lp6997
I639
a(lp6998
Vspine_01
p6999
aF0.17943741579995592
aa(lp7000
Vspine_02
p7001
aF0.20071637626077385
aa(lp7002
Vclavicle_l
p7003
aF0.22244837644063845
aa(lp7004
Vupperarm_l
p7005
aF0.27288236742394428
aa(lp7006
Vupperarm_twist_01_l
p7007
aF0.12451546407468754
aaa(lp7008
I640
a(lp7009
Vspine_01
p7010
aF0.33267334076275223
aa(lp7011
Vspine_02
p7012
aF0.37762079799958959
aa(lp7013
Vspine_03
p7014
aF0.12417967449394683
aa(lp7015
VWingL
p7016
aF0.09673953643711844
aa(lp7017
Vupperarm_l
p7018
aF0.068786650306592909
aaa(lp7019
I641
a(lp7020
Vspine_01
p7021
aF0.3971392717765499
aa(lp7022
Vspine_02
p7023
aF0.45226128078916478
aa(lp7024
Vspine_03
p7025
aF0.082465992072050867
aa(lp7026
VWingL
p7027
aF0.040522505341811309
aa(lp7028
VWingR
p7029
aF0.027610950020423172
aaa(lp7030
I642
a(lp7031
Vspine_03
p7032
aF0.022529003437943469
aa(lp7033
VWingL
p7034
aF0.022529003437943469
aa(lp7035
Vclavicle_l
p7036
aF0.42755898123930031
aa(lp7037
Vupperarm_l
p7038
aF0.51598994808998921
aa(lp7039
Vupperarm_twist_01_l
p7040
aF0.011393063794823598
aaa(lp7041
I643
a(lp7042
Vspine_02
p7043
aF0.092125208402655645
aa(lp7044
Vspine_03
p7045
aF0.21168047070918064
aa(lp7046
VWingL
p7047
aF0.21168047070918064
aa(lp7048
Vclavicle_l
p7049
aF0.24225692508949159
aa(lp7050
Vupperarm_l
p7051
aF0.24225692508949148
aaa(lp7052
I644
a(lp7053
Vspine_01
p7054
aF0.054626319772279858
aa(lp7055
Vspine_02
p7056
aF0.23300943224093529
aa(lp7057
Vspine_03
p7058
aF0.35085765696104887
aa(lp7059
VWingL
p7060
aF0.31287802198328618
aa(lp7061
Vclavicle_l
p7062
aF0.04862856904244979
aaa(lp7063
I645
a(lp7064
Vspine_01
p7065
aF0.06475164662494623
aa(lp7066
Vspine_02
p7067
aF0.43558556007678806
aa(lp7068
Vspine_03
p7069
aF0.30291578861201723
aa(lp7070
VWingL
p7071
aF0.13808779184666636
aa(lp7072
VWingR
p7073
aF0.058659212839582205
aaa(lp7074
I646
a(lp7075
Vspine_02
p7076
aF0.013580685750762836
aa(lp7077
Vspine_03
p7078
aF0.092491605698694898
aa(lp7079
VWingL
p7080
aF0.081048992015727767
aa(lp7081
Vclavicle_l
p7082
aF0.55941960844155536
aa(lp7083
Vupperarm_l
p7084
aF0.25345910809325911
aaa(lp7085
I647
a(lp7086
Vspine_02
p7087
aF0.026982139409618772
aa(lp7088
Vspine_03
p7089
aF0.4365833821189255
aa(lp7090
VWingL
p7091
aF0.4365833821189255
aa(lp7092
Vclavicle_l
p7093
aF0.061837262139818945
aa(lp7094
Vupperarm_l
p7095
aF0.038013834212711407
aaa(lp7096
I648
a(lp7097
Vspine_02
p7098
aF0.0081721421770576449
aa(lp7099
Vspine_03
p7100
aF0.49481059849446046
aa(lp7101
VWingL
p7102
aF0.4933075330067323
aa(lp7103
VWingR
p7104
aF0.0021956478419495459
aa(lp7105
Vclavicle_l
p7106
aF0.0015140784798000745
aaa(lp7107
I649
a(lp7108
Vspine_02
p7109
aF0.073025504937874477
aa(lp7110
Vspine_03
p7111
aF0.64739476414192643
aa(lp7112
VWingL
p7113
aF0.25124510177061765
aa(lp7114
VWingR
p7115
aF0.026465155290108521
aa(lp7116
Vclavicle_l
p7117
aF0.0018694738594728698
aaa(lp7118
I650
a(lp7119
Vspine_02
p7120
aF0.0064221010112362198
aa(lp7121
Vspine_03
p7122
aF0.57005092622331088
aa(lp7123
VWingL
p7124
aF0.058882200561387932
aa(lp7125
Vclavicle_l
p7126
aF0.35265298279391821
aa(lp7127
Vupperarm_l
p7128
aF0.01199178941014682
aaa(lp7129
I651
a(lp7130
Vspine_02
p7131
aF0.014114537342355276
aa(lp7132
Vspine_03
p7133
aF0.45674674840264284
aa(lp7134
VWingL
p7135
aF0.45674674840264273
aa(lp7136
VWingR
p7137
aF0.0083100540565058632
aa(lp7138
Vclavicle_l
p7139
aF0.064081911795853347
aaa(lp7140
I652
a(lp7141
Vspine_02
p7142
aF0.0041580747726112487
aa(lp7143
Vspine_03
p7144
aF0.49490956693085952
aa(lp7145
VWingL
p7146
aF0.49490956693085975
aa(lp7147
VWingR
p7148
aF0.0033310300061853218
aa(lp7149
Vclavicle_l
p7150
aF0.0026917613594840857
aaa(lp7151
I653
a(lp7152
Vspine_02
p7153
aF0.040123196687363284
aa(lp7154
Vspine_03
p7155
aF0.45220974641600542
aa(lp7156
VWingL
p7157
aF0.4026900549528013
aa(lp7158
VWingR
p7159
aF0.096957396984810623
aa(lp7160
Vclavicle_l
p7161
aF0.0080196049590192317
aaa(lp7162
I654
a(lp7163
Vspine_02
p7164
aF0.0057069248202904783
aa(lp7165
Vspine_03
p7166
aF0.59445410416569266
aa(lp7167
VWingL
p7168
aF0.023762269171079743
aa(lp7169
VWingR
p7170
aF0.0064382884059843463
aa(lp7171
Vclavicle_l
p7172
aF0.36963841343695275
aaa(lp7173
I655
a(lp7174
Vspine_02
p7175
aF0.017189466585650116
aa(lp7176
Vspine_03
p7177
aF0.62940886065569213
aa(lp7178
VWingL
p7179
aF0.08725632972178915
aa(lp7180
VWingR
p7181
aF0.022353184373836234
aa(lp7182
Vclavicle_l
p7183
aF0.24379215866303239
aaa(lp7184
I656
a(lp7185
Vspine_02
p7186
aF0.042287066434801457
aa(lp7187
Vspine_03
p7188
aF0.52652786966945087
aa(lp7189
VWingL
p7190
aF0.19776239771072854
aa(lp7191
VWingR
p7192
aF0.07741301221685816
aa(lp7193
Vclavicle_l
p7194
aF0.15600965396816099
aaa(lp7195
I657
a(lp7196
Vspine_02
p7197
aF0.071687876795628755
aa(lp7198
Vspine_03
p7199
aF0.3821791237766804
aa(lp7200
VWingL
p7201
aF0.2177953671870414
aa(lp7202
VWingR
p7203
aF0.22250570019430604
aa(lp7204
Vclavicle_l
p7205
aF0.10583193204634345
aaa(lp7206
I658
a(lp7207
Vroot
p7208
aF0.0087209941344455703
aa(lp7209
VTail1
p7210
aF0.038480176465535816
aa(lp7211
VTail2
p7212
aF0.47241412759682921
aa(lp7213
VTail3
p7214
aF0.4724141275968291
aa(lp7215
Vcalf_l
p7216
aF0.0079705742063603067
aaa(lp7217
I659
a(lp7218
Vroot
p7219
aF0.0084141430772652105
aa(lp7220
VTail1
p7221
aF0.038728835949283544
aa(lp7222
VTail2
p7223
aF0.47270080336804154
aa(lp7224
VTail3
p7225
aF0.47270080336804143
aa(lp7226
Vcalf_l
p7227
aF0.0074554142373682488
aaa(lp7228
I660
a(lp7229
Vroot
p7230
aF0.0081024834523073398
aa(lp7231
VTail1
p7232
aF0.038561628078425184
aa(lp7233
VTail2
p7234
aF0.47320204907389701
aa(lp7235
VTail3
p7236
aF0.47320204907389701
aa(lp7237
Vcalf_l
p7238
aF0.0069317903214734461
aaa(lp7239
I661
a(lp7240
Vroot
p7241
aF0.0078224058089047567
aa(lp7242
VTail1
p7243
aF0.037797703215398784
aa(lp7244
VTail2
p7245
aF0.47394757637689455
aa(lp7246
VTail3
p7247
aF0.47394757637689477
aa(lp7248
Vcalf_l
p7249
aF0.0064847382219070295
aaa(lp7250
I662
a(lp7251
Vspine_03
p7252
aF0.47943654565112476
aa(lp7253
VWingL
p7254
aF0.042693412857716599
aa(lp7255
Vclavicle_l
p7256
aF0.37319205710233094
aa(lp7257
Vclavicle_r
p7258
aF0.062832914495560527
aa(lp7259
Vneck_01
p7260
aF0.041845069893267195
aaa(lp7261
I663
a(lp7262
Vspine_03
p7263
aF0.48410521120557998
aa(lp7264
VWingL
p7265
aF0.058647169700478979
aa(lp7266
VWingR
p7267
aF0.048426956466069461
aa(lp7268
Vclavicle_l
p7269
aF0.32510001300492725
aa(lp7270
Vclavicle_r
p7271
aF0.083720649622944454
aaa(lp7272
I664
a(lp7273
Vspine_03
p7274
aF0.44750386717857094
aa(lp7275
VWingL
p7276
aF0.076786350832349248
aa(lp7277
VWingR
p7278
aF0.077615084668246834
aa(lp7279
Vclavicle_l
p7280
aF0.26926295011104862
aa(lp7281
Vclavicle_r
p7282
aF0.12883174720978441
aaa(lp7283
I665
a(lp7284
Vspine_03
p7285
aF0.37904434238998358
aa(lp7286
VWingL
p7287
aF0.085917233136020968
aa(lp7288
VWingR
p7289
aF0.11317237084134113
aa(lp7290
Vclavicle_l
p7291
aF0.21821433227029563
aa(lp7292
Vclavicle_r
p7293
aF0.20365172136235876
aaa(lp7294
I666
a(lp7295
Vroot
p7296
aF0.0069461457749298685
aa(lp7297
VTail1
p7298
aF0.032662773848667323
aa(lp7299
VTail2
p7300
aF0.47691415514611429
aa(lp7301
VTail3
p7302
aF0.47691415514611429
aa(lp7303
Vcalf_l
p7304
aF0.0065627700841742083
aaa(lp7305
I667
a(lp7306
Vroot
p7307
aF0.0064971965594500091
aa(lp7308
VTail1
p7309
aF0.033456133491880792
aa(lp7310
VTail2
p7311
aF0.47712679293367932
aa(lp7312
VTail3
p7313
aF0.47712679293367932
aa(lp7314
Vcalf_l
p7315
aF0.005793084081310549
aaa(lp7316
I668
a(lp7317
Vroot
p7318
aF0.0059256417119474348
aa(lp7319
VTail1
p7320
aF0.032603809435401303
aa(lp7321
VTail2
p7322
aF0.47824971376600461
aa(lp7323
VTail3
p7324
aF0.47824971376600461
aa(lp7325
Vcalf_l
p7326
aF0.0049711213206420348
aaa(lp7327
I669
a(lp7328
Vroot
p7329
aF0.0053372891131057013
aa(lp7330
VTail1
p7331
aF0.030624637116022431
aa(lp7332
VTail2
p7333
aF0.47992267022412599
aa(lp7334
VTail3
p7335
aF0.47992267022412599
aa(lp7336
Vcalf_l
p7337
aF0.0041927333226199227
aaa(lp7338
I670
a(lp7339
Vroot
p7340
aF0.0065163559945057743
aa(lp7341
VTail1
p7342
aF0.034200185647416531
aa(lp7343
VTail2
p7344
aF0.4764581234085431
aa(lp7345
VTail3
p7346
aF0.47645812340854332
aa(lp7347
Vcalf_l
p7348
aF0.0063672115409911818
aaa(lp7349
I671
a(lp7350
Vroot
p7351
aF0.0058652137674584052
aa(lp7352
VTail1
p7353
aF0.035800422756933188
aa(lp7354
VTail2
p7355
aF0.47656231113395459
aa(lp7356
VTail3
p7357
aF0.47656231113395447
aa(lp7358
Vcalf_l
p7359
aF0.005209741207699385
aaa(lp7360
I672
a(lp7361
Vroot
p7362
aF0.0048403496900952022
aa(lp7363
Vpelvis
p7364
aF0.0039394159939319011
aa(lp7365
VTail1
p7366
aF0.033200837316446179
aa(lp7367
VTail2
p7368
aF0.47900969849976321
aa(lp7369
VTail3
p7370
aF0.47900969849976344
aaa(lp7371
I673
a(lp7372
Vroot
p7373
aF0.0037790084542775652
aa(lp7374
Vpelvis
p7375
aF0.003120820559027444
aa(lp7376
VTail1
p7377
aF0.028092774611255103
aa(lp7378
VTail2
p7379
aF0.48250369818771999
aa(lp7380
VTail3
p7381
aF0.48250369818771999
aaa(lp7382
I674
a(lp7383
Vroot
p7384
aF0.0077325020479977764
aa(lp7385
VTail1
p7386
aF0.051874401875970755
aa(lp7387
VTail2
p7388
aF0.46643746757290122
aa(lp7389
VTail3
p7390
aF0.46643746757290122
aa(lp7391
Vcalf_l
p7392
aF0.0075181609302290816
aaa(lp7393
I675
a(lp7394
Vroot
p7395
aF0.0064455940396704551
aa(lp7396
VTail1
p7397
aF0.054911273317872912
aa(lp7398
VTail2
p7399
aF0.46867299070820467
aa(lp7400
VTail3
p7401
aF0.46435107450843011
aa(lp7402
Vthigh_l
p7403
aF0.0056190674258217669
aaa(lp7404
I676
a(lp7405
Vroot
p7406
aF0.0045679137741211247
aa(lp7407
Vpelvis
p7408
aF0.004109734984936741
aa(lp7409
VTail1
p7410
aF0.048042790546447181
aa(lp7411
VTail2
p7412
aF0.48322395734330104
aa(lp7413
VTail3
p7414
aF0.46005560335119394
aaa(lp7415
I677
a(lp7416
Vroot
p7417
aF0.0033393358177382687
aa(lp7418
Vpelvis
p7419
aF0.003112633352537207
aa(lp7420
VTail1
p7421
aF0.041248830405796584
aa(lp7422
VTail2
p7423
aF0.50093506598296889
aa(lp7424
VTail3
p7425
aF0.45136413444095902
aaa(lp7426
I678
a(lp7427
Vroot
p7428
aF0.016350769424344033
aa(lp7429
VTail1
p7430
aF0.15899174271225427
aa(lp7431
VTail2
p7432
aF0.46308633918187919
aa(lp7433
VTail3
p7434
aF0.34392909640572666
aa(lp7435
Vthigh_l
p7436
aF0.017642052275795881
aaa(lp7437
I679
a(lp7438
Vroot
p7439
aF0.012588622420134161
aa(lp7440
Vpelvis
p7441
aF0.013972962992628696
aa(lp7442
VTail1
p7443
aF0.17872556617743979
aa(lp7444
VTail2
p7445
aF0.50441841272919352
aa(lp7446
VTail3
p7447
aF0.29029443568060381
aaa(lp7448
I680
a(lp7449
Vroot
p7450
aF0.0080410291777459758
aa(lp7451
Vpelvis
p7452
aF0.0096090048900237049
aa(lp7453
VTail1
p7454
aF0.17320459750883274
aa(lp7455
VTail2
p7456
aF0.57562623222854514
aa(lp7457
VTail3
p7458
aF0.23351913619485248
aaa(lp7459
I681
a(lp7460
Vroot
p7461
aF0.0056326088387335955
aa(lp7462
Vpelvis
p7463
aF0.0071058138403120993
aa(lp7464
VTail1
p7465
aF0.16905213173450237
aa(lp7466
VTail2
p7467
aF0.63846523799895483
aa(lp7468
VTail3
p7469
aF0.17974420758749712
aaa(lp7470
I682
a(lp7471
Vpelvis
p7472
aF0.042037697344388246
aa(lp7473
VTail1
p7474
aF0.36412690646927581
aa(lp7475
VTail2
p7476
aF0.42000870231607046
aa(lp7477
VTail3
p7478
aF0.12837088453622075
aa(lp7479
Vthigh_l
p7480
aF0.045455809334044819
aaa(lp7481
I683
a(lp7482
Vroot
p7483
aF0.02286399018269835
aa(lp7484
Vpelvis
p7485
aF0.036203530556891496
aa(lp7486
VTail1
p7487
aF0.40803426971738721
aa(lp7488
VTail2
p7489
aF0.447320320181053
aa(lp7490
VTail3
p7491
aF0.085577889361969875
aaa(lp7492
I684
a(lp7493
Vroot
p7494
aF0.013356944258410094
aa(lp7495
Vpelvis
p7496
aF0.026486930791362287
aa(lp7497
VTail1
p7498
aF0.44461470626216332
aa(lp7499
VTail2
p7500
aF0.46774458786213902
aa(lp7501
VTail3
p7502
aF0.047796830825925347
aaa(lp7503
I685
a(lp7504
Vroot
p7505
aF0.00923230151592698
aa(lp7506
Vpelvis
p7507
aF0.021408977807631187
aa(lp7508
VTail1
p7509
aF0.46579039799292082
aa(lp7510
VTail2
p7511
aF0.47404199903679006
aa(lp7512
VTail3
p7513
aF0.029526323646730818
aaa(lp7514
I686
a(lp7515
Vroot
p7516
aF0.076856166323615721
aa(lp7517
Vpelvis
p7518
aF0.11425361436453525
aa(lp7519
VTail1
p7520
aF0.34837288541925943
aa(lp7521
VTail2
p7522
aF0.29707083243633486
aa(lp7523
Vthigh_l
p7524
aF0.16344650145625472
aaa(lp7525
I687
a(lp7526
Vroot
p7527
aF0.052804771465647972
aa(lp7528
Vpelvis
p7529
aF0.13189553804030923
aa(lp7530
VTail1
p7531
aF0.44840762338124779
aa(lp7532
VTail2
p7533
aF0.30640315992720485
aa(lp7534
Vthigh_l
p7535
aF0.060488907185590024
aaa(lp7536
I688
a(lp7537
Vroot
p7538
aF0.034849420507853425
aa(lp7539
Vpelvis
p7540
aF0.14290525296135281
aa(lp7541
VTail1
p7542
aF0.54088073444987095
aa(lp7543
VTail2
p7544
aF0.25928470764383676
aa(lp7545
Vthigh_l
p7546
aF0.022079884437085869
aaa(lp7547
I689
a(lp7548
Vroot
p7549
aF0.029245167712424334
aa(lp7550
Vpelvis
p7551
aF0.16000628295425126
aa(lp7552
VTail1
p7553
aF0.58267173460328014
aa(lp7554
VTail2
p7555
aF0.21577692947938562
aa(lp7556
VTail3
p7557
aF0.012299885250658636
aaa(lp7558
I690
a(lp7559
Vroot
p7560
aF0.097281481950426824
aa(lp7561
Vpelvis
p7562
aF0.17234251609729148
aa(lp7563
VTail1
p7564
aF0.19318856876797613
aa(lp7565
VTail2
p7566
aF0.076876037481026616
aa(lp7567
Vthigh_l
p7568
aF0.46031139570327895
aaa(lp7569
I691
a(lp7570
Vroot
p7571
aF0.095117509028918745
aa(lp7572
Vpelvis
p7573
aF0.30893171277989628
aa(lp7574
VTail1
p7575
aF0.36229233996963495
aa(lp7576
VTail2
p7577
aF0.089978004464019795
aa(lp7578
Vthigh_l
p7579
aF0.14368043375753028
aaa(lp7580
I692
a(lp7581
Vroot
p7582
aF0.068595132911169657
aa(lp7583
Vpelvis
p7584
aF0.38271885051925425
aa(lp7585
VTail1
p7586
aF0.43734103774682226
aa(lp7587
VTail2
p7588
aF0.06799383824544758
aa(lp7589
Vthigh_l
p7590
aF0.043351140577306276
aaa(lp7591
I693
a(lp7592
Vroot
p7593
aF0.05853678872906045
aa(lp7594
Vpelvis
p7595
aF0.41048590082262471
aa(lp7596
VTail1
p7597
aF0.45436112780184762
aa(lp7598
VTail2
p7599
aF0.056622580989956511
aa(lp7600
Vthigh_l
p7601
aF0.01999360165651078
aaa(lp7602
I694
a(lp7603
Vroot
p7604
aF0.026728512100610953
aa(lp7605
Vpelvis
p7606
aF0.47115016197598825
aa(lp7607
VTail1
p7608
aF0.022028508767778912
aa(lp7609
Vlowerarm_l
p7610
aF0.0089426551796337843
aa(lp7611
Vthigh_l
p7612
aF0.47115016197598825
aaa(lp7613
I695
a(lp7614
Vroot
p7615
aF0.12898075928573333
aa(lp7616
Vpelvis
p7617
aF0.32870895450728527
aa(lp7618
VTail1
p7619
aF0.21643772286375904
aa(lp7620
VTail2
p7621
aF0.026710250621254674
aa(lp7622
Vthigh_l
p7623
aF0.29916231272196775
aaa(lp7624
I696
a(lp7625
Vroot
p7626
aF0.14588718250486238
aa(lp7627
Vpelvis
p7628
aF0.40123196188671068
aa(lp7629
VTail1
p7630
aF0.32932980149019181
aa(lp7631
VTail2
p7632
aF0.029148381909832093
aa(lp7633
Vthigh_l
p7634
aF0.094402672208403107
aaa(lp7635
I697
a(lp7636
Vroot
p7637
aF0.14027978738888899
aa(lp7638
Vpelvis
p7639
aF0.44319067895873571
aa(lp7640
VTail1
p7641
aF0.34912470874028717
aa(lp7642
VTail2
p7643
aF0.027291113650934173
aa(lp7644
Vthigh_l
p7645
aF0.040113711261154088
aaa(lp7646
I698
a(lp7647
Vroot
p7648
aF0.034254310381573665
aa(lp7649
Vpelvis
p7650
aF0.46855492425169626
aa(lp7651
VTail1
p7652
aF0.016073006950357356
aa(lp7653
Vlowerarm_l
p7654
aF0.012562834164676405
aa(lp7655
Vthigh_l
p7656
aF0.46855492425169626
aaa(lp7657
I699
a(lp7658
Vroot
p7659
aF0.15387568872223489
aa(lp7660
Vpelvis
p7661
aF0.4364734025856894
aa(lp7662
VTail1
p7663
aF0.067883762462321473
aa(lp7664
Vspine_01
p7665
aF0.020895264365054029
aa(lp7666
Vthigh_l
p7667
aF0.32087188186470028
aaa(lp7668
I700
a(lp7669
Vroot
p7670
aF0.32563723527644672
aa(lp7671
Vpelvis
p7672
aF0.39017469308814073
aa(lp7673
VTail1
p7674
aF0.12085085411705038
aa(lp7675
Vspine_01
p7676
aF0.030884169815583375
aa(lp7677
Vthigh_l
p7678
aF0.13245304770277883
aaa(lp7679
I701
a(lp7680
Vroot
p7681
aF0.36510978599253996
aa(lp7682
Vpelvis
p7683
aF0.42744866004636817
aa(lp7684
VTail1
p7685
aF0.12492963438391133
aa(lp7686
Vspine_01
p7687
aF0.029389438140451054
aa(lp7688
Vthigh_l
p7689
aF0.053122481436729541
aaa(lp7690
I702
a(lp7691
Vroot
p7692
aF0.13710548043228568
aa(lp7693
Vpelvis
p7694
aF0.34684482260596999
aa(lp7695
Vspine_01
p7696
aF0.087447362203075862
aa(lp7697
Vlowerarm_l
p7698
aF0.099780905111020488
aa(lp7699
Vthigh_l
p7700
aF0.3288214296476481
aaa(lp7701
I703
a(lp7702
Vroot
p7703
aF0.24357741833237989
aa(lp7704
Vpelvis
p7705
aF0.33986327914574871
aa(lp7706
VTail1
p7707
aF0.049019299131295567
aa(lp7708
Vspine_01
p7709
aF0.14550622881496383
aa(lp7710
Vthigh_l
p7711
aF0.2220337745756121
aaa(lp7712
I704
a(lp7713
Vroot
p7714
aF0.2857792865555433
aa(lp7715
Vpelvis
p7716
aF0.44698182932232677
aa(lp7717
VTail1
p7718
aF0.040116618640178299
aa(lp7719
Vspine_01
p7720
aF0.1474031058182308
aa(lp7721
Vthigh_l
p7722
aF0.079719159663720757
aaa(lp7723
I705
a(lp7724
Vroot
p7725
aF0.29439489608276692
aa(lp7726
Vpelvis
p7727
aF0.50548998166914916
aa(lp7728
VTail1
p7729
aF0.033447376873722665
aa(lp7730
Vspine_01
p7731
aF0.13286891071592913
aa(lp7732
Vthigh_l
p7733
aF0.033798834658432163
aaa(lp7734
I706
a(lp7735
Vroot
p7736
aF0.11235716973065792
aa(lp7737
Vpelvis
p7738
aF0.30906347631255238
aa(lp7739
Vspine_01
p7740
aF0.29355238279978774
aa(lp7741
Vlowerarm_l
p7742
aF0.15318241764823259
aa(lp7743
Vthigh_l
p7744
aF0.13184455350876934
aaa(lp7745
I707
a(lp7746
Vroot
p7747
aF0.10733153936483181
aa(lp7748
Vpelvis
p7749
aF0.39261899507353221
aa(lp7750
Vspine_01
p7751
aF0.36825869234637221
aa(lp7752
Vspine_02
p7753
aF0.065628686210097154
aa(lp7754
Vthigh_l
p7755
aF0.066162087005166612
aaa(lp7756
I708
a(lp7757
Vroot
p7758
aF0.079493580914240025
aa(lp7759
Vpelvis
p7760
aF0.44726704510564291
aa(lp7761
Vspine_01
p7762
aF0.40556477270173746
aa(lp7763
Vspine_02
p7764
aF0.042752752911824551
aa(lp7765
Vthigh_l
p7766
aF0.024921848366555064
aaa(lp7767
I709
a(lp7768
Vroot
p7769
aF0.066220405237576455
aa(lp7770
Vpelvis
p7771
aF0.47710781448646561
aa(lp7772
Vspine_01
p7773
aF0.41339201846377466
aa(lp7774
Vspine_02
p7775
aF0.030929760922886265
aa(lp7776
Vthigh_l
p7777
aF0.012350000889296997
aaa(lp7778
I710
a(lp7779
Vpelvis
p7780
aF0.19447985800886305
aa(lp7781
Vspine_01
p7782
aF0.22779940478520455
aa(lp7783
Vspine_02
p7784
aF0.12394784386395712
aa(lp7785
Vupperarm_l
p7786
aF0.22688644667098767
aa(lp7787
Vupperarm_twist_01_l
p7788
aF0.22688644667098767
aaa(lp7789
I711
a(lp7790
Vpelvis
p7791
aF0.29895079504414934
aa(lp7792
Vspine_01
p7793
aF0.36655031792070497
aa(lp7794
Vspine_02
p7795
aF0.15549305964889459
aa(lp7796
Vupperarm_l
p7797
aF0.089502913693125616
aa(lp7798
Vupperarm_twist_01_l
p7799
aF0.089502913693125616
aaa(lp7800
I712
a(lp7801
Vpelvis
p7802
aF0.35189316754062933
aa(lp7803
Vspine_01
p7804
aF0.45523864914566198
aa(lp7805
Vspine_02
p7806
aF0.1350152212780866
aa(lp7807
Vupperarm_l
p7808
aF0.028926481017811055
aa(lp7809
Vupperarm_twist_01_l
p7810
aF0.028926481017811055
aaa(lp7811
I713
a(lp7812
Vroot
p7813
aF0.017787290718874516
aa(lp7814
Vpelvis
p7815
aF0.37374475431429066
aa(lp7816
Vspine_01
p7817
aF0.48826503346368938
aa(lp7818
Vspine_02
p7819
aF0.10776061599767217
aa(lp7820
Vupperarm_l
p7821
aF0.012442305505473266
aaa(lp7822
I714
a(lp7823
Vspine_01
p7824
aF0.11902892522837669
aa(lp7825
Vspine_02
p7826
aF0.11200074151449903
aa(lp7827
Vclavicle_l
p7828
aF0.11359522354355812
aa(lp7829
Vupperarm_l
p7830
aF0.33882459348786115
aa(lp7831
Vupperarm_twist_01_l
p7832
aF0.3165505162257049
aaa(lp7833
I715
a(lp7834
Vpelvis
p7835
aF0.10110818427501973
aa(lp7836
Vspine_01
p7837
aF0.3131841852553281
aa(lp7838
Vspine_02
p7839
aF0.28132212784594118
aa(lp7840
Vupperarm_l
p7841
aF0.15661603757051337
aa(lp7842
Vupperarm_twist_01_l
p7843
aF0.14776946505319768
aaa(lp7844
I716
a(lp7845
Vpelvis
p7846
aF0.097562002691783695
aa(lp7847
Vspine_01
p7848
aF0.45145219565822309
aa(lp7849
Vspine_02
p7850
aF0.36903555855733244
aa(lp7851
Vupperarm_l
p7852
aF0.041600711336489599
aa(lp7853
Vupperarm_twist_01_l
p7854
aF0.040349531756171175
aaa(lp7855
I717
a(lp7856
Vpelvis
p7857
aF0.080631290083588908
aa(lp7858
Vspine_01
p7859
aF0.51421009004426432
aa(lp7860
Vspine_02
p7861
aF0.36698649624181939
aa(lp7862
Vspine_03
p7863
aF0.024952601087499748
aa(lp7864
Vupperarm_l
p7865
aF0.013219522542827704
aaa(lp7866
I718
a(lp7867
Vspine_01
p7868
aF0.045350541225223362
aa(lp7869
Vspine_02
p7870
aF0.0501205065370285
aa(lp7871
Vclavicle_l
p7872
aF0.24124278113212172
aa(lp7873
Vupperarm_l
p7874
aF0.50536033282877812
aa(lp7875
Vupperarm_twist_01_l
p7876
aF0.15792583827684831
aaa(lp7877
I719
a(lp7878
Vspine_01
p7879
aF0.20786389059025012
aa(lp7880
Vspine_02
p7881
aF0.2321427054331226
aa(lp7882
Vclavicle_l
p7883
aF0.17999712124069539
aa(lp7884
Vupperarm_l
p7885
aF0.25438296853504055
aa(lp7886
Vupperarm_twist_01_l
p7887
aF0.12561331420089128
aaa(lp7888
I720
a(lp7889
Vspine_01
p7890
aF0.36643303420449902
aa(lp7891
Vspine_02
p7892
aF0.41821851478890482
aa(lp7893
Vspine_03
p7894
aF0.096977691033632921
aa(lp7895
VWingL
p7896
aF0.065237530191434481
aa(lp7897
Vupperarm_l
p7898
aF0.053133229781528728
aaa(lp7899
I721
a(lp7900
Vspine_01
p7901
aF0.422412927278904
aa(lp7902
Vspine_02
p7903
aF0.48735889838784624
aa(lp7904
Vspine_03
p7905
aF0.052559319473456094
aa(lp7906
VWingL
p7907
aF0.021943342635216592
aa(lp7908
VWingR
p7909
aF0.015725512224577083
aaa(lp7910
I722
a(lp7911
Vspine_03
p7912
aF0.020953121821418359
aa(lp7913
VWingL
p7914
aF0.020953121821418359
aa(lp7915
Vclavicle_l
p7916
aF0.45965116947641677
aa(lp7917
Vupperarm_l
p7918
aF0.48620861447938479
aa(lp7919
Vupperarm_twist_01_l
p7920
aF0.012233972401361691
aaa(lp7921
I723
a(lp7922
Vspine_02
p7923
aF0.12230932248169389
aa(lp7924
Vspine_03
p7925
aF0.21129827338262266
aa(lp7926
VWingL
p7927
aF0.20751679414756286
aa(lp7928
Vclavicle_l
p7929
aF0.22887158796373933
aa(lp7930
Vupperarm_l
p7931
aF0.23000402202438128
aaa(lp7932
I724
a(lp7933
Vspine_01
p7934
aF0.047676650385752049
aa(lp7935
Vspine_02
p7936
aF0.28046318728709468
aa(lp7937
Vspine_03
p7938
aF0.36164765290661682
aa(lp7939
VWingL
p7940
aF0.27175960956503842
aa(lp7941
Vclavicle_l
p7942
aF0.038452899855498004
aaa(lp7943
I725
a(lp7944
Vspine_01
p7945
aF0.04276493049218566
aa(lp7946
Vspine_02
p7947
aF0.5153581137732306
aa(lp7948
Vspine_03
p7949
aF0.30475032294027599
aa(lp7950
VWingL
p7951
aF0.095137376549565514
aa(lp7952
VWingR
p7953
aF0.041989256244742083
aaa(lp7954
I726
a(lp7955
Vspine_02
p7956
aF0.014279181443005107
aa(lp7957
Vspine_03
p7958
aF0.13097361461733048
aa(lp7959
VWingL
p7960
aF0.0820573547029263
aa(lp7961
Vclavicle_l
p7962
aF0.59853405469657894
aa(lp7963
Vupperarm_l
p7964
aF0.17415579454015923
aaa(lp7965
I727
a(lp7966
Vspine_02
p7967
aF0.021765710044720693
aa(lp7968
Vspine_03
p7969
aF0.45966814176065512
aa(lp7970
VWingL
p7971
aF0.45966814176065535
aa(lp7972
Vclavicle_l
p7973
aF0.039882023176874115
aa(lp7974
Vupperarm_l
p7975
aF0.019015983257094634
aaa(lp7976
I728
a(lp7977
Vspine_03
p7978
aF0.53436917773155324
aa(lp7979
VWingL
p7980
aF0.46420780838582121
aaa(lp7981
I729
a(lp7982
Vspine_02
p7983
aF0.038371829327900307
aa(lp7984
Vspine_03
p7985
aF0.79708941859206761
aa(lp7986
VWingL
p7987
aF0.1495280131815932
aa(lp7988
VWingR
p7989
aF0.014200244087219175
aaa(lp7990
I730
a(lp7991
Vspine_02
p7992
aF0.0031518660662188201
aa(lp7993
Vspine_03
p7994
aF0.77853353272387715
aa(lp7995
VWingL
p7996
aF0.024281839061459337
aa(lp7997
Vclavicle_l
p7998
aF0.19000714474374181
aa(lp7999
Vupperarm_l
p8000
aF0.0040256174047028394
aaa(lp8001
I731
a(lp8002
Vspine_02
p8003
aF0.015424582422714746
aa(lp8004
Vspine_03
p8005
aF0.57234235834733949
aa(lp8006
VWingL
p8007
aF0.32537978727087119
aa(lp8008
VWingR
p8009
aF0.010097514744224677
aa(lp8010
Vclavicle_l
p8011
aF0.076755757214849965
aaa(lp8012
I732
a(lp8013
Vspine_02
p8014
aF0.014307532091051159
aa(lp8015
Vspine_03
p8016
aF0.47980892761587973
aa(lp8017
VWingL
p8018
aF0.47980892761587995
aa(lp8019
VWingR
p8020
aF0.013751048716921432
aa(lp8021
Vclavicle_l
p8022
aF0.012323563960267576
aaa(lp8023
I733
a(lp8024
Vspine_02
p8025
aF0.055679435051194624
aa(lp8026
Vspine_03
p8027
aF0.44125644365197036
aa(lp8028
VWingL
p8029
aF0.3559683648266016
aa(lp8030
VWingR
p8031
aF0.13458651098386357
aa(lp8032
Vclavicle_l
p8033
aF0.012509245486369943
aaa(lp8034
I734
a(lp8035
Vspine_02
p8036
aF0.0049291101799262913
aa(lp8037
Vspine_03
p8038
aF0.70783122201895943
aa(lp8039
VWingL
p8040
aF0.016722075531074129
aa(lp8041
VWingR
p8042
aF0.0053131666305590644
aa(lp8043
Vclavicle_l
p8044
aF0.26520442563948127
aaa(lp8045
I735
a(lp8046
Vspine_02
p8047
aF0.015488653881844816
aa(lp8048
Vspine_03
p8049
aF0.71008877952535421
aa(lp8050
VWingL
p8051
aF0.06078690710441001
aa(lp8052
VWingR
p8053
aF0.019754522506154053
aa(lp8054
Vclavicle_l
p8055
aF0.19388113698223691
aaa(lp8056
I736
a(lp8057
Vspine_02
p8058
aF0.038432754103938489
aa(lp8059
Vspine_03
p8060
aF0.61616500892496928
aa(lp8061
VWingL
p8062
aF0.13670164896416034
aa(lp8063
VWingR
p8064
aF0.066653413016139043
aa(lp8065
Vclavicle_l
p8066
aF0.14204717499079281
aaa(lp8067
I737
a(lp8068
Vspine_02
p8069
aF0.068808557891331654
aa(lp8070
Vspine_03
p8071
aF0.48012401277934275
aa(lp8072
VWingL
p8073
aF0.1641948939219772
aa(lp8074
VWingR
p8075
aF0.18644961940510482
aa(lp8076
Vclavicle_l
p8077
aF0.10042291600224365
aaa(lp8078
I738
a(lp8079
Vroot
p8080
aF0.0069249437249566722
aa(lp8081
VTail1
p8082
aF0.030621037924140327
aa(lp8083
VTail2
p8084
aF0.47811697839805928
aa(lp8085
VTail3
p8086
aF0.47811697839805917
aa(lp8087
Vcalf_l
p8088
aF0.0062200615547845853
aaa(lp8089
I739
a(lp8090
Vroot
p8091
aF0.0066646865312214596
aa(lp8092
VTail1
p8093
aF0.030690656438625952
aa(lp8094
VTail2
p8095
aF0.47841273633133585
aa(lp8096
VTail3
p8097
aF0.47841273633133585
aa(lp8098
Vcalf_l
p8099
aF0.0058191843674809361
aaa(lp8100
I740
a(lp8101
Vroot
p8102
aF0.0064183856502055001
aa(lp8103
VTail1
p8104
aF0.030517957359609285
aa(lp8105
VTail2
p8106
aF0.47881512216979827
aa(lp8107
VTail3
p8108
aF0.47881512216979816
aa(lp8109
Vcalf_l
p8110
aF0.0054334126505888678
aaa(lp8111
I741
a(lp8112
Vroot
p8113
aF0.0061948268579064781
aa(lp8114
VTail1
p8115
aF0.030009293195290172
aa(lp8116
VTail2
p8117
aF0.47935339551499306
aa(lp8118
VTail3
p8119
aF0.47935339551499306
aa(lp8120
Vcalf_l
p8121
aF0.0050890889168172145
aaa(lp8122
I742
a(lp8123
Vspine_03
p8124
aF0.52733436140180334
aa(lp8125
VWingL
p8126
aF0.037280676429854061
aa(lp8127
Vclavicle_l
p8128
aF0.32797314425130392
aa(lp8129
Vclavicle_r
p8130
aF0.064851981550153176
aa(lp8131
Vneck_01
p8132
aF0.042559836366885553
aaa(lp8133
I743
a(lp8134
Vspine_03
p8135
aF0.5287933320369651
aa(lp8136
VWingL
p8137
aF0.050526264846268126
aa(lp8138
VWingR
p8139
aF0.045841359210316637
aa(lp8140
Vclavicle_l
p8141
aF0.28817846316390749
aa(lp8142
Vclavicle_r
p8143
aF0.086660580742542653
aaa(lp8144
I744
a(lp8145
Vspine_03
p8146
aF0.49643376975668629
aa(lp8147
VWingL
p8148
aF0.063847255283063092
aa(lp8149
VWingR
p8150
aF0.069323401258692713
aa(lp8151
Vclavicle_l
p8152
aF0.24357938067241844
aa(lp8153
Vclavicle_r
p8154
aF0.12681619302913938
aaa(lp8155
I745
a(lp8156
Vspine_03
p8157
aF0.43544781501575797
aa(lp8158
VWingL
p8159
aF0.071140387655401136
aa(lp8160
VWingR
p8161
aF0.09849711817898063
aa(lp8162
Vclavicle_l
p8163
aF0.20033813765055608
aa(lp8164
Vclavicle_r
p8165
aF0.19457654149930423
aaa(lp8166
I746
a(lp8167
Vroot
p8168
aF0.0081376239100725903
aa(lp8169
VTail1
p8170
aF0.036299080712246683
aa(lp8171
VTail2
p8172
aF0.4737717219940269
aa(lp8173
VTail3
p8174
aF0.47377172199402678
aa(lp8175
Vcalf_l
p8176
aF0.0080198513896271827
aaa(lp8177
I747
a(lp8178
Vroot
p8179
aF0.0058333204140540379
aa(lp8180
Vpelvis
p8181
aF0.00476786484136
aa(lp8182
VTail1
p8183
aF0.034003170210064021
aa(lp8184
VTail2
p8185
aF0.47769782226726082
aa(lp8186
VTail3
p8187
aF0.47769782226726104
aaa(lp8188
I748
a(lp8189
Vroot
p8190
aF0.0079540293857448176
aa(lp8191
VTail1
p8192
aF0.038045576705774596
aa(lp8193
VTail2
p8194
aF0.47284136127188597
aa(lp8195
VTail3
p8196
aF0.47284136127188586
aa(lp8197
Vcalf_l
p8198
aF0.0083176713647087862
aaa(lp8199
I749
a(lp8200
Vroot
p8201
aF0.0041215812128142532
aa(lp8202
Vpelvis
p8203
aF0.0035817616162190824
aa(lp8204
VTail1
p8205
aF0.031708434167998088
aa(lp8206
VTail2
p8207
aF0.48029411150148427
aa(lp8208
VTail3
p8209
aF0.48029411150148427
aaa(lp8210
I750
a(lp8211
VTail1
p8212
aF0.055628784504392167
aa(lp8213
VTail2
p8214
aF0.46197619870798079
aa(lp8215
VTail3
p8216
aF0.46197619870798068
aa(lp8217
Vthigh_l
p8218
aF0.010064086807562638
aa(lp8219
Vcalf_l
p8220
aF0.010354731272083799
aaa(lp8221
I751
a(lp8222
Vroot
p8223
aF0.0038905895582446704
aa(lp8224
Vpelvis
p8225
aF0.003878629153532123
aa(lp8226
VTail1
p8227
aF0.050541507499658495
aa(lp8228
VTail2
p8229
aF0.50129987058439529
aa(lp8230
VTail3
p8231
aF0.44038940320416936
aaa(lp8232
I752
a(lp8233
VTail1
p8234
aF0.15312014990830233
aa(lp8235
VTail2
p8236
aF0.4354038590992716
aa(lp8237
VTail3
p8238
aF0.36630229179616469
aa(lp8239
Vthigh_l
p8240
aF0.024024240284769613
aa(lp8241
Vcalf_l
p8242
aF0.021149458911491725
aaa(lp8243
I753
a(lp8244
Vroot
p8245
aF0.0070675502381823737
aa(lp8246
Vpelvis
p8247
aF0.0098972721841085846
aa(lp8248
VTail1
p8249
aF0.21107099664985474
aa(lp8250
VTail2
p8251
aF0.59930757045199134
aa(lp8252
VTail3
p8253
aF0.17265661047586287
aaa(lp8254
I754
a(lp8255
Vpelvis
p8256
aF0.048144517266101985
aa(lp8257
VTail1
p8258
aF0.33320650149820868
aa(lp8259
VTail2
p8260
aF0.39113539319114821
aa(lp8261
VTail3
p8262
aF0.15841953546051582
aa(lp8263
Vthigh_l
p8264
aF0.069094052584025303
aaa(lp8265
I755
a(lp8266
Vroot
p8267
aF0.0127631626316575
aa(lp8268
Vpelvis
p8269
aF0.033127125570298739
aa(lp8270
VTail1
p8271
aF0.46004207262821667
aa(lp8272
VTail2
p8273
aF0.45809759662283611
aa(lp8274
VTail3
p8275
aF0.035970042546990953
aaa(lp8276
I756
a(lp8277
Vroot
p8278
aF0.087111742405094852
aa(lp8279
Vpelvis
p8280
aF0.10399964425028552
aa(lp8281
VTail1
p8282
aF0.28459991215421987
aa(lp8283
VTail2
p8284
aF0.26220689940871905
aa(lp8285
Vthigh_l
p8286
aF0.26208180178168078
aaa(lp8287
I757
a(lp8288
Vroot
p8289
aF0.035962843273194232
aa(lp8290
Vpelvis
p8291
aF0.19346891123284152
aa(lp8292
VTail1
p8293
aF0.53542917967144854
aa(lp8294
VTail2
p8295
aF0.21923813325946362
aa(lp8296
VTail3
p8297
aF0.015900932563052101
aaa(lp8298
I758
a(lp8299
Vroot
p8300
aF0.069626003888242666
aa(lp8301
Vpelvis
p8302
aF0.14206082928715147
aa(lp8303
VTail1
p8304
aF0.099979904275409759
aa(lp8305
VTail2
p8306
aF0.051485895897229822
aa(lp8307
Vthigh_l
p8308
aF0.6368473666519664
aaa(lp8309
I759
a(lp8310
Vroot
p8311
aF0.06844408574958942
aa(lp8312
Vpelvis
p8313
aF0.40524917312086084
aa(lp8314
VTail1
p8315
aF0.43639224608692639
aa(lp8316
VTail2
p8317
aF0.068750154218778392
aa(lp8318
Vthigh_r
p8319
aF0.021164340823844975
aaa(lp8320
I760
a(lp8321
Vroot
p8322
aF0.018622435034319366
aa(lp8323
Vpelvis
p8324
aF0.46423822417331734
aa(lp8325
VTail1
p8326
aF0.014447605005278799
aa(lp8327
Vlowerarm_l
p8328
aF0.014428051439142822
aa(lp8329
Vthigh_l
p8330
aF0.48826368434794165
aaa(lp8331
I761
a(lp8332
Vroot
p8333
aF0.15122852908337242
aa(lp8334
Vpelvis
p8335
aF0.42819450284254279
aa(lp8336
VTail1
p8337
aF0.3495730076960854
aa(lp8338
Vthigh_l
p8339
aF0.036254984933871415
aa(lp8340
Vthigh_r
p8341
aF0.034748975444128
aaa(lp8342
I762
a(lp8343
Vroot
p8344
aF0.0189562239317001
aa(lp8345
Vpelvis
p8346
aF0.47089527482414101
aa(lp8347
Vlowerarm_l
p8348
aF0.019626613210008931
aa(lp8349
Vlowerarm_twist_01_l
p8350
aF0.019626613210008931
aa(lp8351
Vthigh_l
p8352
aF0.47089527482414101
aaa(lp8353
I763
a(lp8354
Vroot
p8355
aF0.35878857542563525
aa(lp8356
Vpelvis
p8357
aF0.41463062890064623
aa(lp8358
VTail1
p8359
aF0.14087175703210769
aa(lp8360
Vthigh_l
p8361
aF0.045513772561718083
aa(lp8362
Vthigh_r
p8363
aF0.040195266079892905
aaa(lp8364
I764
a(lp8365
Vroot
p8366
aF0.085166331707235615
aa(lp8367
Vpelvis
p8368
aF0.28847673403650226
aa(lp8369
Vlowerarm_l
p8370
aF0.17224746710174904
aa(lp8371
Vlowerarm_twist_01_l
p8372
aF0.14437463612378837
aa(lp8373
Vthigh_l
p8374
aF0.30973483103072486
aaa(lp8375
I765
a(lp8376
Vroot
p8377
aF0.30048266166816828
aa(lp8378
Vpelvis
p8379
aF0.48394522364378545
aa(lp8380
VTail1
p8381
aF0.040016773207972305
aa(lp8382
Vspine_01
p8383
aF0.14477502860249014
aa(lp8384
Vthigh_l
p8385
aF0.030780312877583892
aaa(lp8386
I766
a(lp8387
Vpelvis
p8388
aF0.21461896781435136
aa(lp8389
Vspine_01
p8390
aF0.20592989513464999
aa(lp8391
Vupperarm_l
p8392
aF0.13752224312670083
aa(lp8393
Vlowerarm_l
p8394
aF0.29579081779990707
aa(lp8395
Vthigh_l
p8396
aF0.14613807612439075
aaa(lp8397
I767
a(lp8398
Vroot
p8399
aF0.077034401332166338
aa(lp8400
Vpelvis
p8401
aF0.46485140861288393
aa(lp8402
Vspine_01
p8403
aF0.40890911979611
aa(lp8404
Vspine_02
p8405
aF0.036417030186359077
aa(lp8406
Vthigh_l
p8407
aF0.012788040072480666
aaa(lp8408
I768
a(lp8409
Vpelvis
p8410
aF0.15802008997755621
aa(lp8411
Vspine_01
p8412
aF0.19322494844761956
aa(lp8413
Vspine_02
p8414
aF0.12639372027919257
aa(lp8415
Vupperarm_l
p8416
aF0.26118062064781589
aa(lp8417
Vupperarm_twist_01_l
p8418
aF0.26118062064781589
aaa(lp8419
I769
a(lp8420
Vroot
p8421
aF0.021580773625252875
aa(lp8422
Vpelvis
p8423
aF0.37557905382162515
aa(lp8424
Vspine_01
p8425
aF0.46991600750626739
aa(lp8426
Vspine_02
p8427
aF0.11829219129836391
aa(lp8428
Vspine_03
p8429
aF0.014631973748490719
aaa(lp8430
I770
a(lp8431
Vspine_01
p8432
aF0.089410913371232692
aa(lp8433
Vclavicle_l
p8434
aF0.089326425068992479
aa(lp8435
Vupperarm_l
p8436
aF0.37913464167873862
aa(lp8437
Vlowerarm_l
p8438
aF0.12568411323061071
aa(lp8439
Vupperarm_twist_01_l
p8440
aF0.31644390665042554
aaa(lp8441
I771
a(lp8442
Vpelvis
p8443
aF0.091777769656927896
aa(lp8444
Vspine_01
p8445
aF0.49692097021381121
aa(lp8446
Vspine_02
p8447
aF0.36805259438951909
aa(lp8448
Vspine_03
p8449
aF0.02909416165582563
aa(lp8450
VWingL
p8451
aF0.014154504083916169
aaa(lp8452
I772
a(lp8453
Vspine_01
p8454
aF0.011573103759344292
aa(lp8455
Vspine_02
p8456
aF0.012780775333808716
aa(lp8457
Vclavicle_l
p8458
aF0.13189896924627534
aa(lp8459
Vupperarm_l
p8460
aF0.76725861180521038
aa(lp8461
Vupperarm_twist_01_l
p8462
aF0.076488539855361332
aaa(lp8463
I773
a(lp8464
Vspine_01
p8465
aF0.42376415888218061
aa(lp8466
Vspine_02
p8467
aF0.47546207299686055
aa(lp8468
Vspine_03
p8469
aF0.058193207344391193
aa(lp8470
VWingL
p8471
aF0.021649312837549839
aa(lp8472
VWingR
p8473
aF0.020931247939017853
aaa(lp8474
I774
a(lp8475
Vspine_03
p8476
aF0.0036202747292071202
aa(lp8477
VWingL
p8478
aF0.0031215710019217059
aa(lp8479
Vclavicle_l
p8480
aF0.30966550400988807
aa(lp8481
Vupperarm_l
p8482
aF0.68029660501923894
aa(lp8483
Vupperarm_twist_01_l
p8484
aF0.0032960452397440484
aaa(lp8485
I775
a(lp8486
Vspine_01
p8487
aF0.057352721425099167
aa(lp8488
Vspine_02
p8489
aF0.53712817164768378
aa(lp8490
Vspine_03
p8491
aF0.27910485425103942
aa(lp8492
VWingL
p8493
aF0.065593820923198695
aa(lp8494
VWingR
p8495
aF0.060820431752978917
aaa(lp8496
I776
a(lp8497
Vspine_02
p8498
aF0.0026776478295742413
aa(lp8499
Vspine_03
p8500
aF0.032105902208852531
aa(lp8501
VWingL
p8502
aF0.011452567902568532
aa(lp8503
Vclavicle_l
p8504
aF0.80669929737756829
aa(lp8505
Vupperarm_l
p8506
aF0.14706458468143649
aaa(lp8507
I777
a(lp8508
Vspine_02
p8509
aF0.18908056157062378
aa(lp8510
Vspine_03
p8511
aF0.55205391897110301
aa(lp8512
VWingL
p8513
aF0.12570181280149195
aa(lp8514
VWingR
p8515
aF0.13081343893503763
aa(lp8516
Vclavicle_l
p8517
aF0.0023502677217435838
aaa(lp8518
I778
a(lp8519
Vspine_02
p8520
aF0.001452622489349135
aa(lp8521
Vspine_03
p8522
aF0.54885352984323144
aa(lp8523
VWingL
p8524
aF0.0085076940771942628
aa(lp8525
Vclavicle_l
p8526
aF0.43751607189457381
aa(lp8527
Vupperarm_l
p8528
aF0.0036700816956512909
aaa(lp8529
I779
a(lp8530
Vspine_02
p8531
aF0.062405558620940799
aa(lp8532
Vspine_03
p8533
aF0.37966956500083038
aa(lp8534
VWingL
p8535
aF0.18605975875060676
aa(lp8536
VWingR
p8537
aF0.36302433050563704
aa(lp8538
Vclavicle_l
p8539
aF0.0088407871219849977
aaa(lp8540
I780
a(lp8541
Vspine_03
p8542
aF0.59997279198992648
aa(lp8543
VWingL
p8544
aF0.00961679030491807
aa(lp8545
Vclavicle_l
p8546
aF0.38370178040251685
aa(lp8547
Vclavicle_r
p8548
aF0.0030488708533011732
aa(lp8549
Vneck_01
p8550
aF0.0036597664493374731
aaa(lp8551
I781
a(lp8552
Vspine_03
p8553
aF0.37943697477948907
aa(lp8554
VWingL
p8555
aF0.16020001897213706
aa(lp8556
VWingR
p8557
aF0.29133950087298216
aa(lp8558
Vclavicle_l
p8559
aF0.079214145835708946
aa(lp8560
Vclavicle_r
p8561
aF0.089809359539682873
aaa(lp8562
I782
a(lp8563
Vroot
p8564
aF0.0078091082910056514
aa(lp8565
VTail1
p8566
aF0.033584542629887124
aa(lp8567
VTail2
p8568
aF0.47577828115397158
aa(lp8569
VTail3
p8570
aF0.47577828115397158
aa(lp8571
Vcalf_l
p8572
aF0.0070497867711640403
aaa(lp8573
I783
a(lp8574
Vroot
p8575
aF0.007023592727277107
aa(lp8576
VTail1
p8577
aF0.032923119058339216
aa(lp8578
VTail2
p8579
aF0.47712994671170961
aa(lp8580
VTail3
p8581
aF0.47712994671170983
aa(lp8582
Vcalf_l
p8583
aF0.0057933947909642293
aaa(lp8584
I784
a(lp8585
Vspine_03
p8586
aF0.46034457843835186
aa(lp8587
VWingL
p8588
aF0.038466876991460348
aa(lp8589
Vclavicle_l
p8590
aF0.3480092085739121
aa(lp8591
Vclavicle_r
p8592
aF0.0916677551022472
aa(lp8593
Vneck_01
p8594
aF0.061511580894028438
aaa(lp8595
I785
a(lp8596
Vspine_03
p8597
aF0.42188387920305581
aa(lp8598
VWingL
p8599
aF0.059937467155532081
aa(lp8600
VWingR
p8601
aF0.0898291288759933
aa(lp8602
Vclavicle_l
p8603
aF0.18407988605131431
aa(lp8604
Vclavicle_r
p8605
aF0.24426963871410462
aaa.