(lp1
(lp2
S'head_fk_anim'
p3
a(lp4
(lp5
Na(lp6
aaaa(lp7
S'neck_01_fk_anim'
p8
a(lp9
(lp10
Na(lp11
aaaa(lp12
g9
aa(lp13
g9
aa(lp14
S'spine_01_anim'
p15
a(lp16
(lp17
Na(lp18
aaaa(lp19
S'spine_02_anim'
p20
a(lp21
(lp22
Na(lp23
aaaa(lp24
S'spine_03_anim'
p25
a(lp26
(lp27
Na(lp28
aaaa(lp29
g26
aa(lp30
g26
aa(lp31
S'mid_ik_anim'
p32
a(lp33
(lp34
Na(lp35
aaaa(lp36
S'chest_ik_anim'
p37
a(lp38
(lp39
Na(lp40
aaaa(lp41
S'body_anim'
p42
a(lp43
(lp44
Na(lp45
aaaa(lp46
S'hip_anim'
p47
a(lp48
(lp49
Na(lp50
aaaa(lp51
S'clavicle_l_anim'
p52
a(lp53
(lp54
Na(lp55
aaaa(lp56
S'clavicle_r_anim'
p57
a(lp58
(lp59
Na(lp60
aaaa(lp61
S'fk_arm_l_anim'
p62
a(lp63
(lp64
Na(lp65
aaaa(lp66
S'fk_arm_r_anim'
p67
a(lp68
(lp69
Na(lp70
aaaa(lp71
S'fk_elbow_l_anim'
p72
a(lp73
(lp74
Na(lp75
aaaa(lp76
S'fk_elbow_r_anim'
p77
a(lp78
(lp79
Na(lp80
aaaa(lp81
S'fk_wrist_l_anim'
p82
a(lp83
(lp84
Na(lp85
aaaa(lp86
S'fk_wrist_r_anim'
p87
a(lp88
(lp89
Na(lp90
aaaa(lp91
S'ik_elbow_l_anim'
p92
a(lp93
(lp94
Na(lp95
aaaa(lp96
S'ik_elbow_r_anim'
p97
a(lp98
(lp99
Na(lp100
(lp101
VtranslateX
p102
a(lp103
(lp104
F0
aF0
a(lp105
Vauto
p106
aVauto
p107
aF0
aF0
aF3.3333334922790527
aF3.3333334922790527
aaa(lp108
F10
aF28.643750185727804
a(lp109
Vauto
p110
aVauto
p111
aF0
aF0
aF3.3333334922790527
aF3.3333334922790527
aaaaa(lp112
VtranslateY
p113
a(lp114
(lp115
F0
aF0
a(lp116
Vauto
p117
aVauto
p118
aF0
aF0
aF3.3333334922790527
aF3.3333334922790527
aaa(lp119
F10
aF-126.50091447017607
a(lp120
Vauto
p121
aVauto
p122
aF0
aF0
aF3.3333334922790527
aF3.3333334922790527
aaaaa(lp123
VtranslateZ
p124
a(lp125
(lp126
F0
aF0
a(lp127
Vauto
p128
aVauto
p129
aF0
aF0
aF3.3333334922790527
aF3.3333334922790527
aaa(lp130
F10
aF70.5233019842658
a(lp131
Vauto
p132
aVauto
p133
aF0
aF0
aF3.3333334922790527
aF3.3333334922790527
aaaaaaaaa(lp134
S'ik_wrist_l_anim'
p135
a(lp136
(lp137
Na(lp138
aaaa(lp139
S'ik_wrist_r_anim'
p140
a(lp141
(lp142
Na(lp143
(lp144
VtranslateX
p145
a(lp146
(lp147
F0
aF0
a(lp148
Vauto
p149
aVauto
p150
aF0
aF0
aF3.3333334922790527
aF3.3333334922790527
aaa(lp151
F10
aF156.03792013808072
a(lp152
Vauto
p153
aVauto
p154
aF0
aF0
aF3.3333334922790527
aF3.3333334922790527
aaaaa(lp155
VtranslateY
p156
a(lp157
(lp158
F0
aF0
a(lp159
Vauto
p160
aVauto
p161
aF0
aF0
aF3.3333334922790527
aF3.3333334922790527
aaa(lp162
F10
aF-45.204992759807723
a(lp163
Vauto
p164
aVauto
p165
aF0
aF0
aF3.3333334922790527
aF3.3333334922790527
aaaaa(lp166
VtranslateZ
p167
a(lp168
(lp169
F0
aF0
a(lp170
Vauto
p171
aVauto
p172
aF0
aF0
aF3.3333334922790527
aF3.3333334922790527
aaa(lp173
F10
aF129.24559239787658
a(lp174
Vauto
p175
aVauto
p176
aF0
aF0
aF3.3333334922790527
aF3.3333334922790527
aaaaa(lp177
VrotateX
p178
a(lp179
(lp180
F0
aF0
a(lp181
Vauto
p182
aVauto
p183
aF0
aF0
aF3.3333334922790527
aF3.3333334922790527
aaa(lp184
F10
aF-90.040966882086479
a(lp185
Vauto
p186
aVauto
p187
aF0
aF0
aF3.3333334922790527
aF3.3333334922790527
aaaaa(lp188
VrotateY
p189
a(lp190
(lp191
F0
aF0
a(lp192
Vauto
p193
aVauto
p194
aF0
aF0
aF3.3333334922790527
aF3.3333334922790527
aaa(lp195
F10
aF0.033675690703132616
a(lp196
Vauto
p197
aVauto
p198
aF0
aF0
aF3.3333334922790527
aF3.3333334922790527
aaaaa(lp199
VrotateZ
p200
a(lp201
(lp202
F0
aF0
a(lp203
Vauto
p204
aVauto
p205
aF0
aF0
aF3.3333334922790527
aF3.3333334922790527
aaa(lp206
F10
aF39.420960828515035
a(lp207
Vauto
p208
aVauto
p209
aF0
aF0
aF3.3333334922790527
aF3.3333334922790527
aaaaa(lp210
Vstretch
p211
a(lp212
(lp213
F0
aF0
a(lp214
Vauto
p215
aVauto
p216
aF0
aF0
aF3.3333334922790527
aF3.3333334922790527
aaa(lp217
F10
aF0
a(lp218
Vauto
p219
aVauto
p220
aF0
aF0
aF3.3333334922790527
aF3.3333334922790527
aaaaa(lp221
Vsquash
p222
a(lp223
(lp224
F0
aF0
a(lp225
Vauto
p226
aVauto
p227
aF0
aF0
aF3.3333334922790527
aF3.3333334922790527
aaa(lp228
F10
aF0
a(lp229
Vauto
p230
aVauto
p231
aF0
aF0
aF3.3333334922790527
aF3.3333334922790527
aaaaa(lp232
VstretchBias
p233
a(lp234
(lp235
F0
aF0
a(lp236
Vauto
p237
aVauto
p238
aF0
aF0
aF3.3333334922790527
aF3.3333334922790527
aaa(lp239
F10
aF0
a(lp240
Vauto
p241
aVauto
p242
aF0
aF0
aF3.3333334922790527
aF3.3333334922790527
aaaaa(lp243
Vside
p244
a(lp245
(lp246
F0
aF0
a(lp247
Vauto
p248
aVauto
p249
aF0
aF0
aF3.3333334922790527
aF3.3333334922790527
aaa(lp250
F10
aF0
a(lp251
Vauto
p252
aVauto
p253
aF0
aF0
aF3.3333334922790527
aF3.3333334922790527
aaaaa(lp254
Vmid_bend
p255
a(lp256
(lp257
F0
aF0
a(lp258
Vauto
p259
aVauto
p260
aF0
aF0
aF3.3333334922790527
aF3.3333334922790527
aaa(lp261
F10
aF0
a(lp262
Vauto
p263
aVauto
p264
aF0
aF0
aF3.3333334922790527
aF3.3333334922790527
aaaaa(lp265
Vmid_swivel
p266
a(lp267
(lp268
F0
aF0
a(lp269
Vauto
p270
aVauto
p271
aF0
aF0
aF3.3333334922790527
aF3.3333334922790527
aaa(lp272
F10
aF0
a(lp273
Vauto
p274
aVauto
p275
aF0
aF0
aF3.3333334922790527
aF3.3333334922790527
aaaaa(lp276
Vtip_pivot
p277
a(lp278
(lp279
F0
aF0
a(lp280
Vauto
p281
aVauto
p282
aF0
aF0
aF3.3333334922790527
aF3.3333334922790527
aaa(lp283
F10
aF0
a(lp284
Vauto
p285
aVauto
p286
aF0
aF0
aF3.3333334922790527
aF3.3333334922790527
aaaaa(lp287
Vtip_swivel
p288
a(lp289
(lp290
F0
aF0
a(lp291
Vauto
p292
aVauto
p293
aF0
aF0
aF3.3333334922790527
aF3.3333334922790527
aaa(lp294
F10
aF0
a(lp295
Vauto
p296
aVauto
p297
aF0
aF0
aF3.3333334922790527
aF3.3333334922790527
aaaaaaaaa(lp298
S'fk_thigh_l_anim'
p299
a(lp300
(lp301
Na(lp302
aaaa(lp303
S'fk_thigh_r_anim'
p304
a(lp305
(lp306
Na(lp307
aaaa(lp308
S'fk_calf_l_anim'
p309
a(lp310
(lp311
Na(lp312
aaaa(lp313
S'fk_calf_r_anim'
p314
a(lp315
(lp316
Na(lp317
aaaa(lp318
S'fk_foot_l_anim'
p319
a(lp320
(lp321
Na(lp322
aaaa(lp323
S'fk_foot_r_anim'
p324
a(lp325
(lp326
Na(lp327
aaaa(lp328
S'fk_ball_l_anim'
p329
a(lp330
(lp331
Na(lp332
aaaa(lp333
S'fk_ball_r_anim'
p334
a(lp335
(lp336
Na(lp337
aaaa(lp338
S'ik_foot_anim_l'
p339
a(lp340
(lp341
Na(lp342
aaaa(lp343
S'ik_foot_anim_r'
p344
a(lp345
(lp346
Na(lp347
aaaa(lp348
S'heel_ctrl_l'
p349
a(lp350
(lp351
Na(lp352
aaaa(lp353
S'heel_ctrl_r'
p354
a(lp355
(lp356
Na(lp357
aaaa(lp358
S'toe_wiggle_ctrl_l'
p359
a(lp360
(lp361
Na(lp362
aaaa(lp363
S'toe_wiggle_ctrl_r'
p364
a(lp365
(lp366
Na(lp367
aaaa(lp368
S'toe_tip_ctrl_l'
p369
a(lp370
(lp371
Na(lp372
aaaa(lp373
S'toe_tip_ctrl_r'
p374
a(lp375
(lp376
Na(lp377
aaaa(lp378
S'master_anim'
p379
a(lp380
(lp381
Na(lp382
aaaa(lp383
S'offset_anim'
p384
a(lp385
(lp386
Na(lp387
aaaa(lp388
S'root_anim'
p389
a(lp390
(lp391
Na(lp392
aaaa(lp393
S'upperarm_l_twist_anim'
p394
a(lp395
(lp396
Na(lp397
aaaa(lp398
S'upperarm_r_twist_anim'
p399
a(lp400
(lp401
Na(lp402
aaaa(lp403
g400
aa(lp404
g400
aa(lp405
g400
aa(lp406
g400
aa(lp407
S'pinky_finger_fk_ctrl_1_l'
p408
a(lp409
(lp410
Na(lp411
aaaa(lp412
S'pinky_finger_fk_ctrl_1_r'
p413
a(lp414
(lp415
Na(lp416
aaaa(lp417
S'pinky_finger_fk_ctrl_2_l'
p418
a(lp419
(lp420
Na(lp421
aaaa(lp422
S'pinky_finger_fk_ctrl_2_r'
p423
a(lp424
(lp425
Na(lp426
aaaa(lp427
S'pinky_finger_fk_ctrl_3_l'
p428
a(lp429
(lp430
Na(lp431
aaaa(lp432
S'pinky_finger_fk_ctrl_3_r'
p433
a(lp434
(lp435
Na(lp436
aaaa(lp437
g434
aa(lp438
g434
aa(lp439
S'ring_finger_fk_ctrl_1_l'
p440
a(lp441
(lp442
Na(lp443
aaaa(lp444
S'ring_finger_fk_ctrl_1_r'
p445
a(lp446
(lp447
Na(lp448
aaaa(lp449
S'ring_finger_fk_ctrl_2_l'
p450
a(lp451
(lp452
Na(lp453
aaaa(lp454
S'ring_finger_fk_ctrl_2_r'
p455
a(lp456
(lp457
Na(lp458
aaaa(lp459
S'ring_finger_fk_ctrl_3_l'
p460
a(lp461
(lp462
Na(lp463
aaaa(lp464
S'ring_finger_fk_ctrl_3_r'
p465
a(lp466
(lp467
Na(lp468
aaaa(lp469
g466
aa(lp470
g466
aa(lp471
S'middle_finger_fk_ctrl_1_l'
p472
a(lp473
(lp474
Na(lp475
aaaa(lp476
S'middle_finger_fk_ctrl_1_r'
p477
a(lp478
(lp479
Na(lp480
aaaa(lp481
S'middle_finger_fk_ctrl_2_l'
p482
a(lp483
(lp484
Na(lp485
aaaa(lp486
S'middle_finger_fk_ctrl_2_r'
p487
a(lp488
(lp489
Na(lp490
aaaa(lp491
S'middle_finger_fk_ctrl_3_l'
p492
a(lp493
(lp494
Na(lp495
aaaa(lp496
S'middle_finger_fk_ctrl_3_r'
p497
a(lp498
(lp499
Na(lp500
aaaa(lp501
g498
aa(lp502
g498
aa(lp503
S'index_finger_fk_ctrl_1_l'
p504
a(lp505
(lp506
Na(lp507
aaaa(lp508
S'index_finger_fk_ctrl_1_r'
p509
a(lp510
(lp511
Na(lp512
aaaa(lp513
S'index_finger_fk_ctrl_2_l'
p514
a(lp515
(lp516
Na(lp517
aaaa(lp518
S'index_finger_fk_ctrl_2_r'
p519
a(lp520
(lp521
Na(lp522
aaaa(lp523
S'index_finger_fk_ctrl_3_l'
p524
a(lp525
(lp526
Na(lp527
aaaa(lp528
S'index_finger_fk_ctrl_3_r'
p529
a(lp530
(lp531
Na(lp532
aaaa(lp533
S'thumb_finger_fk_ctrl_1_l'
p534
a(lp535
(lp536
Na(lp537
aaaa(lp538
S'thumb_finger_fk_ctrl_1_r'
p539
a(lp540
(lp541
Na(lp542
aaaa(lp543
S'thumb_finger_fk_ctrl_2_l'
p544
a(lp545
(lp546
Na(lp547
aaaa(lp548
S'thumb_finger_fk_ctrl_2_r'
p549
a(lp550
(lp551
Na(lp552
aaaa(lp553
S'thumb_finger_fk_ctrl_3_l'
p554
a(lp555
(lp556
Na(lp557
aaaa(lp558
S'thumb_finger_fk_ctrl_3_r'
p559
a(lp560
(lp561
Na(lp562
aaaa(lp563
S'index_l_ik_anim'
p564
a(lp565
(lp566
Na(lp567
aaaa(lp568
S'index_r_ik_anim'
p569
a(lp570
(lp571
Na(lp572
aaaa(lp573
S'middle_l_ik_anim'
p574
a(lp575
(lp576
Na(lp577
aaaa(lp578
S'middle_r_ik_anim'
p579
a(lp580
(lp581
Na(lp582
aaaa(lp583
S'ring_l_ik_anim'
p584
a(lp585
(lp586
Na(lp587
aaaa(lp588
S'ring_r_ik_anim'
p589
a(lp590
(lp591
Na(lp592
aaaa(lp593
S'pinky_l_ik_anim'
p594
a(lp595
(lp596
Na(lp597
aaaa(lp598
S'pinky_r_ik_anim'
p599
a(lp600
(lp601
Na(lp602
aaaa(lp603
S'thumb_l_ik_anim'
p604
a(lp605
(lp606
Na(lp607
aaaa(lp608
S'thumb_r_ik_anim'
p609
a(lp610
(lp611
Na(lp612
aaaa(lp613
S'index_l_poleVector'
p614
a(lp615
(lp616
Na(lp617
aaaa(lp618
S'index_r_poleVector'
p619
a(lp620
(lp621
Na(lp622
aaaa(lp623
S'middle_l_poleVector'
p624
a(lp625
(lp626
Na(lp627
aaaa(lp628
S'middle_r_poleVector'
p629
a(lp630
(lp631
Na(lp632
aaaa(lp633
S'ring_l_poleVector'
p634
a(lp635
(lp636
Na(lp637
aaaa(lp638
S'ring_r_poleVector'
p639
a(lp640
(lp641
Na(lp642
aaaa(lp643
S'pinky_l_poleVector'
p644
a(lp645
(lp646
Na(lp647
aaaa(lp648
S'pinky_r_poleVector'
p649
a(lp650
(lp651
Na(lp652
aaaa(lp653
S'thumb_l_poleVector'
p654
a(lp655
(lp656
Na(lp657
aaaa(lp658
S'thumb_r_poleVector'
p659
a(lp660
(lp661
Na(lp662
aaaa(lp663
S'l_global_ik_anim'
p664
a(lp665
(lp666
Na(lp667
aaaa(lp668
S'r_global_ik_anim'
p669
a(lp670
(lp671
Na(lp672
aaaa(lp673
S'Rig_Settings'
p674
a(lp675
(lp676
Na(lp677
aaaa(lp678
VswordLoc_anim
p679
a(lp680
(lp681
Na(lp682
aaaa(lp683
Vbody_anim_space_switcher
p684
a(lp685
(lp686
Na(lp687
aaaa(lp688
Vchest_ik_anim_space_switcher
p689
a(lp690
(lp691
Na(lp692
aaaa(lp693
Vik_elbow_l_anim_space_switcher
p694
a(lp695
(lp696
Na(lp697
aaaa(lp698
Vik_elbow_r_anim_space_switcher
p699
a(lp700
(lp701
Na(lp702
aaaa(lp703
Vik_foot_anim_l_space_switcher
p704
a(lp705
(lp706
Na(lp707
aaaa(lp708
Vik_foot_anim_r_space_switcher
p709
a(lp710
(lp711
Na(lp712
aaaa(lp713
Vik_wrist_l_anim_space_switcher
p714
a(lp715
(lp716
Na(lp717
aaaa(lp718
Vik_wrist_r_anim_space_switcher
p719
a(lp720
(lp721
Na(lp722
aaaa(lp723
Vl_global_ik_anim_space_switcher
p724
a(lp725
(lp726
Na(lp727
aaaa(lp728
Vmaster_anim_space_switcher
p729
a(lp730
(lp731
Na(lp732
aaaa(lp733
Vr_global_ik_anim_space_switcher
p734
a(lp735
(lp736
Na(lp737
aaaa(lp738
Vspine_01_space_switcher
p739
a(lp740
(lp741
Na(lp742
aaaa(lp743
VswordLoc_anim_space_switcher
p744
a(lp745
(lp746
Na(lp747
aaaa(lp748
S'chest_ik_world_aligned'
p749
a(lp750
(lp751
Na(lp752
aaaa(lp753
S'fk_orient_world_loc_l'
p754
a(lp755
(lp756
Na(lp757
aaaa(lp758
S'fk_orient_world_loc_r'
p759
a(lp760
(lp761
Na(lp762
aaaa(lp763
S'fk_orient_body_loc_l'
p764
a(lp765
(lp766
Na(lp767
aaaa(lp768
S'fk_orient_body_loc_r'
p769
a(lp770
(lp771
Na(lp772
aaaa(lp773
S'head_fk_orient_neck'
p774
a(lp775
(lp776
Na(lp777
aaaa(lp778
S'head_fk_orient_shoulder'
p779
a(lp780
(lp781
Na(lp782
aaaa(lp783
S'head_fk_orient_body'
p784
a(lp785
(lp786
Na(lp787
aaaa(lp788
S'head_fk_orient_world'
p789
a(lp790
(lp791
Na(lp792
aaaa.